ARM GAS  C:\Users\ylee818\AppData\Local\Temp\cc7o0S2R.s 			page 1


   1              		.syntax unified
   2              		.cpu cortex-m3
   3              		.fpu softvfp
   4              		.eabi_attribute 20, 1
   5              		.eabi_attribute 21, 1
   6              		.eabi_attribute 23, 3
   7              		.eabi_attribute 24, 1
   8              		.eabi_attribute 25, 1
   9              		.eabi_attribute 26, 1
  10              		.eabi_attribute 30, 6
  11              		.eabi_attribute 34, 1
  12              		.eabi_attribute 18, 4
  13              		.thumb
  14              		.syntax unified
  15              		.file	"directions.c"
  16              		.text
  17              	.Ltext0:
  18              		.cfi_sections	.debug_frame
  19              		.data
  20              		.align	2
  21              		.type	TICKS_90_LEFT, %object
  22              		.size	TICKS_90_LEFT, 4
  23              	TICKS_90_LEFT:
  24 0000 5A000000 		.word	90
  25              		.align	2
  26              		.type	TICKS_90_RIGHT, %object
  27              		.size	TICKS_90_RIGHT, 4
  28              	TICKS_90_RIGHT:
  29 0004 5A000000 		.word	90
  30              		.bss
  31              	s_state:
  32 0000 00       		.space	1
  33              	s_turn_side:
  34 0001 00       		.space	1
  35 0002 0000     		.align	2
  36              	s_target_ticks:
  37 0004 00000000 		.space	4
  38              		.align	2
  39              	s_acc_ticks:
  40 0008 00000000 		.space	4
  41              		.align	1
  42              	s_safety_count:
  43 000c 0000     		.space	2
  44              		.section	.text.enc_resume_background,"ax",%progbits
  45              		.align	2
  46              		.thumb
  47              		.thumb_func
  48              		.type	enc_resume_background, %function
  49              	enc_resume_background:
  50              	.LFB63:
  51              		.file 1 "directions.c"
   1:directions.c  **** #include <project.h>
   2:directions.c  **** #include <stdint.h>
   3:directions.c  **** #include <stdbool.h>
   4:directions.c  **** 
   5:directions.c  **** #include "directions.h"
   6:directions.c  **** #include "motor_s.h"     // set_motors_symmetric(), set_motors_with_trim_and_steer(), motor_enable
ARM GAS  C:\Users\ylee818\AppData\Local\Temp\cc7o0S2R.s 			page 2


   7:directions.c  **** #include "defines.h"     // your project-wide defines
   8:directions.c  **** 
   9:directions.c  **** /* ===================== Tunables ===================== */
  10:directions.c  **** /* Encoder counts for ~90° pivots (tune on your tape) */
  11:directions.c  **** static volatile int32_t TICKS_90_LEFT  = 90;   /* abs(|ΔL|)+abs(|ΔR|) */
  12:directions.c  **** static volatile int32_t TICKS_90_RIGHT = 90;
  13:directions.c  **** 
  14:directions.c  **** /* Pivot speed (%) — keep modest to avoid overshoot */
  15:directions.c  **** // Side-specific pivot speeds (percent duty)
  16:directions.c  **** #define PIVOT_SPEED_L           25   // left turn speed
  17:directions.c  **** #define PIVOT_SPEED_R           28   // right turn speed
  18:directions.c  **** #define STOP_BEFORE_MSL        110
  19:directions.c  **** #define STOP_BEFORE_MSR        100
  20:directions.c  **** #define BRAKE_AFTER_MS        1000
  21:directions.c  **** 
  22:directions.c  **** /* Safety: max number of handler calls allowed while turning.
  23:directions.c  ****  * With your ~8 ms loop this is ~3.2 s (400 * 8 ms) which is plenty. */
  24:directions.c  **** #define MAX_TURN_HANDLER_TICKS  30
  25:directions.c  **** 
  26:directions.c  **** /* ===================== Internal state ===================== */
  27:directions.c  **** typedef enum {
  28:directions.c  ****     DIR_IDLE = 0,
  29:directions.c  ****     DIR_PREP,
  30:directions.c  ****     DIR_TURNING,
  31:directions.c  ****     DIR_FINISH
  32:directions.c  **** } dir_state_t;
  33:directions.c  **** 
  34:directions.c  **** static dir_state_t s_state = DIR_IDLE;
  35:directions.c  **** static uint8_t     s_turn_side = 0;        /* 1 = left, 2 = right */
  36:directions.c  **** static int32_t     s_target_ticks = 0;     /* goal = ~90° */
  37:directions.c  **** static int32_t     s_acc_ticks    = 0;     /* running sum of |ΔL|+|ΔR| */
  38:directions.c  **** static uint16_t    s_safety_count = 0;
  39:directions.c  **** 
  40:directions.c  **** /* ---------------- Encoder helpers ----------------
  41:directions.c  ****  * We pause your background 5 ms encoder task while we own the counters,
  42:directions.c  ****  * so our deltas don't get zeroed behind our back.
  43:directions.c  ****  */
  44:directions.c  **** /*static inline void enc_pause_background(void)
  45:directions.c  **** {
  46:directions.c  **** #if defined(Timer_QD_Stop)
  47:directions.c  ****     Timer_QD_Stop();
  48:directions.c  **** #endif
  49:directions.c  **** #if defined(isr_qd_Disable)
  50:directions.c  ****     isr_qd_Disable();
  51:directions.c  **** #endif
  52:directions.c  **** } */
  53:directions.c  **** 
  54:directions.c  **** static inline void enc_resume_background(void)
  55:directions.c  **** {
  52              		.loc 1 55 0
  53              		.cfi_startproc
  54              		@ args = 0, pretend = 0, frame = 0
  55              		@ frame_needed = 1, uses_anonymous_args = 0
  56              		@ link register save eliminated.
  57 0000 80B4     		push	{r7}
  58              		.cfi_def_cfa_offset 4
  59              		.cfi_offset 7, -4
ARM GAS  C:\Users\ylee818\AppData\Local\Temp\cc7o0S2R.s 			page 3


  60 0002 00AF     		add	r7, sp, #0
  61              		.cfi_def_cfa_register 7
  56:directions.c  **** #if defined(isr_qd_Enable)
  57:directions.c  ****     isr_qd_Enable();
  58:directions.c  **** #endif
  59:directions.c  **** #if defined(Timer_QD_Start)
  60:directions.c  ****     Timer_QD_Start();
  61:directions.c  **** #endif
  62:directions.c  **** }
  62              		.loc 1 62 0
  63 0004 00BF     		nop
  64 0006 BD46     		mov	sp, r7
  65              		.cfi_def_cfa_register 13
  66              		@ sp needed
  67 0008 80BC     		pop	{r7}
  68              		.cfi_restore 7
  69              		.cfi_def_cfa_offset 0
  70 000a 7047     		bx	lr
  71              		.cfi_endproc
  72              	.LFE63:
  73              		.size	enc_resume_background, .-enc_resume_background
  74              		.section	.text.enc_reset_local,"ax",%progbits
  75              		.align	2
  76              		.thumb
  77              		.thumb_func
  78              		.type	enc_reset_local, %function
  79              	enc_reset_local:
  80              	.LFB64:
  63:directions.c  **** 
  64:directions.c  **** static inline void enc_reset_local(void)
  65:directions.c  **** {
  81              		.loc 1 65 0
  82              		.cfi_startproc
  83              		@ args = 0, pretend = 0, frame = 0
  84              		@ frame_needed = 1, uses_anonymous_args = 0
  85              		@ link register save eliminated.
  86 0000 80B4     		push	{r7}
  87              		.cfi_def_cfa_offset 4
  88              		.cfi_offset 7, -4
  89 0002 00AF     		add	r7, sp, #0
  90              		.cfi_def_cfa_register 7
  66:directions.c  **** #if defined(QuadDec_M1_SetCounter) && defined(QuadDec_M2_SetCounter)
  67:directions.c  ****     QuadDec_M1_SetCounter(0);
  68:directions.c  ****     QuadDec_M2_SetCounter(0);
  69:directions.c  **** #endif
  70:directions.c  ****     s_acc_ticks = 0;
  91              		.loc 1 70 0
  92 0004 034B     		ldr	r3, .L3
  93 0006 0022     		movs	r2, #0
  94 0008 1A60     		str	r2, [r3]
  71:directions.c  **** }
  95              		.loc 1 71 0
  96 000a 00BF     		nop
  97 000c BD46     		mov	sp, r7
  98              		.cfi_def_cfa_register 13
  99              		@ sp needed
 100 000e 80BC     		pop	{r7}
ARM GAS  C:\Users\ylee818\AppData\Local\Temp\cc7o0S2R.s 			page 4


 101              		.cfi_restore 7
 102              		.cfi_def_cfa_offset 0
 103 0010 7047     		bx	lr
 104              	.L4:
 105 0012 00BF     		.align	2
 106              	.L3:
 107 0014 08000000 		.word	s_acc_ticks
 108              		.cfi_endproc
 109              	.LFE64:
 110              		.size	enc_reset_local, .-enc_reset_local
 111              		.section	.text.enc_accumulate_now,"ax",%progbits
 112              		.align	2
 113              		.thumb
 114              		.thumb_func
 115              		.type	enc_accumulate_now, %function
 116              	enc_accumulate_now:
 117              	.LFB65:
  72:directions.c  **** 
  73:directions.c  **** /* Accumulate |ΔL| + |ΔR| since last call, then zero counters */
  74:directions.c  **** static inline void enc_accumulate_now(void)
  75:directions.c  **** {
 118              		.loc 1 75 0
 119              		.cfi_startproc
 120              		@ args = 0, pretend = 0, frame = 8
 121              		@ frame_needed = 1, uses_anonymous_args = 0
 122              		@ link register save eliminated.
 123 0000 80B4     		push	{r7}
 124              		.cfi_def_cfa_offset 4
 125              		.cfi_offset 7, -4
 126 0002 83B0     		sub	sp, sp, #12
 127              		.cfi_def_cfa_offset 16
 128 0004 00AF     		add	r7, sp, #0
 129              		.cfi_def_cfa_register 7
  76:directions.c  ****     int32_t dL = 0, dR = 0;
 130              		.loc 1 76 0
 131 0006 0023     		movs	r3, #0
 132 0008 7B60     		str	r3, [r7, #4]
 133 000a 0023     		movs	r3, #0
 134 000c 3B60     		str	r3, [r7]
  77:directions.c  **** #if defined(QuadDec_M1_GetCounter) && defined(QuadDec_M2_GetCounter)
  78:directions.c  ****     dL = QuadDec_M1_GetCounter();
  79:directions.c  ****     dR = QuadDec_M2_GetCounter();
  80:directions.c  ****     QuadDec_M1_SetCounter(0);
  81:directions.c  ****     QuadDec_M2_SetCounter(0);
  82:directions.c  **** #endif
  83:directions.c  ****     if (dL < 0) dL = -dL;
 135              		.loc 1 83 0
 136 000e 7B68     		ldr	r3, [r7, #4]
 137 0010 002B     		cmp	r3, #0
 138 0012 02DA     		bge	.L6
 139              		.loc 1 83 0 is_stmt 0 discriminator 1
 140 0014 7B68     		ldr	r3, [r7, #4]
 141 0016 5B42     		negs	r3, r3
 142 0018 7B60     		str	r3, [r7, #4]
 143              	.L6:
  84:directions.c  ****     if (dR < 0) dR = -dR;
 144              		.loc 1 84 0 is_stmt 1
ARM GAS  C:\Users\ylee818\AppData\Local\Temp\cc7o0S2R.s 			page 5


 145 001a 3B68     		ldr	r3, [r7]
 146 001c 002B     		cmp	r3, #0
 147 001e 02DA     		bge	.L7
 148              		.loc 1 84 0 is_stmt 0 discriminator 1
 149 0020 3B68     		ldr	r3, [r7]
 150 0022 5B42     		negs	r3, r3
 151 0024 3B60     		str	r3, [r7]
 152              	.L7:
  85:directions.c  ****     s_acc_ticks += (dL + dR);
 153              		.loc 1 85 0 is_stmt 1
 154 0026 7A68     		ldr	r2, [r7, #4]
 155 0028 3B68     		ldr	r3, [r7]
 156 002a 1A44     		add	r2, r2, r3
 157 002c 044B     		ldr	r3, .L8
 158 002e 1B68     		ldr	r3, [r3]
 159 0030 1344     		add	r3, r3, r2
 160 0032 034A     		ldr	r2, .L8
 161 0034 1360     		str	r3, [r2]
  86:directions.c  **** }
 162              		.loc 1 86 0
 163 0036 00BF     		nop
 164 0038 0C37     		adds	r7, r7, #12
 165              		.cfi_def_cfa_offset 4
 166 003a BD46     		mov	sp, r7
 167              		.cfi_def_cfa_register 13
 168              		@ sp needed
 169 003c 80BC     		pop	{r7}
 170              		.cfi_restore 7
 171              		.cfi_def_cfa_offset 0
 172 003e 7047     		bx	lr
 173              	.L9:
 174              		.align	2
 175              	.L8:
 176 0040 08000000 		.word	s_acc_ticks
 177              		.cfi_endproc
 178              	.LFE65:
 179              		.size	enc_accumulate_now, .-enc_accumulate_now
 180              		.section	.text.pivot_left_speed,"ax",%progbits
 181              		.align	2
 182              		.thumb
 183              		.thumb_func
 184              		.type	pivot_left_speed, %function
 185              	pivot_left_speed:
 186              	.LFB66:
  87:directions.c  **** 
  88:directions.c  **** /* ---------------- Motor helpers (spin-in-place) ----------------
  89:directions.c  ****  * If your hardware can’t reverse, change these to skid turns:
  90:directions.c  ****  *  - left:  left=0,  right=+PIVOT_SPEED_PC
  91:directions.c  ****  *  - right: left=+PIVOT_SPEED_PC, right=0
  92:directions.c  ****  */
  93:directions.c  **** static void pivot_left_speed(void)
  94:directions.c  **** {
 187              		.loc 1 94 0
 188              		.cfi_startproc
 189              		@ args = 0, pretend = 0, frame = 24
 190              		@ frame_needed = 1, uses_anonymous_args = 0
 191 0000 80B5     		push	{r7, lr}
ARM GAS  C:\Users\ylee818\AppData\Local\Temp\cc7o0S2R.s 			page 6


 192              		.cfi_def_cfa_offset 8
 193              		.cfi_offset 7, -8
 194              		.cfi_offset 14, -4
 195 0002 86B0     		sub	sp, sp, #24
 196              		.cfi_def_cfa_offset 32
 197 0004 00AF     		add	r7, sp, #0
 198              		.cfi_def_cfa_register 7
  95:directions.c  ****     const int pct = PIVOT_SPEED_L;
 199              		.loc 1 95 0
 200 0006 1923     		movs	r3, #25
 201 0008 7B61     		str	r3, [r7, #20]
  96:directions.c  ****     int L = -pct;   // reverse
 202              		.loc 1 96 0
 203 000a 7B69     		ldr	r3, [r7, #20]
 204 000c 5B42     		negs	r3, r3
 205 000e 3B61     		str	r3, [r7, #16]
  97:directions.c  ****     int R = +pct;   // forward
 206              		.loc 1 97 0
 207 0010 7B69     		ldr	r3, [r7, #20]
 208 0012 FB60     		str	r3, [r7, #12]
  98:directions.c  ****     int base  = (L + R) / 2;
 209              		.loc 1 98 0
 210 0014 3A69     		ldr	r2, [r7, #16]
 211 0016 FB68     		ldr	r3, [r7, #12]
 212 0018 1344     		add	r3, r3, r2
 213 001a DA0F     		lsrs	r2, r3, #31
 214 001c 1344     		add	r3, r3, r2
 215 001e 5B10     		asrs	r3, r3, #1
 216 0020 BB60     		str	r3, [r7, #8]
  99:directions.c  ****     int steer = (R - L) / 2;
 217              		.loc 1 99 0
 218 0022 FA68     		ldr	r2, [r7, #12]
 219 0024 3B69     		ldr	r3, [r7, #16]
 220 0026 D31A     		subs	r3, r2, r3
 221 0028 DA0F     		lsrs	r2, r3, #31
 222 002a 1344     		add	r3, r3, r2
 223 002c 5B10     		asrs	r3, r3, #1
 224 002e 7B60     		str	r3, [r7, #4]
 100:directions.c  ****     set_motors_with_trim_and_steer(base, steer);
 225              		.loc 1 100 0
 226 0030 7968     		ldr	r1, [r7, #4]
 227 0032 B868     		ldr	r0, [r7, #8]
 228 0034 FFF7FEFF 		bl	set_motors_with_trim_and_steer
 101:directions.c  **** }
 229              		.loc 1 101 0
 230 0038 00BF     		nop
 231 003a 1837     		adds	r7, r7, #24
 232              		.cfi_def_cfa_offset 8
 233 003c BD46     		mov	sp, r7
 234              		.cfi_def_cfa_register 13
 235              		@ sp needed
 236 003e 80BD     		pop	{r7, pc}
 237              		.cfi_endproc
 238              	.LFE66:
 239              		.size	pivot_left_speed, .-pivot_left_speed
 240              		.section	.text.pivot_right_speed,"ax",%progbits
 241              		.align	2
ARM GAS  C:\Users\ylee818\AppData\Local\Temp\cc7o0S2R.s 			page 7


 242              		.thumb
 243              		.thumb_func
 244              		.type	pivot_right_speed, %function
 245              	pivot_right_speed:
 246              	.LFB67:
 102:directions.c  **** 
 103:directions.c  **** static void pivot_right_speed(void)
 104:directions.c  **** {
 247              		.loc 1 104 0
 248              		.cfi_startproc
 249              		@ args = 0, pretend = 0, frame = 24
 250              		@ frame_needed = 1, uses_anonymous_args = 0
 251 0000 80B5     		push	{r7, lr}
 252              		.cfi_def_cfa_offset 8
 253              		.cfi_offset 7, -8
 254              		.cfi_offset 14, -4
 255 0002 86B0     		sub	sp, sp, #24
 256              		.cfi_def_cfa_offset 32
 257 0004 00AF     		add	r7, sp, #0
 258              		.cfi_def_cfa_register 7
 105:directions.c  ****     const int pct = PIVOT_SPEED_R;
 259              		.loc 1 105 0
 260 0006 1C23     		movs	r3, #28
 261 0008 7B61     		str	r3, [r7, #20]
 106:directions.c  ****     int L = +pct;
 262              		.loc 1 106 0
 263 000a 7B69     		ldr	r3, [r7, #20]
 264 000c 3B61     		str	r3, [r7, #16]
 107:directions.c  ****     int R = -pct;
 265              		.loc 1 107 0
 266 000e 7B69     		ldr	r3, [r7, #20]
 267 0010 5B42     		negs	r3, r3
 268 0012 FB60     		str	r3, [r7, #12]
 108:directions.c  ****     int base  = (L + R) / 2;
 269              		.loc 1 108 0
 270 0014 3A69     		ldr	r2, [r7, #16]
 271 0016 FB68     		ldr	r3, [r7, #12]
 272 0018 1344     		add	r3, r3, r2
 273 001a DA0F     		lsrs	r2, r3, #31
 274 001c 1344     		add	r3, r3, r2
 275 001e 5B10     		asrs	r3, r3, #1
 276 0020 BB60     		str	r3, [r7, #8]
 109:directions.c  ****     int steer = (R - L) / 2;
 277              		.loc 1 109 0
 278 0022 FA68     		ldr	r2, [r7, #12]
 279 0024 3B69     		ldr	r3, [r7, #16]
 280 0026 D31A     		subs	r3, r2, r3
 281 0028 DA0F     		lsrs	r2, r3, #31
 282 002a 1344     		add	r3, r3, r2
 283 002c 5B10     		asrs	r3, r3, #1
 284 002e 7B60     		str	r3, [r7, #4]
 110:directions.c  ****     set_motors_with_trim_and_steer(base, steer);
 285              		.loc 1 110 0
 286 0030 7968     		ldr	r1, [r7, #4]
 287 0032 B868     		ldr	r0, [r7, #8]
 288 0034 FFF7FEFF 		bl	set_motors_with_trim_and_steer
 111:directions.c  **** }
ARM GAS  C:\Users\ylee818\AppData\Local\Temp\cc7o0S2R.s 			page 8


 289              		.loc 1 111 0
 290 0038 00BF     		nop
 291 003a 1837     		adds	r7, r7, #24
 292              		.cfi_def_cfa_offset 8
 293 003c BD46     		mov	sp, r7
 294              		.cfi_def_cfa_register 13
 295              		@ sp needed
 296 003e 80BD     		pop	{r7, pc}
 297              		.cfi_endproc
 298              	.LFE67:
 299              		.size	pivot_right_speed, .-pivot_right_speed
 300              		.section	.text.finish_and_release,"ax",%progbits
 301              		.align	2
 302              		.thumb
 303              		.thumb_func
 304              		.type	finish_and_release, %function
 305              	finish_and_release:
 306              	.LFB68:
 112:directions.c  **** 
 113:directions.c  **** 
 114:directions.c  **** /* Ensure we always exit cleanly and release to straight */
 115:directions.c  **** static void finish_and_release(volatile uint8_t* p_dir)
 116:directions.c  **** {
 307              		.loc 1 116 0
 308              		.cfi_startproc
 309              		@ args = 0, pretend = 0, frame = 8
 310              		@ frame_needed = 1, uses_anonymous_args = 0
 311 0000 80B5     		push	{r7, lr}
 312              		.cfi_def_cfa_offset 8
 313              		.cfi_offset 7, -8
 314              		.cfi_offset 14, -4
 315 0002 82B0     		sub	sp, sp, #8
 316              		.cfi_def_cfa_offset 16
 317 0004 00AF     		add	r7, sp, #0
 318              		.cfi_def_cfa_register 7
 319 0006 7860     		str	r0, [r7, #4]
 117:directions.c  ****     /* Give counters back to the background task */
 118:directions.c  ****     enc_resume_background();
 320              		.loc 1 118 0
 321 0008 FFF7FEFF 		bl	enc_resume_background
 119:directions.c  ****     enc_reset_local();
 322              		.loc 1 119 0
 323 000c FFF7FEFF 		bl	enc_reset_local
 120:directions.c  **** 
 121:directions.c  ****     /* Release to straight and reset our state machine */
 122:directions.c  ****     if (p_dir) *p_dir = 0u;
 324              		.loc 1 122 0
 325 0010 7B68     		ldr	r3, [r7, #4]
 326 0012 002B     		cmp	r3, #0
 327 0014 02D0     		beq	.L13
 328              		.loc 1 122 0 is_stmt 0 discriminator 1
 329 0016 7B68     		ldr	r3, [r7, #4]
 330 0018 0022     		movs	r2, #0
 331 001a 1A70     		strb	r2, [r3]
 332              	.L13:
 123:directions.c  ****     s_state = DIR_IDLE;
 333              		.loc 1 123 0 is_stmt 1
ARM GAS  C:\Users\ylee818\AppData\Local\Temp\cc7o0S2R.s 			page 9


 334 001c 134B     		ldr	r3, .L14
 335 001e 0022     		movs	r2, #0
 336 0020 1A70     		strb	r2, [r3]
 124:directions.c  ****     s_turn_side = 0u;
 337              		.loc 1 124 0
 338 0022 134B     		ldr	r3, .L14+4
 339 0024 0022     		movs	r2, #0
 340 0026 1A70     		strb	r2, [r3]
 125:directions.c  ****     s_target_ticks = 0;
 341              		.loc 1 125 0
 342 0028 124B     		ldr	r3, .L14+8
 343 002a 0022     		movs	r2, #0
 344 002c 1A60     		str	r2, [r3]
 126:directions.c  ****     s_acc_ticks = 0;
 345              		.loc 1 126 0
 346 002e 124B     		ldr	r3, .L14+12
 347 0030 0022     		movs	r2, #0
 348 0032 1A60     		str	r2, [r3]
 127:directions.c  ****     s_safety_count = 0;
 349              		.loc 1 127 0
 350 0034 114B     		ldr	r3, .L14+16
 351 0036 0022     		movs	r2, #0
 352 0038 1A80     		strh	r2, [r3]	@ movhi
 128:directions.c  ****     
 129:directions.c  ****     /* Stop motion and brief brake/coast window */
 130:directions.c  ****     set_motors_symmetric(0); 
 353              		.loc 1 130 0
 354 003a 0020     		movs	r0, #0
 355 003c FFF7FEFF 		bl	set_motors_symmetric
 131:directions.c  ****     CyDelay(BRAKE_AFTER_MS);
 356              		.loc 1 131 0
 357 0040 4FF47A70 		mov	r0, #1000
 358 0044 FFF7FEFF 		bl	CyDelay
 132:directions.c  ****     set_motors_symmetric(0);
 359              		.loc 1 132 0
 360 0048 0020     		movs	r0, #0
 361 004a FFF7FEFF 		bl	set_motors_symmetric
 133:directions.c  **** 
 134:directions.c  ****     set_motors_with_trim_and_steer(100,-10);
 362              		.loc 1 134 0
 363 004e 6FF00901 		mvn	r1, #9
 364 0052 6420     		movs	r0, #100
 365 0054 FFF7FEFF 		bl	set_motors_with_trim_and_steer
 135:directions.c  ****     CyDelay(40);
 366              		.loc 1 135 0
 367 0058 2820     		movs	r0, #40
 368 005a FFF7FEFF 		bl	CyDelay
 136:directions.c  ****     set_motors_symmetric(0); 
 369              		.loc 1 136 0
 370 005e 0020     		movs	r0, #0
 371 0060 FFF7FEFF 		bl	set_motors_symmetric
 137:directions.c  **** }
 372              		.loc 1 137 0
 373 0064 00BF     		nop
 374 0066 0837     		adds	r7, r7, #8
 375              		.cfi_def_cfa_offset 8
 376 0068 BD46     		mov	sp, r7
ARM GAS  C:\Users\ylee818\AppData\Local\Temp\cc7o0S2R.s 			page 10


 377              		.cfi_def_cfa_register 13
 378              		@ sp needed
 379 006a 80BD     		pop	{r7, pc}
 380              	.L15:
 381              		.align	2
 382              	.L14:
 383 006c 00000000 		.word	s_state
 384 0070 01000000 		.word	s_turn_side
 385 0074 04000000 		.word	s_target_ticks
 386 0078 08000000 		.word	s_acc_ticks
 387 007c 0C000000 		.word	s_safety_count
 388              		.cfi_endproc
 389              	.LFE68:
 390              		.size	finish_and_release, .-finish_and_release
 391              		.section	.text.Directions_Init,"ax",%progbits
 392              		.align	2
 393              		.global	Directions_Init
 394              		.thumb
 395              		.thumb_func
 396              		.type	Directions_Init, %function
 397              	Directions_Init:
 398              	.LFB69:
 138:directions.c  **** 
 139:directions.c  **** /* ======================= Public API ======================= */
 140:directions.c  **** 
 141:directions.c  **** void Directions_Init(void)
 142:directions.c  **** {
 399              		.loc 1 142 0
 400              		.cfi_startproc
 401              		@ args = 0, pretend = 0, frame = 0
 402              		@ frame_needed = 1, uses_anonymous_args = 0
 403              		@ link register save eliminated.
 404 0000 80B4     		push	{r7}
 405              		.cfi_def_cfa_offset 4
 406              		.cfi_offset 7, -4
 407 0002 00AF     		add	r7, sp, #0
 408              		.cfi_def_cfa_register 7
 143:directions.c  ****     s_state = DIR_IDLE;
 409              		.loc 1 143 0
 410 0004 094B     		ldr	r3, .L17
 411 0006 0022     		movs	r2, #0
 412 0008 1A70     		strb	r2, [r3]
 144:directions.c  ****     s_turn_side = 0u;
 413              		.loc 1 144 0
 414 000a 094B     		ldr	r3, .L17+4
 415 000c 0022     		movs	r2, #0
 416 000e 1A70     		strb	r2, [r3]
 145:directions.c  ****     s_target_ticks = 0;
 417              		.loc 1 145 0
 418 0010 084B     		ldr	r3, .L17+8
 419 0012 0022     		movs	r2, #0
 420 0014 1A60     		str	r2, [r3]
 146:directions.c  ****     s_acc_ticks = 0;
 421              		.loc 1 146 0
 422 0016 084B     		ldr	r3, .L17+12
 423 0018 0022     		movs	r2, #0
 424 001a 1A60     		str	r2, [r3]
ARM GAS  C:\Users\ylee818\AppData\Local\Temp\cc7o0S2R.s 			page 11


 147:directions.c  ****     s_safety_count = 0;
 425              		.loc 1 147 0
 426 001c 074B     		ldr	r3, .L17+16
 427 001e 0022     		movs	r2, #0
 428 0020 1A80     		strh	r2, [r3]	@ movhi
 148:directions.c  **** }
 429              		.loc 1 148 0
 430 0022 00BF     		nop
 431 0024 BD46     		mov	sp, r7
 432              		.cfi_def_cfa_register 13
 433              		@ sp needed
 434 0026 80BC     		pop	{r7}
 435              		.cfi_restore 7
 436              		.cfi_def_cfa_offset 0
 437 0028 7047     		bx	lr
 438              	.L18:
 439 002a 00BF     		.align	2
 440              	.L17:
 441 002c 00000000 		.word	s_state
 442 0030 01000000 		.word	s_turn_side
 443 0034 04000000 		.word	s_target_ticks
 444 0038 08000000 		.word	s_acc_ticks
 445 003c 0C000000 		.word	s_safety_count
 446              		.cfi_endproc
 447              	.LFE69:
 448              		.size	Directions_Init, .-Directions_Init
 449              		.section	.text.Directions_Handle,"ax",%progbits
 450              		.align	2
 451              		.global	Directions_Handle
 452              		.thumb
 453              		.thumb_func
 454              		.type	Directions_Handle, %function
 455              	Directions_Handle:
 456              	.LFB70:
 149:directions.c  **** 
 150:directions.c  **** void Directions_Handle(volatile uint8_t* p_dir)
 151:directions.c  **** {
 457              		.loc 1 151 0
 458              		.cfi_startproc
 459              		@ args = 0, pretend = 0, frame = 16
 460              		@ frame_needed = 1, uses_anonymous_args = 0
 461 0000 80B5     		push	{r7, lr}
 462              		.cfi_def_cfa_offset 8
 463              		.cfi_offset 7, -8
 464              		.cfi_offset 14, -4
 465 0002 84B0     		sub	sp, sp, #16
 466              		.cfi_def_cfa_offset 24
 467 0004 00AF     		add	r7, sp, #0
 468              		.cfi_def_cfa_register 7
 469 0006 7860     		str	r0, [r7, #4]
 152:directions.c  ****     const uint8_t req = (p_dir ? *p_dir : 0u);
 470              		.loc 1 152 0
 471 0008 7B68     		ldr	r3, [r7, #4]
 472 000a 002B     		cmp	r3, #0
 473 000c 03D0     		beq	.L20
 474              		.loc 1 152 0 is_stmt 0 discriminator 1
 475 000e 7B68     		ldr	r3, [r7, #4]
ARM GAS  C:\Users\ylee818\AppData\Local\Temp\cc7o0S2R.s 			page 12


 476 0010 1B78     		ldrb	r3, [r3]
 477 0012 DBB2     		uxtb	r3, r3
 478 0014 00E0     		b	.L21
 479              	.L20:
 480              		.loc 1 152 0 discriminator 2
 481 0016 0023     		movs	r3, #0
 482              	.L21:
 483              		.loc 1 152 0 discriminator 4
 484 0018 FB73     		strb	r3, [r7, #15]
 153:directions.c  **** 
 154:directions.c  ****     switch (s_state)
 485              		.loc 1 154 0 is_stmt 1 discriminator 4
 486 001a 434B     		ldr	r3, .L40
 487 001c 1B78     		ldrb	r3, [r3]	@ zero_extendqisi2
 488 001e 022B     		cmp	r3, #2
 489 0020 4FD0     		beq	.L23
 490 0022 032B     		cmp	r3, #3
 491 0024 70D0     		beq	.L24
 492 0026 002B     		cmp	r3, #0
 493 0028 72D1     		bne	.L37
 155:directions.c  ****     {
 156:directions.c  ****     case DIR_IDLE:
 157:directions.c  ****         if (req == 1u) {
 494              		.loc 1 157 0
 495 002a FB7B     		ldrb	r3, [r7, #15]	@ zero_extendqisi2
 496 002c 012B     		cmp	r3, #1
 497 002e 22D1     		bne	.L26
 158:directions.c  ****             /* Stop, settle, pause encoders, zero counters */
 159:directions.c  ****             set_motors_symmetric(0);
 498              		.loc 1 159 0
 499 0030 0020     		movs	r0, #0
 500 0032 FFF7FEFF 		bl	set_motors_symmetric
 160:directions.c  ****             motor_enable(0u, 0u);
 501              		.loc 1 160 0
 502 0036 0021     		movs	r1, #0
 503 0038 0020     		movs	r0, #0
 504 003a FFF7FEFF 		bl	motor_enable
 161:directions.c  ****             CyDelay(STOP_BEFORE_MSL);
 505              		.loc 1 161 0
 506 003e 6E20     		movs	r0, #110
 507 0040 FFF7FEFF 		bl	CyDelay
 162:directions.c  **** 
 163:directions.c  ****             //enc_pause_background();
 164:directions.c  ****             enc_reset_local();
 508              		.loc 1 164 0
 509 0044 FFF7FEFF 		bl	enc_reset_local
 165:directions.c  **** 
 166:directions.c  ****             s_turn_side = req; /* latch side */
 510              		.loc 1 166 0
 511 0048 384A     		ldr	r2, .L40+4
 512 004a FB7B     		ldrb	r3, [r7, #15]
 513 004c 1370     		strb	r3, [r2]
 167:directions.c  ****             s_target_ticks = (req == 1u) ? TICKS_90_LEFT : TICKS_90_RIGHT;
 514              		.loc 1 167 0
 515 004e FB7B     		ldrb	r3, [r7, #15]	@ zero_extendqisi2
 516 0050 012B     		cmp	r3, #1
 517 0052 02D1     		bne	.L27
ARM GAS  C:\Users\ylee818\AppData\Local\Temp\cc7o0S2R.s 			page 13


 518              		.loc 1 167 0 is_stmt 0 discriminator 1
 519 0054 364B     		ldr	r3, .L40+8
 520 0056 1B68     		ldr	r3, [r3]
 521 0058 01E0     		b	.L28
 522              	.L27:
 523              		.loc 1 167 0 discriminator 2
 524 005a 364B     		ldr	r3, .L40+12
 525 005c 1B68     		ldr	r3, [r3]
 526              	.L28:
 527              		.loc 1 167 0 discriminator 4
 528 005e 364A     		ldr	r2, .L40+16
 529 0060 1360     		str	r3, [r2]
 168:directions.c  ****             s_acc_ticks = 0;
 530              		.loc 1 168 0 is_stmt 1 discriminator 4
 531 0062 364B     		ldr	r3, .L40+20
 532 0064 0022     		movs	r2, #0
 533 0066 1A60     		str	r2, [r3]
 169:directions.c  ****             s_safety_count = 0;
 534              		.loc 1 169 0 discriminator 4
 535 0068 354B     		ldr	r3, .L40+24
 536 006a 0022     		movs	r2, #0
 537 006c 1A80     		strh	r2, [r3]	@ movhi
 170:directions.c  ****             s_state = DIR_TURNING;
 538              		.loc 1 170 0 discriminator 4
 539 006e 2E4B     		ldr	r3, .L40
 540 0070 0222     		movs	r2, #2
 541 0072 1A70     		strb	r2, [r3]
 171:directions.c  ****         } else if (req == 2u) {
 172:directions.c  ****             /* Stop, settle, pause encoders, zero counters */
 173:directions.c  ****             set_motors_symmetric(0);
 174:directions.c  ****             motor_enable(0u, 0u);
 175:directions.c  ****             CyDelay(STOP_BEFORE_MSR);
 176:directions.c  **** 
 177:directions.c  ****             //enc_pause_background();
 178:directions.c  ****             enc_reset_local();
 179:directions.c  **** 
 180:directions.c  ****             s_turn_side = req; /* latch side */
 181:directions.c  ****             s_target_ticks = (req == 1u) ? TICKS_90_LEFT : TICKS_90_RIGHT;
 182:directions.c  ****             s_acc_ticks = 0;
 183:directions.c  ****             s_safety_count = 0;
 184:directions.c  ****             s_state = DIR_TURNING;
 185:directions.c  ****         }
 186:directions.c  ****         break;
 542              		.loc 1 186 0 discriminator 4
 543 0074 50E0     		b	.L38
 544              	.L26:
 171:directions.c  ****         } else if (req == 2u) {
 545              		.loc 1 171 0
 546 0076 FB7B     		ldrb	r3, [r7, #15]	@ zero_extendqisi2
 547 0078 022B     		cmp	r3, #2
 548 007a 4DD1     		bne	.L38
 173:directions.c  ****             motor_enable(0u, 0u);
 549              		.loc 1 173 0
 550 007c 0020     		movs	r0, #0
 551 007e FFF7FEFF 		bl	set_motors_symmetric
 174:directions.c  ****             CyDelay(STOP_BEFORE_MSR);
 552              		.loc 1 174 0
ARM GAS  C:\Users\ylee818\AppData\Local\Temp\cc7o0S2R.s 			page 14


 553 0082 0021     		movs	r1, #0
 554 0084 0020     		movs	r0, #0
 555 0086 FFF7FEFF 		bl	motor_enable
 175:directions.c  **** 
 556              		.loc 1 175 0
 557 008a 6420     		movs	r0, #100
 558 008c FFF7FEFF 		bl	CyDelay
 178:directions.c  **** 
 559              		.loc 1 178 0
 560 0090 FFF7FEFF 		bl	enc_reset_local
 180:directions.c  ****             s_target_ticks = (req == 1u) ? TICKS_90_LEFT : TICKS_90_RIGHT;
 561              		.loc 1 180 0
 562 0094 254A     		ldr	r2, .L40+4
 563 0096 FB7B     		ldrb	r3, [r7, #15]
 564 0098 1370     		strb	r3, [r2]
 181:directions.c  ****             s_acc_ticks = 0;
 565              		.loc 1 181 0
 566 009a FB7B     		ldrb	r3, [r7, #15]	@ zero_extendqisi2
 567 009c 012B     		cmp	r3, #1
 568 009e 02D1     		bne	.L30
 181:directions.c  ****             s_acc_ticks = 0;
 569              		.loc 1 181 0 is_stmt 0 discriminator 1
 570 00a0 234B     		ldr	r3, .L40+8
 571 00a2 1B68     		ldr	r3, [r3]
 572 00a4 01E0     		b	.L31
 573              	.L30:
 181:directions.c  ****             s_acc_ticks = 0;
 574              		.loc 1 181 0 discriminator 2
 575 00a6 234B     		ldr	r3, .L40+12
 576 00a8 1B68     		ldr	r3, [r3]
 577              	.L31:
 181:directions.c  ****             s_acc_ticks = 0;
 578              		.loc 1 181 0 discriminator 4
 579 00aa 234A     		ldr	r2, .L40+16
 580 00ac 1360     		str	r3, [r2]
 182:directions.c  ****             s_safety_count = 0;
 581              		.loc 1 182 0 is_stmt 1 discriminator 4
 582 00ae 234B     		ldr	r3, .L40+20
 583 00b0 0022     		movs	r2, #0
 584 00b2 1A60     		str	r2, [r3]
 183:directions.c  ****             s_state = DIR_TURNING;
 585              		.loc 1 183 0 discriminator 4
 586 00b4 224B     		ldr	r3, .L40+24
 587 00b6 0022     		movs	r2, #0
 588 00b8 1A80     		strh	r2, [r3]	@ movhi
 184:directions.c  ****         }
 589              		.loc 1 184 0 discriminator 4
 590 00ba 1B4B     		ldr	r3, .L40
 591 00bc 0222     		movs	r2, #2
 592 00be 1A70     		strb	r2, [r3]
 593              		.loc 1 186 0 discriminator 4
 594 00c0 2AE0     		b	.L38
 595              	.L23:
 187:directions.c  **** 
 188:directions.c  ****     case DIR_TURNING:
 189:directions.c  ****         /* Drive the pivot */
 190:directions.c  ****         if (s_turn_side == 1u) {
ARM GAS  C:\Users\ylee818\AppData\Local\Temp\cc7o0S2R.s 			page 15


 596              		.loc 1 190 0
 597 00c2 1A4B     		ldr	r3, .L40+4
 598 00c4 1B78     		ldrb	r3, [r3]	@ zero_extendqisi2
 599 00c6 012B     		cmp	r3, #1
 600 00c8 02D1     		bne	.L33
 191:directions.c  ****             pivot_left_speed();
 601              		.loc 1 191 0
 602 00ca FFF7FEFF 		bl	pivot_left_speed
 603 00ce 01E0     		b	.L34
 604              	.L33:
 192:directions.c  ****         } else {
 193:directions.c  ****             pivot_right_speed();
 605              		.loc 1 193 0
 606 00d0 FFF7FEFF 		bl	pivot_right_speed
 607              	.L34:
 194:directions.c  ****         }
 195:directions.c  **** 
 196:directions.c  **** 
 197:directions.c  ****         /* Progress + safety */
 198:directions.c  ****         enc_accumulate_now();
 608              		.loc 1 198 0
 609 00d4 FFF7FEFF 		bl	enc_accumulate_now
 199:directions.c  ****         if (++s_safety_count > MAX_TURN_HANDLER_TICKS) {
 610              		.loc 1 199 0
 611 00d8 194B     		ldr	r3, .L40+24
 612 00da 1B88     		ldrh	r3, [r3]
 613 00dc 0133     		adds	r3, r3, #1
 614 00de 9AB2     		uxth	r2, r3
 615 00e0 174B     		ldr	r3, .L40+24
 616 00e2 1A80     		strh	r2, [r3]	@ movhi
 617 00e4 164B     		ldr	r3, .L40+24
 618 00e6 1B88     		ldrh	r3, [r3]
 619 00e8 1E2B     		cmp	r3, #30
 620 00ea 03D9     		bls	.L35
 200:directions.c  ****             /* Fail-safe: bail out even if encoders misbehave */
 201:directions.c  ****             finish_and_release(p_dir);
 621              		.loc 1 201 0
 622 00ec 7868     		ldr	r0, [r7, #4]
 623 00ee FFF7FEFF 		bl	finish_and_release
 202:directions.c  ****             break;
 624              		.loc 1 202 0
 625 00f2 14E0     		b	.L32
 626              	.L35:
 203:directions.c  ****         }
 204:directions.c  **** 
 205:directions.c  ****         /* Done? */
 206:directions.c  ****         if (s_acc_ticks >= s_target_ticks) {
 627              		.loc 1 206 0
 628 00f4 114B     		ldr	r3, .L40+20
 629 00f6 1A68     		ldr	r2, [r3]
 630 00f8 0F4B     		ldr	r3, .L40+16
 631 00fa 1B68     		ldr	r3, [r3]
 632 00fc 9A42     		cmp	r2, r3
 633 00fe 0DDB     		blt	.L39
 207:directions.c  ****             s_state = DIR_FINISH;
 634              		.loc 1 207 0
 635 0100 094B     		ldr	r3, .L40
ARM GAS  C:\Users\ylee818\AppData\Local\Temp\cc7o0S2R.s 			page 16


 636 0102 0322     		movs	r2, #3
 637 0104 1A70     		strb	r2, [r3]
 208:directions.c  ****         }
 209:directions.c  ****         break;
 638              		.loc 1 209 0
 639 0106 09E0     		b	.L39
 640              	.L24:
 210:directions.c  **** 
 211:directions.c  ****     case DIR_FINISH:
 212:directions.c  ****         /* One last stop; then release to straight */
 213:directions.c  ****         finish_and_release(p_dir);
 641              		.loc 1 213 0
 642 0108 7868     		ldr	r0, [r7, #4]
 643 010a FFF7FEFF 		bl	finish_and_release
 214:directions.c  ****         break;
 644              		.loc 1 214 0
 645 010e 06E0     		b	.L32
 646              	.L37:
 215:directions.c  **** 
 216:directions.c  ****     default:
 217:directions.c  ****         /* Shouldn’t happen, but recover gracefully */
 218:directions.c  ****         finish_and_release(p_dir);
 647              		.loc 1 218 0
 648 0110 7868     		ldr	r0, [r7, #4]
 649 0112 FFF7FEFF 		bl	finish_and_release
 219:directions.c  ****         break;
 650              		.loc 1 219 0
 651 0116 02E0     		b	.L32
 652              	.L38:
 186:directions.c  **** 
 653              		.loc 1 186 0
 654 0118 00BF     		nop
 655 011a 00E0     		b	.L32
 656              	.L39:
 209:directions.c  **** 
 657              		.loc 1 209 0
 658 011c 00BF     		nop
 659              	.L32:
 220:directions.c  ****     }
 221:directions.c  **** }
 660              		.loc 1 221 0
 661 011e 00BF     		nop
 662 0120 1037     		adds	r7, r7, #16
 663              		.cfi_def_cfa_offset 8
 664 0122 BD46     		mov	sp, r7
 665              		.cfi_def_cfa_register 13
 666              		@ sp needed
 667 0124 80BD     		pop	{r7, pc}
 668              	.L41:
 669 0126 00BF     		.align	2
 670              	.L40:
 671 0128 00000000 		.word	s_state
 672 012c 01000000 		.word	s_turn_side
 673 0130 00000000 		.word	TICKS_90_LEFT
 674 0134 04000000 		.word	TICKS_90_RIGHT
 675 0138 04000000 		.word	s_target_ticks
 676 013c 08000000 		.word	s_acc_ticks
ARM GAS  C:\Users\ylee818\AppData\Local\Temp\cc7o0S2R.s 			page 17


 677 0140 0C000000 		.word	s_safety_count
 678              		.cfi_endproc
 679              	.LFE70:
 680              		.size	Directions_Handle, .-Directions_Handle
 681              		.text
 682              	.Letext0:
 683              		.file 2 "c:\\program files (x86)\\cypress\\psoc creator\\4.2\\psoc creator\\import\\gnu\\arm\\5.4.
 684              		.file 3 "c:\\program files (x86)\\cypress\\psoc creator\\4.2\\psoc creator\\import\\gnu\\arm\\5.4.
 685              		.file 4 "Generated_Source\\PSoC5/core_cm3.h"
 686              		.section	.debug_info,"",%progbits
 687              	.Ldebug_info0:
 688 0000 03030000 		.4byte	0x303
 689 0004 0400     		.2byte	0x4
 690 0006 00000000 		.4byte	.Ldebug_abbrev0
 691 000a 04       		.byte	0x4
 692 000b 01       		.uleb128 0x1
 693 000c 0A000000 		.4byte	.LASF41
 694 0010 0C       		.byte	0xc
 695 0011 AF010000 		.4byte	.LASF42
 696 0015 CB000000 		.4byte	.LASF43
 697 0019 00000000 		.4byte	.Ldebug_ranges0+0
 698 001d 00000000 		.4byte	0
 699 0021 00000000 		.4byte	.Ldebug_line0
 700 0025 02       		.uleb128 0x2
 701 0026 01       		.byte	0x1
 702 0027 06       		.byte	0x6
 703 0028 DE020000 		.4byte	.LASF0
 704 002c 03       		.uleb128 0x3
 705 002d 00000000 		.4byte	.LASF3
 706 0031 02       		.byte	0x2
 707 0032 1D       		.byte	0x1d
 708 0033 37000000 		.4byte	0x37
 709 0037 02       		.uleb128 0x2
 710 0038 01       		.byte	0x1
 711 0039 08       		.byte	0x8
 712 003a 57010000 		.4byte	.LASF1
 713 003e 02       		.uleb128 0x2
 714 003f 02       		.byte	0x2
 715 0040 05       		.byte	0x5
 716 0041 A0020000 		.4byte	.LASF2
 717 0045 03       		.uleb128 0x3
 718 0046 CE010000 		.4byte	.LASF4
 719 004a 02       		.byte	0x2
 720 004b 2B       		.byte	0x2b
 721 004c 50000000 		.4byte	0x50
 722 0050 02       		.uleb128 0x2
 723 0051 02       		.byte	0x2
 724 0052 07       		.byte	0x7
 725 0053 81010000 		.4byte	.LASF5
 726 0057 03       		.uleb128 0x3
 727 0058 A7000000 		.4byte	.LASF6
 728 005c 02       		.byte	0x2
 729 005d 3F       		.byte	0x3f
 730 005e 62000000 		.4byte	0x62
 731 0062 02       		.uleb128 0x2
 732 0063 04       		.byte	0x4
 733 0064 05       		.byte	0x5
ARM GAS  C:\Users\ylee818\AppData\Local\Temp\cc7o0S2R.s 			page 18


 734 0065 B3020000 		.4byte	.LASF7
 735 0069 02       		.uleb128 0x2
 736 006a 04       		.byte	0x4
 737 006b 07       		.byte	0x7
 738 006c D9010000 		.4byte	.LASF8
 739 0070 02       		.uleb128 0x2
 740 0071 08       		.byte	0x8
 741 0072 05       		.byte	0x5
 742 0073 7E020000 		.4byte	.LASF9
 743 0077 02       		.uleb128 0x2
 744 0078 08       		.byte	0x8
 745 0079 07       		.byte	0x7
 746 007a 27020000 		.4byte	.LASF10
 747 007e 04       		.uleb128 0x4
 748 007f 04       		.byte	0x4
 749 0080 05       		.byte	0x5
 750 0081 696E7400 		.ascii	"int\000"
 751 0085 02       		.uleb128 0x2
 752 0086 04       		.byte	0x4
 753 0087 07       		.byte	0x7
 754 0088 07020000 		.4byte	.LASF11
 755 008c 03       		.uleb128 0x3
 756 008d 3E020000 		.4byte	.LASF12
 757 0091 03       		.byte	0x3
 758 0092 18       		.byte	0x18
 759 0093 2C000000 		.4byte	0x2c
 760 0097 03       		.uleb128 0x3
 761 0098 AA020000 		.4byte	.LASF13
 762 009c 03       		.byte	0x3
 763 009d 24       		.byte	0x24
 764 009e 45000000 		.4byte	0x45
 765 00a2 03       		.uleb128 0x3
 766 00a3 24010000 		.4byte	.LASF14
 767 00a7 03       		.byte	0x3
 768 00a8 2C       		.byte	0x2c
 769 00a9 57000000 		.4byte	0x57
 770 00ad 02       		.uleb128 0x2
 771 00ae 04       		.byte	0x4
 772 00af 04       		.byte	0x4
 773 00b0 3E010000 		.4byte	.LASF15
 774 00b4 02       		.uleb128 0x2
 775 00b5 08       		.byte	0x8
 776 00b6 04       		.byte	0x4
 777 00b7 1D010000 		.4byte	.LASF16
 778 00bb 02       		.uleb128 0x2
 779 00bc 01       		.byte	0x1
 780 00bd 08       		.byte	0x8
 781 00be 9B020000 		.4byte	.LASF17
 782 00c2 02       		.uleb128 0x2
 783 00c3 08       		.byte	0x8
 784 00c4 04       		.byte	0x4
 785 00c5 69020000 		.4byte	.LASF18
 786 00c9 02       		.uleb128 0x2
 787 00ca 04       		.byte	0x4
 788 00cb 07       		.byte	0x7
 789 00cc 75020000 		.4byte	.LASF19
 790 00d0 05       		.uleb128 0x5
ARM GAS  C:\Users\ylee818\AppData\Local\Temp\cc7o0S2R.s 			page 19


 791 00d1 8C000000 		.4byte	0x8c
 792 00d5 06       		.uleb128 0x6
 793 00d6 01       		.byte	0x1
 794 00d7 37000000 		.4byte	0x37
 795 00db 01       		.byte	0x1
 796 00dc 1B       		.byte	0x1b
 797 00dd FA000000 		.4byte	0xfa
 798 00e1 07       		.uleb128 0x7
 799 00e2 EA020000 		.4byte	.LASF20
 800 00e6 00       		.byte	0
 801 00e7 07       		.uleb128 0x7
 802 00e8 60020000 		.4byte	.LASF21
 803 00ec 01       		.byte	0x1
 804 00ed 07       		.uleb128 0x7
 805 00ee BC020000 		.4byte	.LASF22
 806 00f2 02       		.byte	0x2
 807 00f3 07       		.uleb128 0x7
 808 00f4 A4010000 		.4byte	.LASF23
 809 00f8 03       		.byte	0x3
 810 00f9 00       		.byte	0
 811 00fa 03       		.uleb128 0x3
 812 00fb BF000000 		.4byte	.LASF24
 813 00ff 01       		.byte	0x1
 814 0100 20       		.byte	0x20
 815 0101 D5000000 		.4byte	0xd5
 816 0105 08       		.uleb128 0x8
 817 0106 C8020000 		.4byte	.LASF25
 818 010a 01       		.byte	0x1
 819 010b 36       		.byte	0x36
 820 010c 00000000 		.4byte	.LFB63
 821 0110 0C000000 		.4byte	.LFE63-.LFB63
 822 0114 01       		.uleb128 0x1
 823 0115 9C       		.byte	0x9c
 824 0116 08       		.uleb128 0x8
 825 0117 F3020000 		.4byte	.LASF26
 826 011b 01       		.byte	0x1
 827 011c 40       		.byte	0x40
 828 011d 00000000 		.4byte	.LFB64
 829 0121 18000000 		.4byte	.LFE64-.LFB64
 830 0125 01       		.uleb128 0x1
 831 0126 9C       		.byte	0x9c
 832 0127 09       		.uleb128 0x9
 833 0128 44010000 		.4byte	.LASF27
 834 012c 01       		.byte	0x1
 835 012d 4A       		.byte	0x4a
 836 012e 00000000 		.4byte	.LFB65
 837 0132 44000000 		.4byte	.LFE65-.LFB65
 838 0136 01       		.uleb128 0x1
 839 0137 9C       		.byte	0x9c
 840 0138 57010000 		.4byte	0x157
 841 013c 0A       		.uleb128 0xa
 842 013d 644C00   		.ascii	"dL\000"
 843 0140 01       		.byte	0x1
 844 0141 4C       		.byte	0x4c
 845 0142 A2000000 		.4byte	0xa2
 846 0146 02       		.uleb128 0x2
 847 0147 91       		.byte	0x91
ARM GAS  C:\Users\ylee818\AppData\Local\Temp\cc7o0S2R.s 			page 20


 848 0148 74       		.sleb128 -12
 849 0149 0A       		.uleb128 0xa
 850 014a 645200   		.ascii	"dR\000"
 851 014d 01       		.byte	0x1
 852 014e 4C       		.byte	0x4c
 853 014f A2000000 		.4byte	0xa2
 854 0153 02       		.uleb128 0x2
 855 0154 91       		.byte	0x91
 856 0155 70       		.sleb128 -16
 857 0156 00       		.byte	0
 858 0157 0B       		.uleb128 0xb
 859 0158 65010000 		.4byte	.LASF28
 860 015c 01       		.byte	0x1
 861 015d 5D       		.byte	0x5d
 862 015e 00000000 		.4byte	.LFB66
 863 0162 40000000 		.4byte	.LFE66-.LFB66
 864 0166 01       		.uleb128 0x1
 865 0167 9C       		.byte	0x9c
 866 0168 AF010000 		.4byte	0x1af
 867 016c 0A       		.uleb128 0xa
 868 016d 70637400 		.ascii	"pct\000"
 869 0171 01       		.byte	0x1
 870 0172 5F       		.byte	0x5f
 871 0173 AF010000 		.4byte	0x1af
 872 0177 02       		.uleb128 0x2
 873 0178 91       		.byte	0x91
 874 0179 74       		.sleb128 -12
 875 017a 0A       		.uleb128 0xa
 876 017b 4C00     		.ascii	"L\000"
 877 017d 01       		.byte	0x1
 878 017e 60       		.byte	0x60
 879 017f 7E000000 		.4byte	0x7e
 880 0183 02       		.uleb128 0x2
 881 0184 91       		.byte	0x91
 882 0185 70       		.sleb128 -16
 883 0186 0A       		.uleb128 0xa
 884 0187 5200     		.ascii	"R\000"
 885 0189 01       		.byte	0x1
 886 018a 61       		.byte	0x61
 887 018b 7E000000 		.4byte	0x7e
 888 018f 02       		.uleb128 0x2
 889 0190 91       		.byte	0x91
 890 0191 6C       		.sleb128 -20
 891 0192 0C       		.uleb128 0xc
 892 0193 7C010000 		.4byte	.LASF29
 893 0197 01       		.byte	0x1
 894 0198 62       		.byte	0x62
 895 0199 7E000000 		.4byte	0x7e
 896 019d 02       		.uleb128 0x2
 897 019e 91       		.byte	0x91
 898 019f 68       		.sleb128 -24
 899 01a0 0C       		.uleb128 0xc
 900 01a1 5A020000 		.4byte	.LASF30
 901 01a5 01       		.byte	0x1
 902 01a6 63       		.byte	0x63
 903 01a7 7E000000 		.4byte	0x7e
 904 01ab 02       		.uleb128 0x2
ARM GAS  C:\Users\ylee818\AppData\Local\Temp\cc7o0S2R.s 			page 21


 905 01ac 91       		.byte	0x91
 906 01ad 64       		.sleb128 -28
 907 01ae 00       		.byte	0
 908 01af 0D       		.uleb128 0xd
 909 01b0 7E000000 		.4byte	0x7e
 910 01b4 0B       		.uleb128 0xb
 911 01b5 BC010000 		.4byte	.LASF31
 912 01b9 01       		.byte	0x1
 913 01ba 67       		.byte	0x67
 914 01bb 00000000 		.4byte	.LFB67
 915 01bf 40000000 		.4byte	.LFE67-.LFB67
 916 01c3 01       		.uleb128 0x1
 917 01c4 9C       		.byte	0x9c
 918 01c5 0C020000 		.4byte	0x20c
 919 01c9 0A       		.uleb128 0xa
 920 01ca 70637400 		.ascii	"pct\000"
 921 01ce 01       		.byte	0x1
 922 01cf 69       		.byte	0x69
 923 01d0 AF010000 		.4byte	0x1af
 924 01d4 02       		.uleb128 0x2
 925 01d5 91       		.byte	0x91
 926 01d6 74       		.sleb128 -12
 927 01d7 0A       		.uleb128 0xa
 928 01d8 4C00     		.ascii	"L\000"
 929 01da 01       		.byte	0x1
 930 01db 6A       		.byte	0x6a
 931 01dc 7E000000 		.4byte	0x7e
 932 01e0 02       		.uleb128 0x2
 933 01e1 91       		.byte	0x91
 934 01e2 70       		.sleb128 -16
 935 01e3 0A       		.uleb128 0xa
 936 01e4 5200     		.ascii	"R\000"
 937 01e6 01       		.byte	0x1
 938 01e7 6B       		.byte	0x6b
 939 01e8 7E000000 		.4byte	0x7e
 940 01ec 02       		.uleb128 0x2
 941 01ed 91       		.byte	0x91
 942 01ee 6C       		.sleb128 -20
 943 01ef 0C       		.uleb128 0xc
 944 01f0 7C010000 		.4byte	.LASF29
 945 01f4 01       		.byte	0x1
 946 01f5 6C       		.byte	0x6c
 947 01f6 7E000000 		.4byte	0x7e
 948 01fa 02       		.uleb128 0x2
 949 01fb 91       		.byte	0x91
 950 01fc 68       		.sleb128 -24
 951 01fd 0C       		.uleb128 0xc
 952 01fe 5A020000 		.4byte	.LASF30
 953 0202 01       		.byte	0x1
 954 0203 6D       		.byte	0x6d
 955 0204 7E000000 		.4byte	0x7e
 956 0208 02       		.uleb128 0x2
 957 0209 91       		.byte	0x91
 958 020a 64       		.sleb128 -28
 959 020b 00       		.byte	0
 960 020c 0B       		.uleb128 0xb
 961 020d 14020000 		.4byte	.LASF32
ARM GAS  C:\Users\ylee818\AppData\Local\Temp\cc7o0S2R.s 			page 22


 962 0211 01       		.byte	0x1
 963 0212 73       		.byte	0x73
 964 0213 00000000 		.4byte	.LFB68
 965 0217 80000000 		.4byte	.LFE68-.LFB68
 966 021b 01       		.uleb128 0x1
 967 021c 9C       		.byte	0x9c
 968 021d 30020000 		.4byte	0x230
 969 0221 0E       		.uleb128 0xe
 970 0222 76010000 		.4byte	.LASF33
 971 0226 01       		.byte	0x1
 972 0227 73       		.byte	0x73
 973 0228 30020000 		.4byte	0x230
 974 022c 02       		.uleb128 0x2
 975 022d 91       		.byte	0x91
 976 022e 74       		.sleb128 -12
 977 022f 00       		.byte	0
 978 0230 0F       		.uleb128 0xf
 979 0231 04       		.byte	0x4
 980 0232 D0000000 		.4byte	0xd0
 981 0236 10       		.uleb128 0x10
 982 0237 94010000 		.4byte	.LASF44
 983 023b 01       		.byte	0x1
 984 023c 8D       		.byte	0x8d
 985 023d 00000000 		.4byte	.LFB69
 986 0241 40000000 		.4byte	.LFE69-.LFB69
 987 0245 01       		.uleb128 0x1
 988 0246 9C       		.byte	0x9c
 989 0247 11       		.uleb128 0x11
 990 0248 2C010000 		.4byte	.LASF45
 991 024c 01       		.byte	0x1
 992 024d 96       		.byte	0x96
 993 024e 00000000 		.4byte	.LFB70
 994 0252 44010000 		.4byte	.LFE70-.LFB70
 995 0256 01       		.uleb128 0x1
 996 0257 9C       		.byte	0x9c
 997 0258 79020000 		.4byte	0x279
 998 025c 0E       		.uleb128 0xe
 999 025d 76010000 		.4byte	.LASF33
 1000 0261 01       		.byte	0x1
 1001 0262 96       		.byte	0x96
 1002 0263 30020000 		.4byte	0x230
 1003 0267 02       		.uleb128 0x2
 1004 0268 91       		.byte	0x91
 1005 0269 6C       		.sleb128 -20
 1006 026a 0A       		.uleb128 0xa
 1007 026b 72657100 		.ascii	"req\000"
 1008 026f 01       		.byte	0x1
 1009 0270 98       		.byte	0x98
 1010 0271 79020000 		.4byte	0x279
 1011 0275 02       		.uleb128 0x2
 1012 0276 91       		.byte	0x91
 1013 0277 77       		.sleb128 -9
 1014 0278 00       		.byte	0
 1015 0279 0D       		.uleb128 0xd
 1016 027a 8C000000 		.4byte	0x8c
 1017 027e 0C       		.uleb128 0xc
 1018 027f B1000000 		.4byte	.LASF34
ARM GAS  C:\Users\ylee818\AppData\Local\Temp\cc7o0S2R.s 			page 23


 1019 0283 01       		.byte	0x1
 1020 0284 0B       		.byte	0xb
 1021 0285 8F020000 		.4byte	0x28f
 1022 0289 05       		.uleb128 0x5
 1023 028a 03       		.byte	0x3
 1024 028b 00000000 		.4byte	TICKS_90_LEFT
 1025 028f 05       		.uleb128 0x5
 1026 0290 A2000000 		.4byte	0xa2
 1027 0294 0C       		.uleb128 0xc
 1028 0295 F8010000 		.4byte	.LASF35
 1029 0299 01       		.byte	0x1
 1030 029a 0C       		.byte	0xc
 1031 029b 8F020000 		.4byte	0x28f
 1032 029f 05       		.uleb128 0x5
 1033 02a0 03       		.byte	0x3
 1034 02a1 04000000 		.4byte	TICKS_90_RIGHT
 1035 02a5 0C       		.uleb128 0xc
 1036 02a6 52020000 		.4byte	.LASF36
 1037 02aa 01       		.byte	0x1
 1038 02ab 22       		.byte	0x22
 1039 02ac FA000000 		.4byte	0xfa
 1040 02b0 05       		.uleb128 0x5
 1041 02b1 03       		.byte	0x3
 1042 02b2 00000000 		.4byte	s_state
 1043 02b6 0C       		.uleb128 0xc
 1044 02b7 03030000 		.4byte	.LASF37
 1045 02bb 01       		.byte	0x1
 1046 02bc 23       		.byte	0x23
 1047 02bd 8C000000 		.4byte	0x8c
 1048 02c1 05       		.uleb128 0x5
 1049 02c2 03       		.byte	0x3
 1050 02c3 01000000 		.4byte	s_turn_side
 1051 02c7 0C       		.uleb128 0xc
 1052 02c8 8C020000 		.4byte	.LASF38
 1053 02cc 01       		.byte	0x1
 1054 02cd 24       		.byte	0x24
 1055 02ce A2000000 		.4byte	0xa2
 1056 02d2 05       		.uleb128 0x5
 1057 02d3 03       		.byte	0x3
 1058 02d4 04000000 		.4byte	s_target_ticks
 1059 02d8 0C       		.uleb128 0xc
 1060 02d9 46020000 		.4byte	.LASF39
 1061 02dd 01       		.byte	0x1
 1062 02de 25       		.byte	0x25
 1063 02df A2000000 		.4byte	0xa2
 1064 02e3 05       		.uleb128 0x5
 1065 02e4 03       		.byte	0x3
 1066 02e5 08000000 		.4byte	s_acc_ticks
 1067 02e9 0C       		.uleb128 0xc
 1068 02ea 98000000 		.4byte	.LASF40
 1069 02ee 01       		.byte	0x1
 1070 02ef 26       		.byte	0x26
 1071 02f0 97000000 		.4byte	0x97
 1072 02f4 05       		.uleb128 0x5
 1073 02f5 03       		.byte	0x3
 1074 02f6 0C000000 		.4byte	s_safety_count
 1075 02fa 12       		.uleb128 0x12
ARM GAS  C:\Users\ylee818\AppData\Local\Temp\cc7o0S2R.s 			page 24


 1076 02fb EB010000 		.4byte	.LASF46
 1077 02ff 04       		.byte	0x4
 1078 0300 1207     		.2byte	0x712
 1079 0302 8F020000 		.4byte	0x28f
 1080 0306 00       		.byte	0
 1081              		.section	.debug_abbrev,"",%progbits
 1082              	.Ldebug_abbrev0:
 1083 0000 01       		.uleb128 0x1
 1084 0001 11       		.uleb128 0x11
 1085 0002 01       		.byte	0x1
 1086 0003 25       		.uleb128 0x25
 1087 0004 0E       		.uleb128 0xe
 1088 0005 13       		.uleb128 0x13
 1089 0006 0B       		.uleb128 0xb
 1090 0007 03       		.uleb128 0x3
 1091 0008 0E       		.uleb128 0xe
 1092 0009 1B       		.uleb128 0x1b
 1093 000a 0E       		.uleb128 0xe
 1094 000b 55       		.uleb128 0x55
 1095 000c 17       		.uleb128 0x17
 1096 000d 11       		.uleb128 0x11
 1097 000e 01       		.uleb128 0x1
 1098 000f 10       		.uleb128 0x10
 1099 0010 17       		.uleb128 0x17
 1100 0011 00       		.byte	0
 1101 0012 00       		.byte	0
 1102 0013 02       		.uleb128 0x2
 1103 0014 24       		.uleb128 0x24
 1104 0015 00       		.byte	0
 1105 0016 0B       		.uleb128 0xb
 1106 0017 0B       		.uleb128 0xb
 1107 0018 3E       		.uleb128 0x3e
 1108 0019 0B       		.uleb128 0xb
 1109 001a 03       		.uleb128 0x3
 1110 001b 0E       		.uleb128 0xe
 1111 001c 00       		.byte	0
 1112 001d 00       		.byte	0
 1113 001e 03       		.uleb128 0x3
 1114 001f 16       		.uleb128 0x16
 1115 0020 00       		.byte	0
 1116 0021 03       		.uleb128 0x3
 1117 0022 0E       		.uleb128 0xe
 1118 0023 3A       		.uleb128 0x3a
 1119 0024 0B       		.uleb128 0xb
 1120 0025 3B       		.uleb128 0x3b
 1121 0026 0B       		.uleb128 0xb
 1122 0027 49       		.uleb128 0x49
 1123 0028 13       		.uleb128 0x13
 1124 0029 00       		.byte	0
 1125 002a 00       		.byte	0
 1126 002b 04       		.uleb128 0x4
 1127 002c 24       		.uleb128 0x24
 1128 002d 00       		.byte	0
 1129 002e 0B       		.uleb128 0xb
 1130 002f 0B       		.uleb128 0xb
 1131 0030 3E       		.uleb128 0x3e
 1132 0031 0B       		.uleb128 0xb
ARM GAS  C:\Users\ylee818\AppData\Local\Temp\cc7o0S2R.s 			page 25


 1133 0032 03       		.uleb128 0x3
 1134 0033 08       		.uleb128 0x8
 1135 0034 00       		.byte	0
 1136 0035 00       		.byte	0
 1137 0036 05       		.uleb128 0x5
 1138 0037 35       		.uleb128 0x35
 1139 0038 00       		.byte	0
 1140 0039 49       		.uleb128 0x49
 1141 003a 13       		.uleb128 0x13
 1142 003b 00       		.byte	0
 1143 003c 00       		.byte	0
 1144 003d 06       		.uleb128 0x6
 1145 003e 04       		.uleb128 0x4
 1146 003f 01       		.byte	0x1
 1147 0040 0B       		.uleb128 0xb
 1148 0041 0B       		.uleb128 0xb
 1149 0042 49       		.uleb128 0x49
 1150 0043 13       		.uleb128 0x13
 1151 0044 3A       		.uleb128 0x3a
 1152 0045 0B       		.uleb128 0xb
 1153 0046 3B       		.uleb128 0x3b
 1154 0047 0B       		.uleb128 0xb
 1155 0048 01       		.uleb128 0x1
 1156 0049 13       		.uleb128 0x13
 1157 004a 00       		.byte	0
 1158 004b 00       		.byte	0
 1159 004c 07       		.uleb128 0x7
 1160 004d 28       		.uleb128 0x28
 1161 004e 00       		.byte	0
 1162 004f 03       		.uleb128 0x3
 1163 0050 0E       		.uleb128 0xe
 1164 0051 1C       		.uleb128 0x1c
 1165 0052 0B       		.uleb128 0xb
 1166 0053 00       		.byte	0
 1167 0054 00       		.byte	0
 1168 0055 08       		.uleb128 0x8
 1169 0056 2E       		.uleb128 0x2e
 1170 0057 00       		.byte	0
 1171 0058 03       		.uleb128 0x3
 1172 0059 0E       		.uleb128 0xe
 1173 005a 3A       		.uleb128 0x3a
 1174 005b 0B       		.uleb128 0xb
 1175 005c 3B       		.uleb128 0x3b
 1176 005d 0B       		.uleb128 0xb
 1177 005e 27       		.uleb128 0x27
 1178 005f 19       		.uleb128 0x19
 1179 0060 11       		.uleb128 0x11
 1180 0061 01       		.uleb128 0x1
 1181 0062 12       		.uleb128 0x12
 1182 0063 06       		.uleb128 0x6
 1183 0064 40       		.uleb128 0x40
 1184 0065 18       		.uleb128 0x18
 1185 0066 9742     		.uleb128 0x2117
 1186 0068 19       		.uleb128 0x19
 1187 0069 00       		.byte	0
 1188 006a 00       		.byte	0
 1189 006b 09       		.uleb128 0x9
ARM GAS  C:\Users\ylee818\AppData\Local\Temp\cc7o0S2R.s 			page 26


 1190 006c 2E       		.uleb128 0x2e
 1191 006d 01       		.byte	0x1
 1192 006e 03       		.uleb128 0x3
 1193 006f 0E       		.uleb128 0xe
 1194 0070 3A       		.uleb128 0x3a
 1195 0071 0B       		.uleb128 0xb
 1196 0072 3B       		.uleb128 0x3b
 1197 0073 0B       		.uleb128 0xb
 1198 0074 27       		.uleb128 0x27
 1199 0075 19       		.uleb128 0x19
 1200 0076 11       		.uleb128 0x11
 1201 0077 01       		.uleb128 0x1
 1202 0078 12       		.uleb128 0x12
 1203 0079 06       		.uleb128 0x6
 1204 007a 40       		.uleb128 0x40
 1205 007b 18       		.uleb128 0x18
 1206 007c 9742     		.uleb128 0x2117
 1207 007e 19       		.uleb128 0x19
 1208 007f 01       		.uleb128 0x1
 1209 0080 13       		.uleb128 0x13
 1210 0081 00       		.byte	0
 1211 0082 00       		.byte	0
 1212 0083 0A       		.uleb128 0xa
 1213 0084 34       		.uleb128 0x34
 1214 0085 00       		.byte	0
 1215 0086 03       		.uleb128 0x3
 1216 0087 08       		.uleb128 0x8
 1217 0088 3A       		.uleb128 0x3a
 1218 0089 0B       		.uleb128 0xb
 1219 008a 3B       		.uleb128 0x3b
 1220 008b 0B       		.uleb128 0xb
 1221 008c 49       		.uleb128 0x49
 1222 008d 13       		.uleb128 0x13
 1223 008e 02       		.uleb128 0x2
 1224 008f 18       		.uleb128 0x18
 1225 0090 00       		.byte	0
 1226 0091 00       		.byte	0
 1227 0092 0B       		.uleb128 0xb
 1228 0093 2E       		.uleb128 0x2e
 1229 0094 01       		.byte	0x1
 1230 0095 03       		.uleb128 0x3
 1231 0096 0E       		.uleb128 0xe
 1232 0097 3A       		.uleb128 0x3a
 1233 0098 0B       		.uleb128 0xb
 1234 0099 3B       		.uleb128 0x3b
 1235 009a 0B       		.uleb128 0xb
 1236 009b 27       		.uleb128 0x27
 1237 009c 19       		.uleb128 0x19
 1238 009d 11       		.uleb128 0x11
 1239 009e 01       		.uleb128 0x1
 1240 009f 12       		.uleb128 0x12
 1241 00a0 06       		.uleb128 0x6
 1242 00a1 40       		.uleb128 0x40
 1243 00a2 18       		.uleb128 0x18
 1244 00a3 9642     		.uleb128 0x2116
 1245 00a5 19       		.uleb128 0x19
 1246 00a6 01       		.uleb128 0x1
ARM GAS  C:\Users\ylee818\AppData\Local\Temp\cc7o0S2R.s 			page 27


 1247 00a7 13       		.uleb128 0x13
 1248 00a8 00       		.byte	0
 1249 00a9 00       		.byte	0
 1250 00aa 0C       		.uleb128 0xc
 1251 00ab 34       		.uleb128 0x34
 1252 00ac 00       		.byte	0
 1253 00ad 03       		.uleb128 0x3
 1254 00ae 0E       		.uleb128 0xe
 1255 00af 3A       		.uleb128 0x3a
 1256 00b0 0B       		.uleb128 0xb
 1257 00b1 3B       		.uleb128 0x3b
 1258 00b2 0B       		.uleb128 0xb
 1259 00b3 49       		.uleb128 0x49
 1260 00b4 13       		.uleb128 0x13
 1261 00b5 02       		.uleb128 0x2
 1262 00b6 18       		.uleb128 0x18
 1263 00b7 00       		.byte	0
 1264 00b8 00       		.byte	0
 1265 00b9 0D       		.uleb128 0xd
 1266 00ba 26       		.uleb128 0x26
 1267 00bb 00       		.byte	0
 1268 00bc 49       		.uleb128 0x49
 1269 00bd 13       		.uleb128 0x13
 1270 00be 00       		.byte	0
 1271 00bf 00       		.byte	0
 1272 00c0 0E       		.uleb128 0xe
 1273 00c1 05       		.uleb128 0x5
 1274 00c2 00       		.byte	0
 1275 00c3 03       		.uleb128 0x3
 1276 00c4 0E       		.uleb128 0xe
 1277 00c5 3A       		.uleb128 0x3a
 1278 00c6 0B       		.uleb128 0xb
 1279 00c7 3B       		.uleb128 0x3b
 1280 00c8 0B       		.uleb128 0xb
 1281 00c9 49       		.uleb128 0x49
 1282 00ca 13       		.uleb128 0x13
 1283 00cb 02       		.uleb128 0x2
 1284 00cc 18       		.uleb128 0x18
 1285 00cd 00       		.byte	0
 1286 00ce 00       		.byte	0
 1287 00cf 0F       		.uleb128 0xf
 1288 00d0 0F       		.uleb128 0xf
 1289 00d1 00       		.byte	0
 1290 00d2 0B       		.uleb128 0xb
 1291 00d3 0B       		.uleb128 0xb
 1292 00d4 49       		.uleb128 0x49
 1293 00d5 13       		.uleb128 0x13
 1294 00d6 00       		.byte	0
 1295 00d7 00       		.byte	0
 1296 00d8 10       		.uleb128 0x10
 1297 00d9 2E       		.uleb128 0x2e
 1298 00da 00       		.byte	0
 1299 00db 3F       		.uleb128 0x3f
 1300 00dc 19       		.uleb128 0x19
 1301 00dd 03       		.uleb128 0x3
 1302 00de 0E       		.uleb128 0xe
 1303 00df 3A       		.uleb128 0x3a
ARM GAS  C:\Users\ylee818\AppData\Local\Temp\cc7o0S2R.s 			page 28


 1304 00e0 0B       		.uleb128 0xb
 1305 00e1 3B       		.uleb128 0x3b
 1306 00e2 0B       		.uleb128 0xb
 1307 00e3 27       		.uleb128 0x27
 1308 00e4 19       		.uleb128 0x19
 1309 00e5 11       		.uleb128 0x11
 1310 00e6 01       		.uleb128 0x1
 1311 00e7 12       		.uleb128 0x12
 1312 00e8 06       		.uleb128 0x6
 1313 00e9 40       		.uleb128 0x40
 1314 00ea 18       		.uleb128 0x18
 1315 00eb 9742     		.uleb128 0x2117
 1316 00ed 19       		.uleb128 0x19
 1317 00ee 00       		.byte	0
 1318 00ef 00       		.byte	0
 1319 00f0 11       		.uleb128 0x11
 1320 00f1 2E       		.uleb128 0x2e
 1321 00f2 01       		.byte	0x1
 1322 00f3 3F       		.uleb128 0x3f
 1323 00f4 19       		.uleb128 0x19
 1324 00f5 03       		.uleb128 0x3
 1325 00f6 0E       		.uleb128 0xe
 1326 00f7 3A       		.uleb128 0x3a
 1327 00f8 0B       		.uleb128 0xb
 1328 00f9 3B       		.uleb128 0x3b
 1329 00fa 0B       		.uleb128 0xb
 1330 00fb 27       		.uleb128 0x27
 1331 00fc 19       		.uleb128 0x19
 1332 00fd 11       		.uleb128 0x11
 1333 00fe 01       		.uleb128 0x1
 1334 00ff 12       		.uleb128 0x12
 1335 0100 06       		.uleb128 0x6
 1336 0101 40       		.uleb128 0x40
 1337 0102 18       		.uleb128 0x18
 1338 0103 9642     		.uleb128 0x2116
 1339 0105 19       		.uleb128 0x19
 1340 0106 01       		.uleb128 0x1
 1341 0107 13       		.uleb128 0x13
 1342 0108 00       		.byte	0
 1343 0109 00       		.byte	0
 1344 010a 12       		.uleb128 0x12
 1345 010b 34       		.uleb128 0x34
 1346 010c 00       		.byte	0
 1347 010d 03       		.uleb128 0x3
 1348 010e 0E       		.uleb128 0xe
 1349 010f 3A       		.uleb128 0x3a
 1350 0110 0B       		.uleb128 0xb
 1351 0111 3B       		.uleb128 0x3b
 1352 0112 05       		.uleb128 0x5
 1353 0113 49       		.uleb128 0x49
 1354 0114 13       		.uleb128 0x13
 1355 0115 3F       		.uleb128 0x3f
 1356 0116 19       		.uleb128 0x19
 1357 0117 3C       		.uleb128 0x3c
 1358 0118 19       		.uleb128 0x19
 1359 0119 00       		.byte	0
 1360 011a 00       		.byte	0
ARM GAS  C:\Users\ylee818\AppData\Local\Temp\cc7o0S2R.s 			page 29


 1361 011b 00       		.byte	0
 1362              		.section	.debug_aranges,"",%progbits
 1363 0000 54000000 		.4byte	0x54
 1364 0004 0200     		.2byte	0x2
 1365 0006 00000000 		.4byte	.Ldebug_info0
 1366 000a 04       		.byte	0x4
 1367 000b 00       		.byte	0
 1368 000c 0000     		.2byte	0
 1369 000e 0000     		.2byte	0
 1370 0010 00000000 		.4byte	.LFB63
 1371 0014 0C000000 		.4byte	.LFE63-.LFB63
 1372 0018 00000000 		.4byte	.LFB64
 1373 001c 18000000 		.4byte	.LFE64-.LFB64
 1374 0020 00000000 		.4byte	.LFB65
 1375 0024 44000000 		.4byte	.LFE65-.LFB65
 1376 0028 00000000 		.4byte	.LFB66
 1377 002c 40000000 		.4byte	.LFE66-.LFB66
 1378 0030 00000000 		.4byte	.LFB67
 1379 0034 40000000 		.4byte	.LFE67-.LFB67
 1380 0038 00000000 		.4byte	.LFB68
 1381 003c 80000000 		.4byte	.LFE68-.LFB68
 1382 0040 00000000 		.4byte	.LFB69
 1383 0044 40000000 		.4byte	.LFE69-.LFB69
 1384 0048 00000000 		.4byte	.LFB70
 1385 004c 44010000 		.4byte	.LFE70-.LFB70
 1386 0050 00000000 		.4byte	0
 1387 0054 00000000 		.4byte	0
 1388              		.section	.debug_ranges,"",%progbits
 1389              	.Ldebug_ranges0:
 1390 0000 00000000 		.4byte	.LFB63
 1391 0004 0C000000 		.4byte	.LFE63
 1392 0008 00000000 		.4byte	.LFB64
 1393 000c 18000000 		.4byte	.LFE64
 1394 0010 00000000 		.4byte	.LFB65
 1395 0014 44000000 		.4byte	.LFE65
 1396 0018 00000000 		.4byte	.LFB66
 1397 001c 40000000 		.4byte	.LFE66
 1398 0020 00000000 		.4byte	.LFB67
 1399 0024 40000000 		.4byte	.LFE67
 1400 0028 00000000 		.4byte	.LFB68
 1401 002c 80000000 		.4byte	.LFE68
 1402 0030 00000000 		.4byte	.LFB69
 1403 0034 40000000 		.4byte	.LFE69
 1404 0038 00000000 		.4byte	.LFB70
 1405 003c 44010000 		.4byte	.LFE70
 1406 0040 00000000 		.4byte	0
 1407 0044 00000000 		.4byte	0
 1408              		.section	.debug_line,"",%progbits
 1409              	.Ldebug_line0:
 1410 0000 94020000 		.section	.debug_str,"MS",%progbits,1
 1410      02004501 
 1410      00000201 
 1410      FB0E0D00 
 1410      01010101 
 1411              	.LASF3:
 1412 0000 5F5F7569 		.ascii	"__uint8_t\000"
 1412      6E74385F 
ARM GAS  C:\Users\ylee818\AppData\Local\Temp\cc7o0S2R.s 			page 30


 1412      7400
 1413              	.LASF41:
 1414 000a 474E5520 		.ascii	"GNU C11 5.4.1 20160609 (release) [ARM/embedded-5-br"
 1414      43313120 
 1414      352E342E 
 1414      31203230 
 1414      31363036 
 1415 003d 616E6368 		.ascii	"anch revision 237715] -mcpu=cortex-m3 -mthumb -g -O"
 1415      20726576 
 1415      6973696F 
 1415      6E203233 
 1415      37373135 
 1416 0070 30202D66 		.ascii	"0 -ffunction-sections -ffat-lto-objects\000"
 1416      66756E63 
 1416      74696F6E 
 1416      2D736563 
 1416      74696F6E 
 1417              	.LASF40:
 1418 0098 735F7361 		.ascii	"s_safety_count\000"
 1418      66657479 
 1418      5F636F75 
 1418      6E7400
 1419              	.LASF6:
 1420 00a7 5F5F696E 		.ascii	"__int32_t\000"
 1420      7433325F 
 1420      7400
 1421              	.LASF34:
 1422 00b1 5449434B 		.ascii	"TICKS_90_LEFT\000"
 1422      535F3930 
 1422      5F4C4546 
 1422      5400
 1423              	.LASF24:
 1424 00bf 6469725F 		.ascii	"dir_state_t\000"
 1424      73746174 
 1424      655F7400 
 1425              	.LASF43:
 1426 00cb 433A5C55 		.ascii	"C:\\Users\\ylee818\\Documents\\GitHub\\Compsys-301-"
 1426      73657273 
 1426      5C796C65 
 1426      65383138 
 1426      5C446F63 
 1427 00f9 434F4445 		.ascii	"CODE\\Yukyung CODE\\CS301_Class.cydsn\000"
 1427      5C59756B 
 1427      79756E67 
 1427      20434F44 
 1427      455C4353 
 1428              	.LASF16:
 1429 011d 646F7562 		.ascii	"double\000"
 1429      6C6500
 1430              	.LASF14:
 1431 0124 696E7433 		.ascii	"int32_t\000"
 1431      325F7400 
 1432              	.LASF45:
 1433 012c 44697265 		.ascii	"Directions_Handle\000"
 1433      6374696F 
 1433      6E735F48 
 1433      616E646C 
ARM GAS  C:\Users\ylee818\AppData\Local\Temp\cc7o0S2R.s 			page 31


 1433      6500
 1434              	.LASF15:
 1435 013e 666C6F61 		.ascii	"float\000"
 1435      7400
 1436              	.LASF27:
 1437 0144 656E635F 		.ascii	"enc_accumulate_now\000"
 1437      61636375 
 1437      6D756C61 
 1437      74655F6E 
 1437      6F7700
 1438              	.LASF1:
 1439 0157 756E7369 		.ascii	"unsigned char\000"
 1439      676E6564 
 1439      20636861 
 1439      7200
 1440              	.LASF28:
 1441 0165 7069766F 		.ascii	"pivot_left_speed\000"
 1441      745F6C65 
 1441      66745F73 
 1441      70656564 
 1441      00
 1442              	.LASF33:
 1443 0176 705F6469 		.ascii	"p_dir\000"
 1443      7200
 1444              	.LASF29:
 1445 017c 62617365 		.ascii	"base\000"
 1445      00
 1446              	.LASF5:
 1447 0181 73686F72 		.ascii	"short unsigned int\000"
 1447      7420756E 
 1447      7369676E 
 1447      65642069 
 1447      6E7400
 1448              	.LASF44:
 1449 0194 44697265 		.ascii	"Directions_Init\000"
 1449      6374696F 
 1449      6E735F49 
 1449      6E697400 
 1450              	.LASF23:
 1451 01a4 4449525F 		.ascii	"DIR_FINISH\000"
 1451      46494E49 
 1451      534800
 1452              	.LASF42:
 1453 01af 64697265 		.ascii	"directions.c\000"
 1453      6374696F 
 1453      6E732E63 
 1453      00
 1454              	.LASF31:
 1455 01bc 7069766F 		.ascii	"pivot_right_speed\000"
 1455      745F7269 
 1455      6768745F 
 1455      73706565 
 1455      6400
 1456              	.LASF4:
 1457 01ce 5F5F7569 		.ascii	"__uint16_t\000"
 1457      6E743136 
 1457      5F7400
ARM GAS  C:\Users\ylee818\AppData\Local\Temp\cc7o0S2R.s 			page 32


 1458              	.LASF8:
 1459 01d9 6C6F6E67 		.ascii	"long unsigned int\000"
 1459      20756E73 
 1459      69676E65 
 1459      6420696E 
 1459      7400
 1460              	.LASF46:
 1461 01eb 49544D5F 		.ascii	"ITM_RxBuffer\000"
 1461      52784275 
 1461      66666572 
 1461      00
 1462              	.LASF35:
 1463 01f8 5449434B 		.ascii	"TICKS_90_RIGHT\000"
 1463      535F3930 
 1463      5F524947 
 1463      485400
 1464              	.LASF11:
 1465 0207 756E7369 		.ascii	"unsigned int\000"
 1465      676E6564 
 1465      20696E74 
 1465      00
 1466              	.LASF32:
 1467 0214 66696E69 		.ascii	"finish_and_release\000"
 1467      73685F61 
 1467      6E645F72 
 1467      656C6561 
 1467      736500
 1468              	.LASF10:
 1469 0227 6C6F6E67 		.ascii	"long long unsigned int\000"
 1469      206C6F6E 
 1469      6720756E 
 1469      7369676E 
 1469      65642069 
 1470              	.LASF12:
 1471 023e 75696E74 		.ascii	"uint8_t\000"
 1471      385F7400 
 1472              	.LASF39:
 1473 0246 735F6163 		.ascii	"s_acc_ticks\000"
 1473      635F7469 
 1473      636B7300 
 1474              	.LASF36:
 1475 0252 735F7374 		.ascii	"s_state\000"
 1475      61746500 
 1476              	.LASF30:
 1477 025a 73746565 		.ascii	"steer\000"
 1477      7200
 1478              	.LASF21:
 1479 0260 4449525F 		.ascii	"DIR_PREP\000"
 1479      50524550 
 1479      00
 1480              	.LASF18:
 1481 0269 6C6F6E67 		.ascii	"long double\000"
 1481      20646F75 
 1481      626C6500 
 1482              	.LASF19:
 1483 0275 73697A65 		.ascii	"sizetype\000"
 1483      74797065 
ARM GAS  C:\Users\ylee818\AppData\Local\Temp\cc7o0S2R.s 			page 33


 1483      00
 1484              	.LASF9:
 1485 027e 6C6F6E67 		.ascii	"long long int\000"
 1485      206C6F6E 
 1485      6720696E 
 1485      7400
 1486              	.LASF38:
 1487 028c 735F7461 		.ascii	"s_target_ticks\000"
 1487      72676574 
 1487      5F746963 
 1487      6B7300
 1488              	.LASF17:
 1489 029b 63686172 		.ascii	"char\000"
 1489      00
 1490              	.LASF2:
 1491 02a0 73686F72 		.ascii	"short int\000"
 1491      7420696E 
 1491      7400
 1492              	.LASF13:
 1493 02aa 75696E74 		.ascii	"uint16_t\000"
 1493      31365F74 
 1493      00
 1494              	.LASF7:
 1495 02b3 6C6F6E67 		.ascii	"long int\000"
 1495      20696E74 
 1495      00
 1496              	.LASF22:
 1497 02bc 4449525F 		.ascii	"DIR_TURNING\000"
 1497      5455524E 
 1497      494E4700 
 1498              	.LASF25:
 1499 02c8 656E635F 		.ascii	"enc_resume_background\000"
 1499      72657375 
 1499      6D655F62 
 1499      61636B67 
 1499      726F756E 
 1500              	.LASF0:
 1501 02de 7369676E 		.ascii	"signed char\000"
 1501      65642063 
 1501      68617200 
 1502              	.LASF20:
 1503 02ea 4449525F 		.ascii	"DIR_IDLE\000"
 1503      49444C45 
 1503      00
 1504              	.LASF26:
 1505 02f3 656E635F 		.ascii	"enc_reset_local\000"
 1505      72657365 
 1505      745F6C6F 
 1505      63616C00 
 1506              	.LASF37:
 1507 0303 735F7475 		.ascii	"s_turn_side\000"
 1507      726E5F73 
 1507      69646500 
 1508              		.ident	"GCC: (GNU Tools for ARM Embedded Processors) 5.4.1 20160609 (release) [ARM/embedded-5-bran
