ARM GAS  C:\Users\ylee818\AppData\Local\Temp\cc7o0S2R.s 			page 1


   1              		.syntax unified
   2              		.cpu cortex-m3
   3              		.fpu softvfp
   4              		.eabi_attribute 20, 1
   5              		.eabi_attribute 21, 1
   6              		.eabi_attribute 23, 3
   7              		.eabi_attribute 24, 1
   8              		.eabi_attribute 25, 1
   9              		.eabi_attribute 26, 1
  10              		.eabi_attribute 30, 6
  11              		.eabi_attribute 34, 1
  12              		.eabi_attribute 18, 4
  13              		.thumb
  14              		.syntax unified
  15              		.file	"directions.c"
  16              		.text
  17              	.Ltext0:
  18              		.cfi_sections	.debug_frame
  19              		.data
  20              		.align	2
  21              		.type	TICKS_90_LEFT, %object
  22              		.size	TICKS_90_LEFT, 4
  23              	TICKS_90_LEFT:
  24 0000 5A000000 		.word	90
  25              		.align	2
  26              		.type	TICKS_90_RIGHT, %object
  27              		.size	TICKS_90_RIGHT, 4
  28              	TICKS_90_RIGHT:
  29 0004 5A000000 		.word	90
  30              		.bss
  31              	s_state:
  32 0000 00       		.space	1
  33              	s_turn_side:
  34 0001 00       		.space	1
  35 0002 0000     		.align	2
  36              	s_target_ticks:
  37 0004 00000000 		.space	4
  38              		.align	2
  39              	s_acc_ticks:
  40 0008 00000000 		.space	4
  41              		.align	1
  42              	s_safety_count:
  43 000c 0000     		.space	2
  44              		.section	.text.enc_resume_background,"ax",%progbits
  45              		.align	2
  46              		.thumb
  47              		.thumb_func
  48              		.type	enc_resume_background, %function
  49              	enc_resume_background:
  50              	.LFB63:
  51              		.file 1 "directions.c"
   1:directions.c  **** #include <project.h>
   2:directions.c  **** #include <stdint.h>
   3:directions.c  **** #include <stdbool.h>
   4:directions.c  **** 
   5:directions.c  **** #include "directions.h"
   6:directions.c  **** #include "motor_s.h"     // set_motors_symmetric(), set_motors_with_trim_and_steer(), motor_enable
ARM GAS  C:\Users\ylee818\AppData\Local\Temp\cc7o0S2R.s 			page 2


   7:directions.c  **** #include "defines.h"     // your project-wide defines
   8:directions.c  **** 
   9:directions.c  **** /* ===================== Tunables ===================== */
  10:directions.c  **** /* Encoder counts for ~90° pivots (tune on your tape) */
  11:directions.c  **** static volatile int32_t TICKS_90_LEFT  = 90;   /* abs(|ΔL|)+abs(|ΔR|) */
  12:directions.c  **** static volatile int32_t TICKS_90_RIGHT = 90;
  13:directions.c  **** 
  14:directions.c  **** /* Pivot speed (%) — keep modest to avoid overshoot */
  15:directions.c  **** // Side-specific pivot speeds (percent duty)
  16:directions.c  **** #define PIVOT_SPEED_L           25   // left turn speed
  17:directions.c  **** #define PIVOT_SPEED_R           28   // right turn speed
  18:directions.c  **** #define STOP_BEFORE_MSL        110
  19:directions.c  **** #define STOP_BEFORE_MSR        100
  20:directions.c  **** #define BRAKE_AFTER_MS        1000
  21:directions.c  **** 
  22:directions.c  **** /* Safety: max number of handler calls allowed while turning.
  23:directions.c  ****  * With your ~8 ms loop this is ~3.2 s (400 * 8 ms) which is plenty. */
  24:directions.c  **** #define MAX_TURN_HANDLER_TICKS  30
  25:directions.c  **** 
  26:directions.c  **** /* ===================== Internal state ===================== */
  27:directions.c  **** typedef enum {
  28:directions.c  ****     DIR_IDLE = 0,
  29:directions.c  ****     DIR_PREP,
  30:directions.c  ****     DIR_TURNING,
  31:directions.c  ****     DIR_FINISH
  32:directions.c  **** } dir_state_t;
  33:directions.c  **** 
  34:directions.c  **** static dir_state_t s_state = DIR_IDLE;
  35:directions.c  **** static uint8_t     s_turn_side = 0;        /* 1 = left, 2 = right */
  36:directions.c  **** static int32_t     s_target_ticks = 0;     /* goal = ~90° */
  37:directions.c  **** static int32_t     s_acc_ticks    = 0;     /* running sum of |ΔL|+|ΔR| */
  38:directions.c  **** static uint16_t    s_safety_count = 0;
  39:directions.c  **** 
  40:directions.c  **** /* ---------------- Encoder helpers ----------------
  41:directions.c  ****  * We pause your background 5 ms encoder task while we own the counters,
  42:directions.c  ****  * so our deltas don't get zeroed behind our back.
  43:directions.c  ****  */
  44:directions.c  **** /*static inline void enc_pause_background(void)
  45:directions.c  **** {
  46:directions.c  **** #if defined(Timer_QD_Stop)
  47:directions.c  ****     Timer_QD_Stop();
  48:directions.c  **** #endif
  49:directions.c  **** #if defined(isr_qd_Disable)
  50:directions.c  ****     isr_qd_Disable();
  51:directions.c  **** #endif
  52:directions.c  **** } */
  53:directions.c  **** 
  54:directions.c  **** static inline void enc_resume_background(void)
  55:directions.c  **** {
  52              		.loc 1 55 0
  53              		.cfi_startproc
  54              		@ args = 0, pretend = 0, frame = 0
  55              		@ frame_needed = 1, uses_anonymous_args = 0
  56              		@ link register save eliminated.
  57 0000 80B4     		push	{r7}
  58              		.cfi_def_cfa_offset 4
  59              		.cfi_offset 7, -4
ARM GAS  C:\Users\ylee818\AppData\Local\Temp\cc7o0S2R.s 			page 3


  60 0002 00AF     		add	r7, sp, #0
  61              		.cfi_def_cfa_register 7
  56:directions.c  **** #if defined(isr_qd_Enable)
  57:directions.c  ****     isr_qd_Enable();
  58:directions.c  **** #endif
  59:directions.c  **** #if defined(Timer_QD_Start)
  60:directions.c  ****     Timer_QD_Start();
  61:directions.c  **** #endif
  62:directions.c  **** }
  62              		.loc 1 62 0
  63 0004 00BF     		nop
  64 0006 BD46     		mov	sp, r7
  65              		.cfi_def_cfa_register 13
  66              		@ sp needed
  67 0008 80BC     		pop	{r7}
  68              		.cfi_restore 7
  69              		.cfi_def_cfa_offset 0
  70 000a 7047     		bx	lr
  71              		.cfi_endproc
  72              	.LFE63:
  73              		.size	enc_resume_background, .-enc_resume_background
  74              		.section	.text.enc_reset_local,"ax",%progbits
  75              		.align	2
  76              		.thumb
  77              		.thumb_func
  78              		.type	enc_reset_local, %function
  79              	enc_reset_local:
  80              	.LFB64:
  63:directions.c  **** 
  64:directions.c  **** static inline void enc_reset_local(void)
  65:directions.c  **** {
  81              		.loc 1 65 0
  82              		.cfi_startproc
  83              		@ args = 0, pretend = 0, frame = 0
  84              		@ frame_needed = 1, uses_anonymous_args = 0
  85              		@ link register save eliminated.
  86 0000 80B4     		push	{r7}
  87              		.cfi_def_cfa_offset 4
  88              		.cfi_offset 7, -4
  89 0002 00AF     		add	r7, sp, #0
  90              		.cfi_def_cfa_register 7
  66:directions.c  **** #if defined(QuadDec_M1_SetCounter) && defined(QuadDec_M2_SetCounter)
  67:directions.c  ****     QuadDec_M1_SetCounter(0);
  68:directions.c  ****     QuadDec_M2_SetCounter(0);
  69:directions.c  **** #endif
  70:directions.c  ****     s_acc_ticks = 0;
  91              		.loc 1 70 0
  92 0004 034B     		ldr	r3, .L3
  93 0006 0022     		movs	r2, #0
  94 0008 1A60     		str	r2, [r3]
  71:directions.c  **** }
  95              		.loc 1 71 0
  96 000a 00BF     		nop
  97 000c BD46     		mov	sp, r7
  98              		.cfi_def_cfa_register 13
  99              		@ sp needed
 100 000e 80BC     		pop	{r7}
ARM GAS  C:\Users\ylee818\AppData\Local\Temp\cc7o0S2R.s 			page 4


 101              		.cfi_restore 7
 102              		.cfi_def_cfa_offset 0
 103 0010 7047     		bx	lr
 104              	.L4:
 105 0012 00BF     		.align	2
 106              	.L3:
 107 0014 08000000 		.word	s_acc_ticks
 108              		.cfi_endproc
 109              	.LFE64:
 110              		.size	enc_reset_local, .-enc_reset_local
 111              		.section	.text.enc_accumulate_now,"ax",%progbits
 112              		.align	2
 113              		.thumb
 114              		.thumb_func
 115              		.type	enc_accumulate_now, %function
 116              	enc_accumulate_now:
 117              	.LFB65:
  72:directions.c  **** 
  73:directions.c  **** /* Accumulate |ΔL| + |ΔR| since last call, then zero counters */
  74:directions.c  **** static inline void enc_accumulate_now(void)
  75:directions.c  **** {
 118              		.loc 1 75 0
 119              		.cfi_startproc
 120              		@ args = 0, pretend = 0, frame = 8
 121              		@ frame_needed = 1, uses_anonymous_args = 0
 122              		@ link register save eliminated.
 123 0000 80B4     		push	{r7}
 124              		.cfi_def_cfa_offset 4
 125              		.cfi_offset 7, -4
 126 0002 83B0     		sub	sp, sp, #12
 127              		.cfi_def_cfa_offset 16
 128 0004 00AF     		add	r7, sp, #0
 129              		.cfi_def_cfa_register 7
  76:directions.c  ****     int32_t dL = 0, dR = 0;
 130              		.loc 1 76 0
 131 0006 0023     		movs	r3, #0
 132 0008 7B60     		str	r3, [r7, #4]
 133 000a 0023     		movs	r3, #0
 134 000c 3B60     		str	r3, [r7]
  77:directions.c  **** #if defined(QuadDec_M1_GetCounter) && defined(QuadDec_M2_GetCounter)
  78:directions.c  ****     dL = QuadDec_M1_GetCounter();
  79:directions.c  ****     dR = QuadDec_M2_GetCounter();
  80:directions.c  ****     QuadDec_M1_SetCounter(0);
  81:directions.c  ****     QuadDec_M2_SetCounter(0);
  82:directions.c  **** #endif
  83:directions.c  ****     if (dL < 0) dL = -dL;
 135              		.loc 1 83 0
 136 000e 7B68     		ldr	r3, [r7, #4]
 137 0010 002B     		cmp	r3, #0
 138 0012 02DA     		bge	.L6
 139              		.loc 1 83 0 is_stmt 0 discriminator 1
 140 0014 7B68     		ldr	r3, [r7, #4]
 141 0016 5B42     		negs	r3, r3
 142 0018 7B60     		str	r3, [r7, #4]
 143              	.L6:
  84:directions.c  ****     if (dR < 0) dR = -dR;
 144              		.loc 1 84 0 is_stmt 1
ARM GAS  C:\Users\ylee818\AppData\Local\Temp\cc7o0S2R.s 			page 5


 145 001a 3B68     		ldr	r3, [r7]
 146 001c 002B     		cmp	r3, #0
 147 001e 02DA     		bge	.L7
 148              		.loc 1 84 0 is_stmt 0 discriminator 1
 149 0020 3B68     		ldr	r3, [r7]
 150 0022 5B42     		negs	r3, r3
 151 0024 3B60     		str	r3, [r7]
 152              	.L7:
  85:directions.c  ****     s_acc_ticks += (dL + dR);
 153              		.loc 1 85 0 is_stmt 1
 154 0026 7A68     		ldr	r2, [r7, #4]
 155 0028 3B68     		ldr	r3, [r7]
 156 002a 1A44     		add	r2, r2, r3
 157 002c 044B     		ldr	r3, .L8
 158 002e 1B68     		ldr	r3, [r3]
 159 0030 1344     		add	r3, r3, r2
 160 0032 034A     		ldr	r2, .L8
 161 0034 1360     		str	r3, [r2]
  86:directions.c  **** }
 162              		.loc 1 86 0
 163 0036 00BF     		nop
 164 0038 0C37     		adds	r7, r7, #12
 165              		.cfi_def_cfa_offset 4
 166 003a BD46     		mov	sp, r7
 167              		.cfi_def_cfa_register 13
 168              		@ sp needed
 169 003c 80BC     		pop	{r7}
 170              		.cfi_restore 7
 171              		.cfi_def_cfa_offset 0
 172 003e 7047     		bx	lr
 173              	.L9:
 174              		.align	2
 175              	.L8:
 176 0040 08000000 		.word	s_acc_ticks
 177              		.cfi_endproc
 178              	.LFE65:
 179              		.size	enc_accumulate_now, .-enc_accumulate_now
 180              		.section	.text.pivot_left_speed,"ax",%progbits
 181              		.align	2
 182              		.thumb
 183              		.thumb_func
 184              		.type	pivot_left_speed, %function
 185              	pivot_left_speed:
 186              	.LFB66:
  87:directions.c  **** 
  88:directions.c  **** /* ---------------- Motor helpers (spin-in-place) ----------------
  89:directions.c  ****  * If your hardware can’t reverse, change these to skid turns:
  90:directions.c  ****  *  - left:  left=0,  right=+PIVOT_SPEED_PC
  91:directions.c  ****  *  - right: left=+PIVOT_SPEED_PC, right=0
  92:directions.c  ****  */
  93:directions.c  **** static void pivot_left_speed(void)
  94:directions.c  **** {
 187              		.loc 1 94 0
 188              		.cfi_startproc
 189              		@ args = 0, pretend = 0, frame = 24
 190              		@ frame_needed = 1, uses_anonymous_args = 0
 191 0000 80B5     		push	{r7, lr}
ARM GAS  C:\Users\ylee818\AppData\Local\Temp\cc7o0S2R.s 			page 6


 192              		.cfi_def_cfa_offset 8
 193              		.cfi_offset 7, -8
 194              		.cfi_offset 14, -4
 195 0002 86B0     		sub	sp, sp, #24
 196              		.cfi_def_cfa_offset 32
 197 0004 00AF     		add	r7, sp, #0
 198              		.cfi_def_cfa_register 7
  95:directions.c  ****     const int pct = PIVOT_SPEED_L;
 199              		.loc 1 95 0
 200 0006 1923     		movs	r3, #25
 201 0008 7B61     		str	r3, [r7, #20]
  96:directions.c  ****     int L = -pct;   // reverse
 202              		.loc 1 96 0
 203 000a 7B69     		ldr	r3, [r7, #20]
 204 000c 5B42     		negs	r3, r3
 205 000e 3B61     		str	r3, [r7, #16]
  97:directions.c  ****     int R = +pct;   // forward
 206              		.loc 1 97 0
 207 0010 7B69     		ldr	r3, [r7, #20]
 208 0012 FB60     		str	r3, [r7, #12]
  98:directions.c  ****     int base  = (L + R) / 2;
 209              		.loc 1 98 0
 210 0014 3A69     		ldr	r2, [r7, #16]
 211 0016 FB68     		ldr	r3, [r7, #12]
 212 0018 1344     		add	r3, r3, r2
 213 001a DA0F     		lsrs	r2, r3, #31
 214 001c 1344     		add	r3, r3, r2
 215 001e 5B10     		asrs	r3, r3, #1
 216 0020 BB60     		str	r3, [r7, #8]
  99:directions.c  ****     int steer = (R - L) / 2;
 217              		.loc 1 99 0
 218 0022 FA68     		ldr	r2, [r7, #12]
 219 0024 3B69     		ldr	r3, [r7, #16]
 220 0026 D31A     		subs	r3, r2, r3
 221 0028 DA0F     		lsrs	r2, r3, #31
 222 002a 1344     		add	r3, r3, r2
 223 002c 5B10     		asrs	r3, r3, #1
 224 002e 7B60     		str	r3, [r7, #4]
 100:directions.c  ****     set_motors_with_trim_and_steer(base, steer);
 225              		.loc 1 100 0
 226 0030 7968     		ldr	r1, [r7, #4]
 227 0032 B868     		ldr	r0, [r7, #8]
 228 0034 FFF7FEFF 		bl	set_motors_with_trim_and_steer
 101:directions.c  **** }
 229              		.loc 1 101 0
 230 0038 00BF     		nop
 231 003a 1837     		adds	r7, r7, #24
 232              		.cfi_def_cfa_offset 8
 233 003c BD46     		mov	sp, r7
 234              		.cfi_def_cfa_register 13
 235              		@ sp needed
 236 003e 80BD     		pop	{r7, pc}
 237              		.cfi_endproc
 238              	.LFE66:
 239              		.size	pivot_left_speed, .-pivot_left_speed
 240              		.section	.text.pivot_right_speed,"ax",%progbits
 241              		.align	2
ARM GAS  C:\Users\ylee818\AppData\Local\Temp\cc7o0S2R.s 			page 7


 242              		.thumb
 243              		.thumb_func
 244              		.type	pivot_right_speed, %function
 245              	pivot_right_speed:
 246              	.LFB67:
 102:directions.c  **** 
 103:directions.c  **** static void pivot_right_speed(void)
 104:directions.c  **** {
 247              		.loc 1 104 0
 248              		.cfi_startproc
 249              		@ args = 0, pretend = 0, frame = 24
 250              		@ frame_needed = 1, uses_anonymous_args = 0
 251 0000 80B5     		push	{r7, lr}
 252              		.cfi_def_cfa_offset 8
 253              		.cfi_offset 7, -8
 254              		.cfi_offset 14, -4
 255 0002 86B0     		sub	sp, sp, #24
 256              		.cfi_def_cfa_offset 32
 257 0004 00AF     		add	r7, sp, #0
 258              		.cfi_def_cfa_register 7
 105:directions.c  ****     const int pct = PIVOT_SPEED_R;
 259              		.loc 1 105 0
 260 0006 1C23     		movs	r3, #28
 261 0008 7B61     		str	r3, [r7, #20]
 106:directions.c  ****     int L = +pct;
 262              		.loc 1 106 0
 263 000a 7B69     		ldr	r3, [r7, #20]
 264 000c 3B61     		str	r3, [r7, #16]
 107:directions.c  ****     int R = -pct;
 265              		.loc 1 107 0
 266 000e 7B69     		ldr	r3, [r7, #20]
 267 0010 5B42     		negs	r3, r3
 268 0012 FB60     		str	r3, [r7, #12]
 108:directions.c  ****     int base  = (L + R) / 2;
 269              		.loc 1 108 0
 270 0014 3A69     		ldr	r2, [r7, #16]
 271 0016 FB68     		ldr	r3, [r7, #12]
 272 0018 1344     		add	r3, r3, r2
 273 001a DA0F     		lsrs	r2, r3, #31
 274 001c 1344     		add	r3, r3, r2
 275 001e 5B10     		asrs	r3, r3, #1
 276 0020 BB60     		str	r3, [r7, #8]
 109:directions.c  ****     int steer = (R - L) / 2;
 277              		.loc 1 109 0
 278 0022 FA68     		ldr	r2, [r7, #12]
 279 0024 3B69     		ldr	r3, [r7, #16]
 280 0026 D31A     		subs	r3, r2, r3
 281 0028 DA0F     		lsrs	r2, r3, #31
 282 002a 1344     		add	r3, r3, r2
 283 002c 5B10     		asrs	r3, r3, #1
 284 002e 7B60     		str	r3, [r7, #4]
 110:directions.c  ****     set_motors_with_trim_and_steer(base, steer);
 285              		.loc 1 110 0
 286 0030 7968     		ldr	r1, [r7, #4]
 287 0032 B868     		ldr	r0, [r7, #8]
 288 0034 FFF7FEFF 		bl	set_motors_with_trim_and_steer
 111:directions.c  **** }
ARM GAS  C:\Users\ylee818\AppData\Local\Temp\cc7o0S2R.s 			page 8


 289              		.loc 1 111 0
 290 0038 00BF     		nop
 291 003a 1837     		adds	r7, r7, #24
 292              		.cfi_def_cfa_offset 8
 293 003c BD46     		mov	sp, r7
 294              		.cfi_def_cfa_register 13
 295              		@ sp needed
 296 003e 80BD     		pop	{r7, pc}
 297              		.cfi_endproc
 298              	.LFE67:
 299              		.size	pivot_right_speed, .-pivot_right_speed
 300              		.section	.text.finish_and_release,"ax",%progbits
 301              		.align	2
 302              		.thumb
 303              		.thumb_func
 304              		.type	finish_and_release, %function
 305              	finish_and_release:
 306              	.LFB68:
 112:directions.c  **** 
 113:directions.c  **** 
 114:directions.c  **** /* Ensure we always exit cleanly and release to straight */
 115:directions.c  **** static void finish_and_release(volatile uint8_t* p_dir)
 116:directions.c  **** {
 307              		.loc 1 116 0
 308              		.cfi_startproc
 309              		@ args = 0, pretend = 0, frame = 8
 310              		@ frame_needed = 1, uses_anonymous_args = 0
 311 0000 80B5     		push	{r7, lr}
 312              		.cfi_def_cfa_offset 8
 313              		.cfi_offset 7, -8
 314              		.cfi_offset 14, -4
 315 0002 82B0     		sub	sp, sp, #8
 316              		.cfi_def_cfa_offset 16
 317 0004 00AF     		add	r7, sp, #0
 318              		.cfi_def_cfa_register 7
 319 0006 7860     		str	r0, [r7, #4]
 117:directions.c  ****     /* Give counters back to the background task */
 118:directions.c  ****     enc_resume_background();
 320              		.loc 1 118 0
 321 0008 FFF7FEFF 		bl	enc_resume_background
 119:directions.c  ****     enc_reset_local();
 322              		.loc 1 119 0
 323 000c FFF7FEFF 		bl	enc_reset_local
 120:directions.c  **** 
 121:directions.c  ****     /* Release to straight and reset our state machine */
 122:directions.c  ****     if (p_dir) *p_dir = 0u;
 324              		.loc 1 122 0
 325 0010 7B68     		ldr	r3, [r7, #4]
 326 0012 002B     		cmp	r3, #0
 327 0014 02D0     		beq	.L13
 328              		.loc 1 122 0 is_stmt 0 discriminator 1
 329 0016 7B68     		ldr	r3, [r7, #4]
 330 0018 0022     		movs	r2, #0
 331 001a 1A70     		strb	r2, [r3]
 332              	.L13:
 123:directions.c  ****     s_state = DIR_IDLE;
 333              		.loc 1 123 0 is_stmt 1
ARM GAS  C:\Users\ylee818\AppData\Local\Temp\cc7o0S2R.s 			page 9


 334 001c 134B     		ldr	r3, .L14
 335 001e 0022     		movs	r2, #0
 336 0020 1A70     		strb	r2, [r3]
 124:directions.c  ****     s_turn_side = 0u;
 337              		.loc 1 124 0
 338 0022 134B     		ldr	r3, .L14+4
 339 0024 0022     		movs	r2, #0
 340 0026 1A70     		strb	r2, [r3]
 125:directions.c  ****     s_target_ticks = 0;
 341              		.loc 1 125 0
 342 0028 124B     		ldr	r3, .L14+8
 343 002a 0022     		movs	r2, #0
 344 002c 1A60     		str	r2, [r3]
 126:directions.c  ****     s_acc_ticks = 0;
 345              		.loc 1 126 0
 346 002e 124B     		ldr	r3, .L14+12
 347 0030 0022     		movs	r2, #0
 348 0032 1A60     		str	r2, [r3]
 127:directions.c  ****     s_safety_count = 0;
 349              		.loc 1 127 0
 350 0034 114B     		ldr	r3, .L14+16
 351 0036 0022     		movs	r2, #0
 352 0038 1A80     		strh	r2, [r3]	@ movhi
 128:directions.c  ****     
 129:directions.c  ****     /* Stop motion and brief brake/coast window */
 130:directions.c  ****     set_motors_symmetric(0); 
 353              		.loc 1 130 0
 354 003a 0020     		movs	r0, #0
 355 003c FFF7FEFF 		bl	set_motors_symmetric
 131:directions.c  ****     CyDelay(BRAKE_AFTER_MS);
 356              		.loc 1 131 0
 357 0040 4FF47A70 		mov	r0, #1000
 358 0044 FFF7FEFF 		bl	CyDelay
 132:directions.c  ****     set_motors_symmetric(0);
 359              		.loc 1 132 0
 360 0048 0020     		movs	r0, #0
 361 004a FFF7FEFF 		bl	set_motors_symmetric
 133:directions.c  **** 
 134:directions.c  ****     set_motors_with_trim_and_steer(100,-10);
 362              		.loc 1 134 0
 363 004e 6FF00901 		mvn	r1, #9
 364 0052 6420     		movs	r0, #100
 365 0054 FFF7FEFF 		bl	set_motors_with_trim_and_steer
 135:directions.c  ****     CyDelay(40);
 366              		.loc 1 135 0
 367 0058 2820     		movs	r0, #40
 368 005a FFF7FEFF 		bl	CyDelay
 136:directions.c  ****     set_motors_symmetric(0); 
 369              		.loc 1 136 0
 370 005e 0020     		movs	r0, #0
 371 0060 FFF7FEFF 		bl	set_motors_symmetric
 137:directions.c  **** }
 372              		.loc 1 137 0
 373 0064 00BF     		nop
 374 0066 0837     		adds	r7, r7, #8
 375              		.cfi_def_cfa_offset 8
 376 0068 BD46     		mov	sp, r7
ARM GAS  C:\Users\ylee818\AppData\Local\Temp\cc7o0S2R.s 			page 10


 377              		.cfi_def_cfa_register 13
 378              		@ sp needed
 379 006a 80BD     		pop	{r7, pc}
 380              	.L15:
 381              		.align	2
 382              	.L14:
 383 006c 00000000 		.word	s_state
 384 0070 01000000 		.word	s_turn_side
 385 0074 04000000 		.word	s_target_ticks
 386 0078 08000000 		.word	s_acc_ticks
 387 007c 0C000000 		.word	s_safety_count
 388              		.cfi_endproc
 389              	.LFE68:
 390              		.size	finish_and_release, .-finish_and_release
 391              		.section	.text.Directions_Init,"ax",%progbits
 392              		.align	2
 393              		.global	Directions_Init
 394              		.thumb
 395              		.thumb_func
 396              		.type	Directions_Init, %function
 397              	Directions_Init:
 398              	.LFB69:
 138:directions.c  **** 
 139:directions.c  **** /* ======================= Public API ======================= */
 140:directions.c  **** 
 141:directions.c  **** void Directions_Init(void)
 142:directions.c  **** {
 399              		.loc 1 142 0
 400              		.cfi_startproc
 401              		@ args = 0, pretend = 0, frame = 0
 402              		@ frame_needed = 1, uses_anonymous_args = 0
 403              		@ link register save eliminated.
 404 0000 80B4     		push	{r7}
 405              		.cfi_def_cfa_offset 4
 406              		.cfi_offset 7, -4
 407 0002 00AF     		add	r7, sp, #0
 408              		.cfi_def_cfa_register 7
 143:directions.c  ****     s_state = DIR_IDLE;
 409              		.loc 1 143 0
 410 0004 094B     		ldr	r3, .L17
 411 0006 0022     		movs	r2, #0
 412 0008 1A70     		strb	r2, [r3]
 144:directions.c  ****     s_turn_side = 0u;
 413              		.loc 1 144 0
 414 000a 094B     		ldr	r3, .L17+4
 415 000c 0022     		movs	r2, #0
 416 000e 1A70     		strb	r2, [r3]
 145:directions.c  ****     s_target_ticks = 0;
 417              		.loc 1 145 0
 418 0010 084B     		ldr	r3, .L17+8
 419 0012 0022     		movs	r2, #0
 420 0014 1A60     		str	r2, [r3]
 146:directions.c  ****     s_acc_ticks = 0;
 421              		.loc 1 146 0
 422 0016 084B     		ldr	r3, .L17+12
 423 0018 0022     		movs	r2, #0
 424 001a 1A60     		str	r2, [r3]
ARM GAS  C:\Users\ylee818\AppData\Local\Temp\cc7o0S2R.s 			page 11


 147:directions.c  ****     s_safety_count = 0;
 425              		.loc 1 147 0
 426 001c 074B     		ldr	r3, .L17+16
 427 001e 0022     		movs	r2, #0
 428 0020 1A80     		strh	r2, [r3]	@ movhi
 148:directions.c  **** }
 429              		.loc 1 148 0
 430 0022 00BF     		nop
 431 0024 BD46     		mov	sp, r7
 432              		.cfi_def_cfa_register 13
 433              		@ sp needed
 434 0026 80BC     		pop	{r7}
 435              		.cfi_restore 7
 436              		.cfi_def_cfa_offset 0
 437 0028 7047     		bx	lr
 438              	.L18:
 439 002a 00BF     		.align	2
 440              	.L17:
 441 002c 00000000 		.word	s_state
 442 0030 01000000 		.word	s_turn_side
 443 0034 04000000 		.word	s_target_ticks
 444 0038 08000000 		.word	s_acc_ticks
 445 003c 0C000000 		.word	s_safety_count
 446              		.cfi_endproc
 447              	.LFE69:
 448              		.size	Directions_Init, .-Directions_Init
 449              		.section	.text.Directions_Handle,"ax",%progbits
 450              		.align	2
 451              		.global	Directions_Handle
 452              		.thumb
 453              		.thumb_func
 454              		.type	Directions_Handle, %function
 455              	Directions_Handle:
 456              	.LFB70:
 149:directions.c  **** 
 150:directions.c  **** void Directions_Handle(volatile uint8_t* p_dir)
 151:directions.c  **** {
 457              		.loc 1 151 0
 458              		.cfi_startproc
 459              		@ args = 0, pretend = 0, frame = 16
 460              		@ frame_needed = 1, uses_anonymous_args = 0
 461 0000 80B5     		push	{r7, lr}
 462              		.cfi_def_cfa_offset 8
 463              		.cfi_offset 7, -8
 464              		.cfi_offset 14, -4
 465 0002 84B0     		sub	sp, sp, #16
 466              		.cfi_def_cfa_offset 24
 467 0004 00AF     		add	r7, sp, #0
 468              		.cfi_def_cfa_register 7
 469 0006 7860     		str	r0, [r7, #4]
 152:directions.c  ****     const uint8_t req = (p_dir ? *p_dir : 0u);
 470              		.loc 1 152 0
 471 0008 7B68     		ldr	r3, [r7, #4]
 472 000a 002B     		cmp	r3, #0
 473 000c 03D0     		beq	.L20
 474              		.loc 1 152 0 is_stmt 0 discriminator 1
 475 000e 7B68     		ldr	r3, [r7, #4]
ARM GAS  C:\Users\ylee818\AppData\Local\Temp\cc7o0S2R.s 			page 12


 476 0010 1B78     		ldrb	r3, [r3]
 477 0012 DBB2     		uxtb	r3, r3
 478 0014 00E0     		b	.L21
 479              	.L20:
 480              		.loc 1 152 0 discriminator 2
 481 0016 0023     		movs	r3, #0
 482              	.L21:
 483              		.loc 1 152 0 discriminator 4
 484 0018 FB73     		strb	r3, [r7, #15]
 153:directions.c  **** 
 154:directions.c  ****     switch (s_state)
 485              		.loc 1 154 0 is_stmt 1 discriminator 4
 486 001a 434B     		ldr	r3, .L40
 487 001c 1B78     		ldrb	r3, [r3]	@ zero_extendqisi2
 488 001e 022B     		cmp	r3, #2
 489 0020 4FD0     		beq	.L23
 490 0022 032B     		cmp	r3, #3
 491 0024 70D0     		beq	.L24
 492 0026 002B     		cmp	r3, #0
 493 0028 72D1     		bne	.L37
 155:directions.c  ****     {
 156:directions.c  ****     case DIR_IDLE:
 157:directions.c  ****         if (req == 1u) {
 494              		.loc 1 157 0
 495 002a FB7B     		ldrb	r3, [r7, #15]	@ zero_extendqisi2
 496 002c 012B     		cmp	r3, #1
 497 002e 22D1     		bne	.L26
 158:directions.c  ****             /* Stop, settle, pause encoders, zero counters */
 159:directions.c  ****             set_motors_symmetric(0);
 498              		.loc 1 159 0
 499 0030 0020     		movs	r0, #0
 500 0032 FFF7FEFF 		bl	set_motors_symmetric
 160:directions.c  ****             motor_enable(0u, 0u);
 501              		.loc 1 160 0
 502 0036 0021     		movs	r1, #0
 503 0038 0020     		movs	r0, #0
 504 003a FFF7FEFF 		bl	motor_enable
 161:directions.c  ****             CyDelay(STOP_BEFORE_MSL);
 505              		.loc 1 161 0
 506 003e 6E20     		movs	r0, #110
 507 0040 FFF7FEFF 		bl	CyDelay
 162:directions.c  **** 
 163:directions.c  ****             //enc_pause_background();
 164:directions.c  ****             enc_reset_local();
 508              		.loc 1 164 0
 509 0044 FFF7FEFF 		bl	enc_reset_local
 165:directions.c  **** 
 166:directions.c  ****             s_turn_side = req; /* latch side */
 510              		.loc 1 166 0
 511 0048 384A     		ldr	r2, .L40+4
 512 004a FB7B     		ldrb	r3, [r7, #15]
 513 004c 1370     		strb	r3, [r2]
 167:directions.c  ****             s_target_ticks = (req == 1u) ? TICKS_90_LEFT : TICKS_90_RIGHT;
 514              		.loc 1 167 0
 515 004e FB7B     		ldrb	r3, [r7, #15]	@ zero_extendqisi2
 516 0050 012B     		cmp	r3, #1
 517 0052 02D1     		bne	.L27
ARM GAS  C:\Users\ylee818\AppData\Local\Temp\cc7o0S2R.s 			page 13


 518              		.loc 1 167 0 is_stmt 0 discriminator 1
 519 0054 364B     		ldr	r3, .L40+8
 520 0056 1B68     		ldr	r3, [r3]
 521 0058 01E0     		b	.L28
 522              	.L27:
 523              		.loc 1 167 0 discriminator 2
 524 005a 364B     		ldr	r3, .L40+12
 525 005c 1B68     		ldr	r3, [r3]
 526              	.L28:
 527              		.loc 1 167 0 discriminator 4
 528 005e 364A     		ldr	r2, .L40+16
 529 0060 1360     		str	r3, [r2]
 168:directions.c  ****             s_acc_ticks = 0;
 530              		.loc 1 168 0 is_stmt 1 discriminator 4
 531 0062 364B     		ldr	r3, .L40+20
 532 0064 0022     		movs	r2, #0
 533 0066 1A60     		str	r2, [r3]
 169:directions.c  ****             s_safety_count = 0;
 534              		.loc 1 169 0 discriminator 4
 535 0068 354B     		ldr	r3, .L40+24
 536 006a 0022     		movs	r2, #0
 537 006c 1A80     		strh	r2, [r3]	@ movhi
 170:directions.c  ****             s_state = DIR_TURNING;
 538              		.loc 1 170 0 discriminator 4
 539 006e 2E4B     		ldr	r3, .L40
 540 0070 0222     		movs	r2, #2
 541 0072 1A70     		strb	r2, [r3]
 171:directions.c  ****         } else if (req == 2u) {
 172:directions.c  ****             /* Stop, settle, pause encoders, zero counters */
 173:directions.c  ****             set_motors_symmetric(0);
 174:directions.c  ****             motor_enable(0u, 0u);
 175:directions.c  ****             CyDelay(STOP_BEFORE_MSR);
 176:directions.c  **** 
 177:directions.c  ****             //enc_pause_background();
 178:directions.c  ****             enc_reset_local();
 179:directions.c  **** 
 180:directions.c  ****             s_turn_side = req; /* latch side */
 181:directions.c  ****             s_target_ticks = (req == 1u) ? TICKS_90_LEFT : TICKS_90_RIGHT;
 182:directions.c  ****             s_acc_ticks = 0;
 183:directions.c  ****             s_safety_count = 0;
 184:directions.c  ****             s_state = DIR_TURNING;
 185:directions.c  ****         }
 186:directions.c  ****         break;
 542              		.loc 1 186 0 discriminator 4
 543 0074 50E0     		b	.L38
 544              	.L26:
 171:directions.c  ****         } else if (req == 2u) {
 545              		.loc 1 171 0
 546 0076 FB7B     		ldrb	r3, [r7, #15]	@ zero_extendqisi2
 547 0078 022B     		cmp	r3, #2
 548 007a 4DD1     		bne	.L38
 173:directions.c  ****             motor_enable(0u, 0u);
 549              		.loc 1 173 0
 550 007c 0020     		movs	r0, #0
 551 007e FFF7FEFF 		bl	set_motors_symmetric
 174:directions.c  ****             CyDelay(STOP_BEFORE_MSR);
 552              		.loc 1 174 0
ARM GAS  C:\Users\ylee818\AppData\Local\Temp\cc7o0S2R.s 			page 14


 553 0082 0021     		movs	r1, #0
 554 0084 0020     		movs	r0, #0
 555 0086 FFF7FEFF 		bl	motor_enable
 175:directions.c  **** 
 556              		.loc 1 175 0
 557 008a 6420     		movs	r0, #100
 558 008c FFF7FEFF 		bl	CyDelay
 178:directions.c  **** 
 559              		.loc 1 178 0
 560 0090 FFF7FEFF 		bl	enc_reset_local
 180:directions.c  ****             s_target_ticks = (req == 1u) ? TICKS_90_LEFT : TICKS_90_RIGHT;
 561              		.loc 1 180 0
 562 0094 254A     		ldr	r2, .L40+4
 563 0096 FB7B     		ldrb	r3, [r7, #15]
 564 0098 1370     		strb	r3, [r2]
 181:directions.c  ****             s_acc_ticks = 0;
 565              		.loc 1 181 0
 566 009a FB7B     		ldrb	r3, [r7, #15]	@ zero_extendqisi2
 567 009c 012B     		cmp	r3, #1
 568 009e 02D1     		bne	.L30
 181:directions.c  ****             s_acc_ticks = 0;
 569              		.loc 1 181 0 is_stmt 0 discriminator 1
 570 00a0 234B     		ldr	r3, .L40+8
 571 00a2 1B68     		ldr	r3, [r3]
 572 00a4 01E0     		b	.L31
 573              	.L30:
 181:directions.c  ****             s_acc_ticks = 0;
 574              		.loc 1 181 0 discriminator 2
 575 00a6 234B     		ldr	r3, .L40+12
 576 00a8 1B68     		ldr	r3, [r3]
 577              	.L31:
 181:directions.c  ****             s_acc_ticks = 0;
 578              		.loc 1 181 0 discriminator 4
 579 00aa 234A     		ldr	r2, .L40+16
 580 00ac 1360     		str	r3, [r2]
 182:directions.c  ****             s_safety_count = 0;
 581              		.loc 1 182 0 is_stmt 1 discriminator 4
 582 00ae 234B     		ldr	r3, .L40+20
 583 00b0 0022     		movs	r2, #0
 584 00b2 1A60     		str	r2, [r3]
 183:directions.c  ****             s_state = DIR_TURNING;
 585              		.loc 1 183 0 discriminator 4
 586 00b4 224B     		ldr	r3, .L40+24
 587 00b6 0022     		movs	r2, #0
 588 00b8 1A80     		strh	r2, [r3]	@ movhi
 184:directions.c  ****         }
 589              		.loc 1 184 0 discriminator 4
 590 00ba 1B4B     		ldr	r3, .L40
 591 00bc 0222     		movs	r2, #2
 592 00be 1A70     		strb	r2, [r3]
 593              		.loc 1 186 0 discriminator 4
 594 00c0 2AE0     		b	.L38
 595              	.L23:
 187:directions.c  **** 
 188:directions.c  ****     case DIR_TURNING:
 189:directions.c  ****         /* Drive the pivot */
 190:directions.c  ****         if (s_turn_side == 1u) {
ARM GAS  C:\Users\ylee818\AppData\Local\Temp\cc7o0S2R.s 			page 15


 596              		.loc 1 190 0
 597 00c2 1A4B     		ldr	r3, .L40+4
 598 00c4 1B78     		ldrb	r3, [r3]	@ zero_extendqisi2
 599 00c6 012B     		cmp	r3, #1
 600 00c8 02D1     		bne	.L33
 191:directions.c  ****             pivot_left_speed();
 601              		.loc 1 191 0
 602 00ca FFF7FEFF 		bl	pivot_left_speed
 603 00ce 01E0     		b	.L34
 604              	.L33:
 192:directions.c  ****         } else {
 193:directions.c  ****             pivot_right_speed();
 605              		.loc 1 193 0
 606 00d0 FFF7FEFF 		bl	pivot_right_speed
 607              	.L34:
 194:directions.c  ****         }
 195:directions.c  **** 
 196:directions.c  **** 
 197:directions.c  ****         /* Progress + safety */
 198:directions.c  ****         enc_accumulate_now();
 608              		.loc 1 198 0
 609 00d4 FFF7FEFF 		bl	enc_accumulate_now
 199:directions.c  ****         if (++s_safety_count > MAX_TURN_HANDLER_TICKS) {
 610              		.loc 1 199 0
 611 00d8 194B     		ldr	r3, .L40+24
 612 00da 1B88     		ldrh	r3, [r3]
 613 00dc 0133     		adds	r3, r3, #1
 614 00de 9AB2     		uxth	r2, r3
 615 00e0 174B     		ldr	r3, .L40+24
 616 00e2 1A80     		strh	r2, [r3]	@ movhi
 617 00e4 164B     		ldr	r3, .L40+24
 618 00e6 1B88     		ldrh	r3, [r3]
 619 00e8 1E2B     		cmp	r3, #30
 620 00ea 03D9     		bls	.L35
 200:directions.c  ****             /* Fail-safe: bail out even if encoders misbehave */
 201:directions.c  ****             finish_and_release(p_dir);
 621              		.loc 1 201 0
 622 00ec 7868     		ldr	r0, [r7, #4]
 623 00ee FFF7FEFF 		bl	finish_and_release
 202:directions.c  ****             break;
 624              		.loc 1 202 0
 625 00f2 14E0     		b	.L32
 626              	.L35:
 203:directions.c  ****         }
 204:directions.c  **** 
 205:directions.c  ****         /* Done? */
 206:directions.c  ****         if (s_acc_ticks >= s_target_ticks) {
 627              		.loc 1 206 0
 628 00f4 114B     		ldr	r3, .L40+20
 629 00f6 1A68     		ldr	r2, [r3]
 630 00f8 0F4B     		ldr	r3, .L40+16
 631 00fa 1B68     		ldr	r3, [r3]
 632 00fc 9A42     		cmp	r2, r3
 633 00fe 0DDB     		blt	.L39
 207:directions.c  ****             s_state = DIR_FINISH;
 634              		.loc 1 207 0
 635 0100 094B     		ldr	r3, .L40
ARM GAS  C:\Users\ylee818\AppData\Local\Temp\cc7o0S2R.s 			page 16


 636 0102 0322     		movs	r2, #3
 637 0104 1A70     		strb	r2, [r3]
 208:directions.c  ****         }
 209:directions.c  ****         break;
 638              		.loc 1 209 0
 639 0106 09E0     		b	.L39
 640              	.L24:
 210:directions.c  **** 
 211:directions.c  ****     case DIR_FINISH:
 212:directions.c  ****         /* One last stop; then release to straight */
 213:directions.c  ****         finish_and_release(p_dir);
 641              		.loc 1 213 0
 642 0108 7868     		ldr	r0, [r7, #4]
 643 010a FFF7FEFF 		bl	finish_and_release
 214:directions.c  ****         break;
 644              		.loc 1 214 0
 645 010e 06E0     		b	.L32
 646              	.L37:
 215:directions.c  **** 
 216:directions.c  ****     default:
 217:directions.c  ****         /* Shouldn’t happen, but recover gracefully */
 218:directions.c  ****         finish_and_release(p_dir);
 647              		.loc 1 218 0
 648 0110 7868     		ldr	r0, [r7, #4]
 649 0112 FFF7FEFF 		bl	finish_and_release
 219:directions.c  ****         break;
 650              		.loc 1 219 0
 651 0116 02E0     		b	.L32
 652              	.L38:
 186:directions.c  **** 
 653              		.loc 1 186 0
 654 0118 00BF     		nop
 655 011a 00E0     		b	.L32
 656              	.L39:
 209:directions.c  **** 
 657              		.loc 1 209 0
 658 011c 00BF     		nop
 659              	.L32:
 220:directions.c  ****     }
 221:directions.c  **** }
 660              		.loc 1 221 0
 661 011e 00BF     		nop
 662 0120 1037     		adds	r7, r7, #16
 663              		.cfi_def_cfa_offset 8
 664 0122 BD46     		mov	sp, r7
 665              		.cfi_def_cfa_register 13
 666              		@ sp needed
 667 0124 80BD     		pop	{r7, pc}
 668              	.L41:
 669 0126 00BF     		.align	2
 670              	.L40:
 671 0128 00000000 		.word	s_state
 672 012c 01000000 		.word	s_turn_side
 673 0130 00000000 		.word	TICKS_90_LEFT
 674 0134 04000000 		.word	TICKS_90_RIGHT
 675 0138 04000000 		.word	s_target_ticks
 676 013c 08000000 		.word	s_acc_ticks
ARM GAS  C:\Users\ylee818\AppData\Local\Temp\cc7o0S2R.s 			page 17


 677 0140 0C000000 		.word	s_safety_count
 678              		.cfi_endproc
 679              	.LFE70:
 680              		.size	Directions_Handle, .-Directions_Handle
 681              		.text
 682              	.Letext0:
 683              		.file 2 "c:\\program files (x86)\\cypress\\psoc creator\\4.2\\psoc creator\\import\\gnu\\arm\\5.4.
 684              		.file 3 "c:\\program files (x86)\\cypress\\psoc creator\\4.2\\psoc creator\\import\\gnu\\arm\\5.4.
 685              		.file 4 "Generated_Source\\PSoC5/core_cm3.h"