ARM GAS  C:\Users\ylee818\AppData\Local\Temp\cc4MBcPI.s 			page 1


   1              		.syntax unified
   2              		.cpu cortex-m3
   3              		.fpu softvfp
   4              		.eabi_attribute 20, 1
   5              		.eabi_attribute 21, 1
   6              		.eabi_attribute 23, 3
   7              		.eabi_attribute 24, 1
   8              		.eabi_attribute 25, 1
   9              		.eabi_attribute 26, 1
  10              		.eabi_attribute 30, 6
  11              		.eabi_attribute 34, 1
  12              		.eabi_attribute 18, 4
  13              		.thumb
  14              		.syntax unified
  15              		.file	"motor_s.c"
  16              		.text
  17              	.Ltext0:
  18              		.cfi_sections	.debug_frame
  19              		.section	.text.clamp100,"ax",%progbits
  20              		.align	2
  21              		.global	clamp100
  22              		.thumb
  23              		.thumb_func
  24              		.type	clamp100, %function
  25              	clamp100:
  26              	.LFB63:
  27              		.file 1 "motor_s.c"
   1:motor_s.c     **** #include "motor_s.h"
   2:motor_s.c     **** 
   3:motor_s.c     **** /* RIGHT_TRIM_PERCENT가 다른 헤더/파일에 있으면 그 값을 사용.
   4:motor_s.c     ****  * 없으면 0(트림 없음)으로 처리.
   5:motor_s.c     ****  */
   6:motor_s.c     **** #ifndef RIGHT_TRIM_PERCENT
   7:motor_s.c     **** #define RIGHT_TRIM_PERCENT   (-7)
   8:motor_s.c     **** #endif
   9:motor_s.c     **** 
  10:motor_s.c     **** int clamp100(int x){
  28              		.loc 1 10 0
  29              		.cfi_startproc
  30              		@ args = 0, pretend = 0, frame = 8
  31              		@ frame_needed = 1, uses_anonymous_args = 0
  32              		@ link register save eliminated.
  33 0000 80B4     		push	{r7}
  34              		.cfi_def_cfa_offset 4
  35              		.cfi_offset 7, -4
  36 0002 83B0     		sub	sp, sp, #12
  37              		.cfi_def_cfa_offset 16
  38 0004 00AF     		add	r7, sp, #0
  39              		.cfi_def_cfa_register 7
  40 0006 7860     		str	r0, [r7, #4]
  11:motor_s.c     ****     if (x > 100) return 100;
  41              		.loc 1 11 0
  42 0008 7B68     		ldr	r3, [r7, #4]
  43 000a 642B     		cmp	r3, #100
  44 000c 01DD     		ble	.L2
  45              		.loc 1 11 0 is_stmt 0 discriminator 1
  46 000e 6423     		movs	r3, #100
ARM GAS  C:\Users\ylee818\AppData\Local\Temp\cc4MBcPI.s 			page 2


  47 0010 07E0     		b	.L3
  48              	.L2:
  12:motor_s.c     ****     if (x < -100) return -100;
  49              		.loc 1 12 0 is_stmt 1
  50 0012 7B68     		ldr	r3, [r7, #4]
  51 0014 13F1640F 		cmn	r3, #100
  52 0018 02DA     		bge	.L4
  53              		.loc 1 12 0 is_stmt 0 discriminator 1
  54 001a 6FF06303 		mvn	r3, #99
  55 001e 00E0     		b	.L3
  56              	.L4:
  13:motor_s.c     ****     return x;
  57              		.loc 1 13 0 is_stmt 1
  58 0020 7B68     		ldr	r3, [r7, #4]
  59              	.L3:
  14:motor_s.c     **** }
  60              		.loc 1 14 0
  61 0022 1846     		mov	r0, r3
  62 0024 0C37     		adds	r7, r7, #12
  63              		.cfi_def_cfa_offset 4
  64 0026 BD46     		mov	sp, r7
  65              		.cfi_def_cfa_register 13
  66              		@ sp needed
  67 0028 80BC     		pop	{r7}
  68              		.cfi_restore 7
  69              		.cfi_def_cfa_offset 0
  70 002a 7047     		bx	lr
  71              		.cfi_endproc
  72              	.LFE63:
  73              		.size	clamp100, .-clamp100
  74              		.section	.text.duty_to_compare,"ax",%progbits
  75              		.align	2
  76              		.global	duty_to_compare
  77              		.thumb
  78              		.thumb_func
  79              		.type	duty_to_compare, %function
  80              	duty_to_compare:
  81              	.LFB64:
  15:motor_s.c     **** 
  16:motor_s.c     **** uint16 duty_to_compare(int s){
  82              		.loc 1 16 0
  83              		.cfi_startproc
  84              		@ args = 0, pretend = 0, frame = 8
  85              		@ frame_needed = 1, uses_anonymous_args = 0
  86              		@ link register save eliminated.
  87 0000 80B4     		push	{r7}
  88              		.cfi_def_cfa_offset 4
  89              		.cfi_offset 7, -4
  90 0002 83B0     		sub	sp, sp, #12
  91              		.cfi_def_cfa_offset 16
  92 0004 00AF     		add	r7, sp, #0
  93              		.cfi_def_cfa_register 7
  94 0006 7860     		str	r0, [r7, #4]
  17:motor_s.c     ****     if (s < -100) s = -100;
  95              		.loc 1 17 0
  96 0008 7B68     		ldr	r3, [r7, #4]
  97 000a 13F1640F 		cmn	r3, #100
ARM GAS  C:\Users\ylee818\AppData\Local\Temp\cc4MBcPI.s 			page 3


  98 000e 02DA     		bge	.L6
  99              		.loc 1 17 0 is_stmt 0 discriminator 1
 100 0010 6FF06303 		mvn	r3, #99
 101 0014 7B60     		str	r3, [r7, #4]
 102              	.L6:
  18:motor_s.c     ****     if (s >  100) s =  100;
 103              		.loc 1 18 0 is_stmt 1
 104 0016 7B68     		ldr	r3, [r7, #4]
 105 0018 642B     		cmp	r3, #100
 106 001a 01DD     		ble	.L7
 107              		.loc 1 18 0 is_stmt 0 discriminator 1
 108 001c 6423     		movs	r3, #100
 109 001e 7B60     		str	r3, [r7, #4]
 110              	.L7:
  19:motor_s.c     ****     /* PWM Period의 중앙을 0%로 보고, ±로 오프셋 */
  20:motor_s.c     ****     return (uint16)((PWM_PERIOD/2) + ((int32)PWM_PERIOD * s)/200);
 111              		.loc 1 20 0 is_stmt 1
 112 0020 7B68     		ldr	r3, [r7, #4]
 113 0022 C822     		movs	r2, #200
 114 0024 02FB03F3 		mul	r3, r2, r3
 115 0028 064A     		ldr	r2, .L9
 116 002a 82FB0312 		smull	r1, r2, r2, r3
 117 002e 9211     		asrs	r2, r2, #6
 118 0030 DB17     		asrs	r3, r3, #31
 119 0032 D31A     		subs	r3, r2, r3
 120 0034 9BB2     		uxth	r3, r3
 121 0036 6433     		adds	r3, r3, #100
 122 0038 9BB2     		uxth	r3, r3
  21:motor_s.c     **** }
 123              		.loc 1 21 0
 124 003a 1846     		mov	r0, r3
 125 003c 0C37     		adds	r7, r7, #12
 126              		.cfi_def_cfa_offset 4
 127 003e BD46     		mov	sp, r7
 128              		.cfi_def_cfa_register 13
 129              		@ sp needed
 130 0040 80BC     		pop	{r7}
 131              		.cfi_restore 7
 132              		.cfi_def_cfa_offset 0
 133 0042 7047     		bx	lr
 134              	.L10:
 135              		.align	2
 136              	.L9:
 137 0044 1F85EB51 		.word	1374389535
 138              		.cfi_endproc
 139              	.LFE64:
 140              		.size	duty_to_compare, .-duty_to_compare
 141              		.section	.text.motor_enable,"ax",%progbits
 142              		.align	2
 143              		.global	motor_enable
 144              		.thumb
 145              		.thumb_func
 146              		.type	motor_enable, %function
 147              	motor_enable:
 148              	.LFB65:
  22:motor_s.c     **** 
  23:motor_s.c     **** void motor_enable(uint8 m1_disable, uint8 m2_disable){
ARM GAS  C:\Users\ylee818\AppData\Local\Temp\cc4MBcPI.s 			page 4


 149              		.loc 1 23 0
 150              		.cfi_startproc
 151              		@ args = 0, pretend = 0, frame = 16
 152              		@ frame_needed = 1, uses_anonymous_args = 0
 153 0000 80B5     		push	{r7, lr}
 154              		.cfi_def_cfa_offset 8
 155              		.cfi_offset 7, -8
 156              		.cfi_offset 14, -4
 157 0002 84B0     		sub	sp, sp, #16
 158              		.cfi_def_cfa_offset 24
 159 0004 00AF     		add	r7, sp, #0
 160              		.cfi_def_cfa_register 7
 161 0006 0346     		mov	r3, r0
 162 0008 0A46     		mov	r2, r1
 163 000a FB71     		strb	r3, [r7, #7]
 164 000c 1346     		mov	r3, r2
 165 000e BB71     		strb	r3, [r7, #6]
  24:motor_s.c     ****     uint8 v = 0;
 166              		.loc 1 24 0
 167 0010 0023     		movs	r3, #0
 168 0012 FB73     		strb	r3, [r7, #15]
  25:motor_s.c     ****     CyDelay(10);
 169              		.loc 1 25 0
 170 0014 0A20     		movs	r0, #10
 171 0016 FFF7FEFF 		bl	CyDelay
  26:motor_s.c     ****     if (m1_disable) v |= 0x01;  /* bit0 -> M1_D1 (HIGH=disable) */
 172              		.loc 1 26 0
 173 001a FB79     		ldrb	r3, [r7, #7]	@ zero_extendqisi2
 174 001c 002B     		cmp	r3, #0
 175 001e 03D0     		beq	.L12
 176              		.loc 1 26 0 is_stmt 0 discriminator 1
 177 0020 FB7B     		ldrb	r3, [r7, #15]
 178 0022 43F00103 		orr	r3, r3, #1
 179 0026 FB73     		strb	r3, [r7, #15]
 180              	.L12:
  27:motor_s.c     ****     if (m2_disable) v |= 0x02;  /* bit1 -> M2_D1 (HIGH=disable) */
 181              		.loc 1 27 0 is_stmt 1
 182 0028 BB79     		ldrb	r3, [r7, #6]	@ zero_extendqisi2
 183 002a 002B     		cmp	r3, #0
 184 002c 03D0     		beq	.L13
 185              		.loc 1 27 0 is_stmt 0 discriminator 1
 186 002e FB7B     		ldrb	r3, [r7, #15]
 187 0030 43F00203 		orr	r3, r3, #2
 188 0034 FB73     		strb	r3, [r7, #15]
 189              	.L13:
  28:motor_s.c     ****     CONTROL_Write(v);
 190              		.loc 1 28 0 is_stmt 1
 191 0036 FB7B     		ldrb	r3, [r7, #15]	@ zero_extendqisi2
 192 0038 1846     		mov	r0, r3
 193 003a FFF7FEFF 		bl	CONTROL_Write
  29:motor_s.c     **** }
 194              		.loc 1 29 0
 195 003e 00BF     		nop
 196 0040 1037     		adds	r7, r7, #16
 197              		.cfi_def_cfa_offset 8
 198 0042 BD46     		mov	sp, r7
 199              		.cfi_def_cfa_register 13
ARM GAS  C:\Users\ylee818\AppData\Local\Temp\cc4MBcPI.s 			page 5


 200              		@ sp needed
 201 0044 80BD     		pop	{r7, pc}
 202              		.cfi_endproc
 203              	.LFE65:
 204              		.size	motor_enable, .-motor_enable
 205 0046 00BF     		.section	.text.apply_right_trim,"ax",%progbits
 206              		.align	2
 207              		.global	apply_right_trim
 208              		.thumb
 209              		.thumb_func
 210              		.type	apply_right_trim, %function
 211              	apply_right_trim:
 212              	.LFB66:
  30:motor_s.c     **** 
  31:motor_s.c     **** int apply_right_trim(int duty){
 213              		.loc 1 31 0
 214              		.cfi_startproc
 215              		@ args = 0, pretend = 0, frame = 16
 216              		@ frame_needed = 1, uses_anonymous_args = 0
 217              		@ link register save eliminated.
 218 0000 80B4     		push	{r7}
 219              		.cfi_def_cfa_offset 4
 220              		.cfi_offset 7, -4
 221 0002 85B0     		sub	sp, sp, #20
 222              		.cfi_def_cfa_offset 24
 223 0004 00AF     		add	r7, sp, #0
 224              		.cfi_def_cfa_register 7
 225 0006 7860     		str	r0, [r7, #4]
  32:motor_s.c     ****     /* RIGHT_TRIM_PERCENT: 음수면 오른쪽 강화(네 기존 로직 유지) */
  33:motor_s.c     ****     int32_t scaled = ((int32_t)duty * (100 - RIGHT_TRIM_PERCENT)) / 100;
 226              		.loc 1 33 0
 227 0008 7B68     		ldr	r3, [r7, #4]
 228 000a 6B22     		movs	r2, #107
 229 000c 02FB03F3 		mul	r3, r2, r3
 230 0010 064A     		ldr	r2, .L16
 231 0012 82FB0312 		smull	r1, r2, r2, r3
 232 0016 5211     		asrs	r2, r2, #5
 233 0018 DB17     		asrs	r3, r3, #31
 234 001a D31A     		subs	r3, r2, r3
 235 001c FB60     		str	r3, [r7, #12]
  34:motor_s.c     ****     return (int)scaled;
 236              		.loc 1 34 0
 237 001e FB68     		ldr	r3, [r7, #12]
  35:motor_s.c     **** }
 238              		.loc 1 35 0
 239 0020 1846     		mov	r0, r3
 240 0022 1437     		adds	r7, r7, #20
 241              		.cfi_def_cfa_offset 4
 242 0024 BD46     		mov	sp, r7
 243              		.cfi_def_cfa_register 13
 244              		@ sp needed
 245 0026 80BC     		pop	{r7}
 246              		.cfi_restore 7
 247              		.cfi_def_cfa_offset 0
 248 0028 7047     		bx	lr
 249              	.L17:
 250 002a 00BF     		.align	2
ARM GAS  C:\Users\ylee818\AppData\Local\Temp\cc4MBcPI.s 			page 6


 251              	.L16:
 252 002c 1F85EB51 		.word	1374389535
 253              		.cfi_endproc
 254              	.LFE66:
 255              		.size	apply_right_trim, .-apply_right_trim
 256              		.section	.text.set_motors_symmetric,"ax",%progbits
 257              		.align	2
 258              		.global	set_motors_symmetric
 259              		.thumb
 260              		.thumb_func
 261              		.type	set_motors_symmetric, %function
 262              	set_motors_symmetric:
 263              	.LFB67:
  36:motor_s.c     **** 
  37:motor_s.c     **** void set_motors_symmetric(int duty){
 264              		.loc 1 37 0
 265              		.cfi_startproc
 266              		@ args = 0, pretend = 0, frame = 8
 267              		@ frame_needed = 1, uses_anonymous_args = 0
 268 0000 80B5     		push	{r7, lr}
 269              		.cfi_def_cfa_offset 8
 270              		.cfi_offset 7, -8
 271              		.cfi_offset 14, -4
 272 0002 82B0     		sub	sp, sp, #8
 273              		.cfi_def_cfa_offset 16
 274 0004 00AF     		add	r7, sp, #0
 275              		.cfi_def_cfa_register 7
 276 0006 7860     		str	r0, [r7, #4]
  38:motor_s.c     ****     duty = clamp100(duty);
 277              		.loc 1 38 0
 278 0008 7868     		ldr	r0, [r7, #4]
 279 000a FFF7FEFF 		bl	clamp100
 280 000e 7860     		str	r0, [r7, #4]
  39:motor_s.c     ****     PWM_1_WriteCompare(duty_to_compare(RIGHT_MOTOR_SIGN * duty));
 281              		.loc 1 39 0
 282 0010 7B68     		ldr	r3, [r7, #4]
 283 0012 5B42     		negs	r3, r3
 284 0014 1846     		mov	r0, r3
 285 0016 FFF7FEFF 		bl	duty_to_compare
 286 001a 0346     		mov	r3, r0
 287 001c DBB2     		uxtb	r3, r3
 288 001e 1846     		mov	r0, r3
 289 0020 FFF7FEFF 		bl	PWM_1_WriteCompare
  40:motor_s.c     ****     PWM_2_WriteCompare(duty_to_compare(LEFT_MOTOR_SIGN  * duty));
 290              		.loc 1 40 0
 291 0024 7868     		ldr	r0, [r7, #4]
 292 0026 FFF7FEFF 		bl	duty_to_compare
 293 002a 0346     		mov	r3, r0
 294 002c DBB2     		uxtb	r3, r3
 295 002e 1846     		mov	r0, r3
 296 0030 FFF7FEFF 		bl	PWM_2_WriteCompare
  41:motor_s.c     **** }
 297              		.loc 1 41 0
 298 0034 00BF     		nop
 299 0036 0837     		adds	r7, r7, #8
 300              		.cfi_def_cfa_offset 8
 301 0038 BD46     		mov	sp, r7
ARM GAS  C:\Users\ylee818\AppData\Local\Temp\cc4MBcPI.s 			page 7


 302              		.cfi_def_cfa_register 13
 303              		@ sp needed
 304 003a 80BD     		pop	{r7, pc}
 305              		.cfi_endproc
 306              	.LFE67:
 307              		.size	set_motors_symmetric, .-set_motors_symmetric
 308              		.section	.text.set_motors_with_trim_and_steer,"ax",%progbits
 309              		.align	2
 310              		.global	set_motors_with_trim_and_steer
 311              		.thumb
 312              		.thumb_func
 313              		.type	set_motors_with_trim_and_steer, %function
 314              	set_motors_with_trim_and_steer:
 315              	.LFB68:
  42:motor_s.c     **** 
  43:motor_s.c     **** void set_motors_with_trim_and_steer(int duty_center, int steer){
 316              		.loc 1 43 0
 317              		.cfi_startproc
 318              		@ args = 0, pretend = 0, frame = 16
 319              		@ frame_needed = 1, uses_anonymous_args = 0
 320 0000 80B5     		push	{r7, lr}
 321              		.cfi_def_cfa_offset 8
 322              		.cfi_offset 7, -8
 323              		.cfi_offset 14, -4
 324 0002 84B0     		sub	sp, sp, #16
 325              		.cfi_def_cfa_offset 24
 326 0004 00AF     		add	r7, sp, #0
 327              		.cfi_def_cfa_register 7
 328 0006 7860     		str	r0, [r7, #4]
 329 0008 3960     		str	r1, [r7]
  44:motor_s.c     ****     int duty_right = clamp100(duty_center + steer);
 330              		.loc 1 44 0
 331 000a 7A68     		ldr	r2, [r7, #4]
 332 000c 3B68     		ldr	r3, [r7]
 333 000e 1344     		add	r3, r3, r2
 334 0010 1846     		mov	r0, r3
 335 0012 FFF7FEFF 		bl	clamp100
 336 0016 F860     		str	r0, [r7, #12]
  45:motor_s.c     ****     int duty_left  = clamp100(duty_center - steer);
 337              		.loc 1 45 0
 338 0018 7A68     		ldr	r2, [r7, #4]
 339 001a 3B68     		ldr	r3, [r7]
 340 001c D31A     		subs	r3, r2, r3
 341 001e 1846     		mov	r0, r3
 342 0020 FFF7FEFF 		bl	clamp100
 343 0024 B860     		str	r0, [r7, #8]
  46:motor_s.c     **** 
  47:motor_s.c     ****     /* 오른쪽만 트림 */
  48:motor_s.c     ****     duty_right = clamp100(apply_right_trim(duty_right));
 344              		.loc 1 48 0
 345 0026 F868     		ldr	r0, [r7, #12]
 346 0028 FFF7FEFF 		bl	apply_right_trim
 347 002c 0346     		mov	r3, r0
 348 002e 1846     		mov	r0, r3
 349 0030 FFF7FEFF 		bl	clamp100
 350 0034 F860     		str	r0, [r7, #12]
  49:motor_s.c     **** 
ARM GAS  C:\Users\ylee818\AppData\Local\Temp\cc4MBcPI.s 			page 8


  50:motor_s.c     ****     /* 전진 구간에서 최소 듀티 보장 */
  51:motor_s.c     ****     if (duty_center > 0) {
 351              		.loc 1 51 0
 352 0036 7B68     		ldr	r3, [r7, #4]
 353 0038 002B     		cmp	r3, #0
 354 003a 0FDD     		ble	.L20
  52:motor_s.c     ****         if (duty_right > 0 && duty_right < MIN_WHEEL_DUTY_R) duty_right = MIN_WHEEL_DUTY_R;
 355              		.loc 1 52 0
 356 003c FB68     		ldr	r3, [r7, #12]
 357 003e 002B     		cmp	r3, #0
 358 0040 04DD     		ble	.L21
 359              		.loc 1 52 0 is_stmt 0 discriminator 1
 360 0042 FB68     		ldr	r3, [r7, #12]
 361 0044 0E2B     		cmp	r3, #14
 362 0046 01DC     		bgt	.L21
 363              		.loc 1 52 0 discriminator 2
 364 0048 0F23     		movs	r3, #15
 365 004a FB60     		str	r3, [r7, #12]
 366              	.L21:
  53:motor_s.c     ****         if (duty_left  > 0 && duty_left  < MIN_WHEEL_DUTY_L) duty_left  = MIN_WHEEL_DUTY_L;
 367              		.loc 1 53 0 is_stmt 1
 368 004c BB68     		ldr	r3, [r7, #8]
 369 004e 002B     		cmp	r3, #0
 370 0050 04DD     		ble	.L20
 371              		.loc 1 53 0 is_stmt 0 discriminator 1
 372 0052 BB68     		ldr	r3, [r7, #8]
 373 0054 0E2B     		cmp	r3, #14
 374 0056 01DC     		bgt	.L20
 375              		.loc 1 53 0 discriminator 2
 376 0058 0F23     		movs	r3, #15
 377 005a BB60     		str	r3, [r7, #8]
 378              	.L20:
  54:motor_s.c     ****     }
  55:motor_s.c     **** 
  56:motor_s.c     ****     PWM_1_WriteCompare(duty_to_compare(RIGHT_MOTOR_SIGN * duty_right));
 379              		.loc 1 56 0 is_stmt 1
 380 005c FB68     		ldr	r3, [r7, #12]
 381 005e 5B42     		negs	r3, r3
 382 0060 1846     		mov	r0, r3
 383 0062 FFF7FEFF 		bl	duty_to_compare
 384 0066 0346     		mov	r3, r0
 385 0068 DBB2     		uxtb	r3, r3
 386 006a 1846     		mov	r0, r3
 387 006c FFF7FEFF 		bl	PWM_1_WriteCompare
  57:motor_s.c     ****     PWM_2_WriteCompare(duty_to_compare(LEFT_MOTOR_SIGN  * duty_left ));
 388              		.loc 1 57 0
 389 0070 B868     		ldr	r0, [r7, #8]
 390 0072 FFF7FEFF 		bl	duty_to_compare
 391 0076 0346     		mov	r3, r0
 392 0078 DBB2     		uxtb	r3, r3
 393 007a 1846     		mov	r0, r3
 394 007c FFF7FEFF 		bl	PWM_2_WriteCompare
  58:motor_s.c     **** }
 395              		.loc 1 58 0
 396 0080 00BF     		nop
 397 0082 1037     		adds	r7, r7, #16
 398              		.cfi_def_cfa_offset 8
ARM GAS  C:\Users\ylee818\AppData\Local\Temp\cc4MBcPI.s 			page 9


 399 0084 BD46     		mov	sp, r7
 400              		.cfi_def_cfa_register 13
 401              		@ sp needed
 402 0086 80BD     		pop	{r7, pc}
 403              		.cfi_endproc
 404              	.LFE68:
 405              		.size	set_motors_with_trim_and_steer, .-set_motors_with_trim_and_steer
 406              		.global	__aeabi_i2f
 407              		.global	__aeabi_fmul
 408              		.global	__aeabi_fadd
 409              		.global	__aeabi_fcmpgt
 410              		.global	__aeabi_fcmplt
 411              		.global	__aeabi_f2iz
 412              		.section	.text.dyn_brake_duty,"ax",%progbits
 413              		.align	2
 414              		.global	dyn_brake_duty
 415              		.thumb
 416              		.thumb_func
 417              		.type	dyn_brake_duty, %function
 418              	dyn_brake_duty:
 419              	.LFB69:
  59:motor_s.c     **** 
  60:motor_s.c     **** int dyn_brake_duty(int32_t v_mm_s_filt){
 420              		.loc 1 60 0
 421              		.cfi_startproc
 422              		@ args = 0, pretend = 0, frame = 16
 423              		@ frame_needed = 1, uses_anonymous_args = 0
 424 0000 80B5     		push	{r7, lr}
 425              		.cfi_def_cfa_offset 8
 426              		.cfi_offset 7, -8
 427              		.cfi_offset 14, -4
 428 0002 84B0     		sub	sp, sp, #16
 429              		.cfi_def_cfa_offset 24
 430 0004 00AF     		add	r7, sp, #0
 431              		.cfi_def_cfa_register 7
 432 0006 7860     		str	r0, [r7, #4]
  61:motor_s.c     ****     /* 속도 크기에 따라 브레이크 듀티 가변 (네 v4 공식 그대로) */
  62:motor_s.c     ****     int32_t spd = (v_mm_s_filt >= 0) ? v_mm_s_filt : -v_mm_s_filt;
 433              		.loc 1 62 0
 434 0008 7B68     		ldr	r3, [r7, #4]
 435 000a 002B     		cmp	r3, #0
 436 000c B8BF     		it	lt
 437 000e 5B42     		rsblt	r3, r3, #0
 438 0010 BB60     		str	r3, [r7, #8]
  63:motor_s.c     ****     float d = (float)BRAKE_DUTY_MIN + BRAKE_DUTY_PER_MM_S * (float)spd;
 439              		.loc 1 63 0
 440 0012 B868     		ldr	r0, [r7, #8]
 441 0014 FFF7FEFF 		bl	__aeabi_i2f
 442 0018 0346     		mov	r3, r0
 443 001a 1649     		ldr	r1, .L30
 444 001c 1846     		mov	r0, r3
 445 001e FFF7FEFF 		bl	__aeabi_fmul
 446 0022 0346     		mov	r3, r0
 447 0024 1449     		ldr	r1, .L30+4
 448 0026 1846     		mov	r0, r3
 449 0028 FFF7FEFF 		bl	__aeabi_fadd
 450 002c 0346     		mov	r3, r0
ARM GAS  C:\Users\ylee818\AppData\Local\Temp\cc4MBcPI.s 			page 10


 451 002e FB60     		str	r3, [r7, #12]	@ float
  64:motor_s.c     ****     if (d > BRAKE_DUTY_MAX) d = BRAKE_DUTY_MAX;
 452              		.loc 1 64 0
 453 0030 1249     		ldr	r1, .L30+8
 454 0032 F868     		ldr	r0, [r7, #12]	@ float
 455 0034 FFF7FEFF 		bl	__aeabi_fcmpgt
 456 0038 0346     		mov	r3, r0
 457 003a 002B     		cmp	r3, #0
 458 003c 01D0     		beq	.L23
 459              		.loc 1 64 0 is_stmt 0 discriminator 1
 460 003e 0F4B     		ldr	r3, .L30+8
 461 0040 FB60     		str	r3, [r7, #12]	@ float
 462              	.L23:
  65:motor_s.c     ****     if (d < 0) d = 0;
 463              		.loc 1 65 0 is_stmt 1
 464 0042 4FF00001 		mov	r1, #0
 465 0046 F868     		ldr	r0, [r7, #12]	@ float
 466 0048 FFF7FEFF 		bl	__aeabi_fcmplt
 467 004c 0346     		mov	r3, r0
 468 004e 002B     		cmp	r3, #0
 469 0050 02D0     		beq	.L25
 470              		.loc 1 65 0 is_stmt 0 discriminator 1
 471 0052 4FF00003 		mov	r3, #0
 472 0056 FB60     		str	r3, [r7, #12]	@ float
 473              	.L25:
  66:motor_s.c     ****     return (int)(d + 0.5f);
 474              		.loc 1 66 0 is_stmt 1
 475 0058 4FF07C51 		mov	r1, #1056964608
 476 005c F868     		ldr	r0, [r7, #12]	@ float
 477 005e FFF7FEFF 		bl	__aeabi_fadd
 478 0062 0346     		mov	r3, r0
 479 0064 1846     		mov	r0, r3
 480 0066 FFF7FEFF 		bl	__aeabi_f2iz
 481 006a 0346     		mov	r3, r0
  67:motor_s.c     **** }
 482              		.loc 1 67 0
 483 006c 1846     		mov	r0, r3
 484 006e 1037     		adds	r7, r7, #16
 485              		.cfi_def_cfa_offset 8
 486 0070 BD46     		mov	sp, r7
 487              		.cfi_def_cfa_register 13
 488              		@ sp needed
 489 0072 80BD     		pop	{r7, pc}
 490              	.L31:
 491              		.align	2
 492              	.L30:
 493 0074 295C0F3D 		.word	1024416809
 494 0078 0000F041 		.word	1106247680
 495 007c 00005C42 		.word	1113325568
 496              		.cfi_endproc
 497              	.LFE69:
 498              		.size	dyn_brake_duty, .-dyn_brake_duty
 499              		.text
 500              	.Letext0:
 501              		.file 2 "c:\\program files (x86)\\cypress\\psoc creator\\4.2\\psoc creator\\import\\gnu\\arm\\5.4.
 502              		.file 3 "c:\\program files (x86)\\cypress\\psoc creator\\4.2\\psoc creator\\import\\gnu\\arm\\5.4.
 503              		.file 4 "Generated_Source\\PSoC5/cytypes.h"
ARM GAS  C:\Users\ylee818\AppData\Local\Temp\cc4MBcPI.s 			page 11


 504              		.file 5 "Generated_Source\\PSoC5/core_cm3.h"