ARM GAS  C:\Users\yram171\AppData\Local\Temp\ccpHUZLe.s 			page 1


   1              		.syntax unified
   2              		.cpu cortex-m3
   3              		.fpu softvfp
   4              		.eabi_attribute 20, 1
   5              		.eabi_attribute 21, 1
   6              		.eabi_attribute 23, 3
   7              		.eabi_attribute 24, 1
   8              		.eabi_attribute 25, 1
   9              		.eabi_attribute 26, 1
  10              		.eabi_attribute 30, 6
  11              		.eabi_attribute 34, 1
  12              		.eabi_attribute 18, 4
  13              		.thumb
  14              		.syntax unified
  15              		.file	"directions.c"
  16              		.text
  17              	.Ltext0:
  18              		.cfi_sections	.debug_frame
  19              		.data
  20              		.align	2
  21              		.type	TICKS_90_LEFT, %object
  22              		.size	TICKS_90_LEFT, 4
  23              	TICKS_90_LEFT:
  24 0000 5A000000 		.word	90
  25              		.align	2
  26              		.type	TICKS_90_RIGHT, %object
  27              		.size	TICKS_90_RIGHT, 4
  28              	TICKS_90_RIGHT:
  29 0004 5A000000 		.word	90
  30              		.bss
  31              	s_state:
  32 0000 00       		.space	1
  33              	s_turn_side:
  34 0001 00       		.space	1
  35 0002 0000     		.align	2
  36              	s_target_ticks:
  37 0004 00000000 		.space	4
  38              		.align	2
  39              	s_acc_ticks:
  40 0008 00000000 		.space	4
  41              		.align	1
  42              	s_safety_count:
  43 000c 0000     		.space	2
  44              		.section	.text.enc_resume_background,"ax",%progbits
  45              		.align	2
  46              		.thumb
  47              		.thumb_func
  48              		.type	enc_resume_background, %function
  49              	enc_resume_background:
  50              	.LFB63:
  51              		.file 1 "directions.c"
   1:directions.c  **** #include <project.h>
   2:directions.c  **** #include <stdint.h>
   3:directions.c  **** #include <stdbool.h>
   4:directions.c  **** 
   5:directions.c  **** #include "directions.h"
   6:directions.c  **** #include "motor_s.h"     // set_motors_symmetric(), set_motors_with_trim_and_steer(), motor_enable
ARM GAS  C:\Users\yram171\AppData\Local\Temp\ccpHUZLe.s 			page 2


   7:directions.c  **** #include "defines.h"     // your project-wide defines
   8:directions.c  **** 
   9:directions.c  **** /* ===================== Tunables ===================== */
  10:directions.c  **** /* Encoder counts for ~90° pivots (tune on your tape) */
  11:directions.c  **** static volatile int32_t TICKS_90_LEFT  = 90;   /* abs(|ΔL|)+abs(|ΔR|) */
  12:directions.c  **** static volatile int32_t TICKS_90_RIGHT = 90;
  13:directions.c  **** 
  14:directions.c  **** /* Pivot speed (%) — keep modest to avoid overshoot */
  15:directions.c  **** // Side-specific pivot speeds (percent duty)
  16:directions.c  **** #define PIVOT_SPEED_L         25   // left turn speed
  17:directions.c  **** #define PIVOT_SPEED_R         26   // right turn speed
  18:directions.c  **** #define PIVOT_SPEED_U         48   // U turn speed
  19:directions.c  **** #define STOP_BEFORE_MS        100
  20:directions.c  **** #define BRAKE_AFTER_MS        1000
  21:directions.c  **** 
  22:directions.c  **** /* Safety: max number of handler calls allowed while turning.
  23:directions.c  ****  * With your ~8 ms loop this is ~3.2 s (400 * 8 ms) which is plenty. */
  24:directions.c  **** #define MAX_TURN_HANDLER_TICKS  28
  25:directions.c  **** //uint16_t MAX_TURN;
  26:directions.c  **** 
  27:directions.c  **** /* ===================== Internal state ===================== */
  28:directions.c  **** typedef enum {
  29:directions.c  ****     DIR_IDLE = 0,
  30:directions.c  ****     DIR_PREP,
  31:directions.c  ****     DIR_TURNING,
  32:directions.c  ****     DIR_FINISH
  33:directions.c  **** } dir_state_t;
  34:directions.c  **** 
  35:directions.c  **** static dir_state_t s_state = DIR_IDLE;
  36:directions.c  **** static uint8_t     s_turn_side = 0;        /* 1 = left, 2 = right */
  37:directions.c  **** static int32_t     s_target_ticks = 0;     /* goal = ~90° */
  38:directions.c  **** static int32_t     s_acc_ticks    = 0;     /* running sum of |ΔL|+|ΔR| */
  39:directions.c  **** static uint16_t    s_safety_count = 0;
  40:directions.c  **** 
  41:directions.c  **** /* ---------------- Encoder helpers ----------------
  42:directions.c  ****  * We pause your background 5 ms encoder task while we own the counters,
  43:directions.c  ****  * so our deltas don't get zeroed behind our back.
  44:directions.c  ****  */
  45:directions.c  **** /*static inline void enc_pause_background(void)
  46:directions.c  **** {
  47:directions.c  **** #if defined(Timer_QD_Stop)
  48:directions.c  ****     Timer_QD_Stop();
  49:directions.c  **** #endif
  50:directions.c  **** #if defined(isr_qd_Disable)
  51:directions.c  ****     isr_qd_Disable();
  52:directions.c  **** #endif
  53:directions.c  **** } */
  54:directions.c  **** 
  55:directions.c  **** static inline void enc_resume_background(void)
  56:directions.c  **** {
  52              		.loc 1 56 0
  53              		.cfi_startproc
  54              		@ args = 0, pretend = 0, frame = 0
  55              		@ frame_needed = 1, uses_anonymous_args = 0
  56              		@ link register save eliminated.
  57 0000 80B4     		push	{r7}
  58              		.cfi_def_cfa_offset 4
ARM GAS  C:\Users\yram171\AppData\Local\Temp\ccpHUZLe.s 			page 3


  59              		.cfi_offset 7, -4
  60 0002 00AF     		add	r7, sp, #0
  61              		.cfi_def_cfa_register 7
  57:directions.c  **** #if defined(isr_qd_Enable)
  58:directions.c  ****     isr_qd_Enable();
  59:directions.c  **** #endif
  60:directions.c  **** #if defined(Timer_QD_Start)
  61:directions.c  ****     Timer_QD_Start();
  62:directions.c  **** #endif
  63:directions.c  **** }
  62              		.loc 1 63 0
  63 0004 00BF     		nop
  64 0006 BD46     		mov	sp, r7
  65              		.cfi_def_cfa_register 13
  66              		@ sp needed
  67 0008 80BC     		pop	{r7}
  68              		.cfi_restore 7
  69              		.cfi_def_cfa_offset 0
  70 000a 7047     		bx	lr
  71              		.cfi_endproc
  72              	.LFE63:
  73              		.size	enc_resume_background, .-enc_resume_background
  74              		.section	.text.enc_reset_local,"ax",%progbits
  75              		.align	2
  76              		.thumb
  77              		.thumb_func
  78              		.type	enc_reset_local, %function
  79              	enc_reset_local:
  80              	.LFB64:
  64:directions.c  **** 
  65:directions.c  **** static inline void enc_reset_local(void)
  66:directions.c  **** {
  81              		.loc 1 66 0
  82              		.cfi_startproc
  83              		@ args = 0, pretend = 0, frame = 0
  84              		@ frame_needed = 1, uses_anonymous_args = 0
  85              		@ link register save eliminated.
  86 0000 80B4     		push	{r7}
  87              		.cfi_def_cfa_offset 4
  88              		.cfi_offset 7, -4
  89 0002 00AF     		add	r7, sp, #0
  90              		.cfi_def_cfa_register 7
  67:directions.c  **** #if defined(QuadDec_M1_SetCounter) && defined(QuadDec_M2_SetCounter)
  68:directions.c  ****     QuadDec_M1_SetCounter(0);
  69:directions.c  ****     QuadDec_M2_SetCounter(0);
  70:directions.c  **** #endif
  71:directions.c  ****     s_acc_ticks = 0;
  91              		.loc 1 71 0
  92 0004 034B     		ldr	r3, .L3
  93 0006 0022     		movs	r2, #0
  94 0008 1A60     		str	r2, [r3]
  72:directions.c  **** }
  95              		.loc 1 72 0
  96 000a 00BF     		nop
  97 000c BD46     		mov	sp, r7
  98              		.cfi_def_cfa_register 13
  99              		@ sp needed
ARM GAS  C:\Users\yram171\AppData\Local\Temp\ccpHUZLe.s 			page 4


 100 000e 80BC     		pop	{r7}
 101              		.cfi_restore 7
 102              		.cfi_def_cfa_offset 0
 103 0010 7047     		bx	lr
 104              	.L4:
 105 0012 00BF     		.align	2
 106              	.L3:
 107 0014 08000000 		.word	s_acc_ticks
 108              		.cfi_endproc
 109              	.LFE64:
 110              		.size	enc_reset_local, .-enc_reset_local
 111              		.section	.text.enc_accumulate_now,"ax",%progbits
 112              		.align	2
 113              		.thumb
 114              		.thumb_func
 115              		.type	enc_accumulate_now, %function
 116              	enc_accumulate_now:
 117              	.LFB65:
  73:directions.c  **** 
  74:directions.c  **** /* Accumulate |ΔL| + |ΔR| since last call, then zero counters */
  75:directions.c  **** static inline void enc_accumulate_now(void)
  76:directions.c  **** {
 118              		.loc 1 76 0
 119              		.cfi_startproc
 120              		@ args = 0, pretend = 0, frame = 8
 121              		@ frame_needed = 1, uses_anonymous_args = 0
 122              		@ link register save eliminated.
 123 0000 80B4     		push	{r7}
 124              		.cfi_def_cfa_offset 4
 125              		.cfi_offset 7, -4
 126 0002 83B0     		sub	sp, sp, #12
 127              		.cfi_def_cfa_offset 16
 128 0004 00AF     		add	r7, sp, #0
 129              		.cfi_def_cfa_register 7
  77:directions.c  ****     int32_t dL = 0, dR = 0;
 130              		.loc 1 77 0
 131 0006 0023     		movs	r3, #0
 132 0008 7B60     		str	r3, [r7, #4]
 133 000a 0023     		movs	r3, #0
 134 000c 3B60     		str	r3, [r7]
  78:directions.c  **** #if defined(QuadDec_M1_GetCounter) && defined(QuadDec_M2_GetCounter)
  79:directions.c  ****     dL = QuadDec_M1_GetCounter();
  80:directions.c  ****     dR = QuadDec_M2_GetCounter();
  81:directions.c  ****     QuadDec_M1_SetCounter(0);
  82:directions.c  ****     QuadDec_M2_SetCounter(0);
  83:directions.c  **** #endif
  84:directions.c  ****     if (dL < 0) dL = -dL;
 135              		.loc 1 84 0
 136 000e 7B68     		ldr	r3, [r7, #4]
 137 0010 002B     		cmp	r3, #0
 138 0012 02DA     		bge	.L6
 139              		.loc 1 84 0 is_stmt 0 discriminator 1
 140 0014 7B68     		ldr	r3, [r7, #4]
 141 0016 5B42     		negs	r3, r3
 142 0018 7B60     		str	r3, [r7, #4]
 143              	.L6:
  85:directions.c  ****     if (dR < 0) dR = -dR;
ARM GAS  C:\Users\yram171\AppData\Local\Temp\ccpHUZLe.s 			page 5


 144              		.loc 1 85 0 is_stmt 1
 145 001a 3B68     		ldr	r3, [r7]
 146 001c 002B     		cmp	r3, #0
 147 001e 02DA     		bge	.L7
 148              		.loc 1 85 0 is_stmt 0 discriminator 1
 149 0020 3B68     		ldr	r3, [r7]
 150 0022 5B42     		negs	r3, r3
 151 0024 3B60     		str	r3, [r7]
 152              	.L7:
  86:directions.c  ****     s_acc_ticks += (dL + dR);
 153              		.loc 1 86 0 is_stmt 1
 154 0026 7A68     		ldr	r2, [r7, #4]
 155 0028 3B68     		ldr	r3, [r7]
 156 002a 1A44     		add	r2, r2, r3
 157 002c 044B     		ldr	r3, .L8
 158 002e 1B68     		ldr	r3, [r3]
 159 0030 1344     		add	r3, r3, r2
 160 0032 034A     		ldr	r2, .L8
 161 0034 1360     		str	r3, [r2]
  87:directions.c  **** }
 162              		.loc 1 87 0
 163 0036 00BF     		nop
 164 0038 0C37     		adds	r7, r7, #12
 165              		.cfi_def_cfa_offset 4
 166 003a BD46     		mov	sp, r7
 167              		.cfi_def_cfa_register 13
 168              		@ sp needed
 169 003c 80BC     		pop	{r7}
 170              		.cfi_restore 7
 171              		.cfi_def_cfa_offset 0
 172 003e 7047     		bx	lr
 173              	.L9:
 174              		.align	2
 175              	.L8:
 176 0040 08000000 		.word	s_acc_ticks
 177              		.cfi_endproc
 178              	.LFE65:
 179              		.size	enc_accumulate_now, .-enc_accumulate_now
 180              		.section	.text.pivot_left_speed,"ax",%progbits
 181              		.align	2
 182              		.thumb
 183              		.thumb_func
 184              		.type	pivot_left_speed, %function
 185              	pivot_left_speed:
 186              	.LFB66:
  88:directions.c  **** 
  89:directions.c  **** /* ---------------- Motor helpers (spin-in-place) ----------------
  90:directions.c  ****  * If your hardware can’t reverse, change these to skid turns:
  91:directions.c  ****  *  - left:  left=0,  right=+PIVOT_SPEED_PC
  92:directions.c  ****  *  - right: left=+PIVOT_SPEED_PC, right=0
  93:directions.c  ****  */
  94:directions.c  **** static void pivot_left_speed(void)
  95:directions.c  **** {
 187              		.loc 1 95 0
 188              		.cfi_startproc
 189              		@ args = 0, pretend = 0, frame = 24
 190              		@ frame_needed = 1, uses_anonymous_args = 0
ARM GAS  C:\Users\yram171\AppData\Local\Temp\ccpHUZLe.s 			page 6


 191 0000 80B5     		push	{r7, lr}
 192              		.cfi_def_cfa_offset 8
 193              		.cfi_offset 7, -8
 194              		.cfi_offset 14, -4
 195 0002 86B0     		sub	sp, sp, #24
 196              		.cfi_def_cfa_offset 32
 197 0004 00AF     		add	r7, sp, #0
 198              		.cfi_def_cfa_register 7
  96:directions.c  ****     const int pct = PIVOT_SPEED_L;
 199              		.loc 1 96 0
 200 0006 1923     		movs	r3, #25
 201 0008 7B61     		str	r3, [r7, #20]
  97:directions.c  ****     int L = -pct;   // reverse
 202              		.loc 1 97 0
 203 000a 7B69     		ldr	r3, [r7, #20]
 204 000c 5B42     		negs	r3, r3
 205 000e 3B61     		str	r3, [r7, #16]
  98:directions.c  ****     int R = +pct;   // forward
 206              		.loc 1 98 0
 207 0010 7B69     		ldr	r3, [r7, #20]
 208 0012 FB60     		str	r3, [r7, #12]
  99:directions.c  ****     int base  = (L + R) / 2;
 209              		.loc 1 99 0
 210 0014 3A69     		ldr	r2, [r7, #16]
 211 0016 FB68     		ldr	r3, [r7, #12]
 212 0018 1344     		add	r3, r3, r2
 213 001a DA0F     		lsrs	r2, r3, #31
 214 001c 1344     		add	r3, r3, r2
 215 001e 5B10     		asrs	r3, r3, #1
 216 0020 BB60     		str	r3, [r7, #8]
 100:directions.c  ****     int steer = (R - L) / 2;
 217              		.loc 1 100 0
 218 0022 FA68     		ldr	r2, [r7, #12]
 219 0024 3B69     		ldr	r3, [r7, #16]
 220 0026 D31A     		subs	r3, r2, r3
 221 0028 DA0F     		lsrs	r2, r3, #31
 222 002a 1344     		add	r3, r3, r2
 223 002c 5B10     		asrs	r3, r3, #1
 224 002e 7B60     		str	r3, [r7, #4]
 101:directions.c  ****     set_motors_with_trim_and_steer(base, steer);
 225              		.loc 1 101 0
 226 0030 7968     		ldr	r1, [r7, #4]
 227 0032 B868     		ldr	r0, [r7, #8]
 228 0034 FFF7FEFF 		bl	set_motors_with_trim_and_steer
 102:directions.c  **** }
 229              		.loc 1 102 0
 230 0038 00BF     		nop
 231 003a 1837     		adds	r7, r7, #24
 232              		.cfi_def_cfa_offset 8
 233 003c BD46     		mov	sp, r7
 234              		.cfi_def_cfa_register 13
 235              		@ sp needed
 236 003e 80BD     		pop	{r7, pc}
 237              		.cfi_endproc
 238              	.LFE66:
 239              		.size	pivot_left_speed, .-pivot_left_speed
 240              		.section	.text.pivot_right_speed,"ax",%progbits
ARM GAS  C:\Users\yram171\AppData\Local\Temp\ccpHUZLe.s 			page 7


 241              		.align	2
 242              		.thumb
 243              		.thumb_func
 244              		.type	pivot_right_speed, %function
 245              	pivot_right_speed:
 246              	.LFB67:
 103:directions.c  **** 
 104:directions.c  **** static void pivot_right_speed(void)
 105:directions.c  **** {
 247              		.loc 1 105 0
 248              		.cfi_startproc
 249              		@ args = 0, pretend = 0, frame = 24
 250              		@ frame_needed = 1, uses_anonymous_args = 0
 251 0000 80B5     		push	{r7, lr}
 252              		.cfi_def_cfa_offset 8
 253              		.cfi_offset 7, -8
 254              		.cfi_offset 14, -4
 255 0002 86B0     		sub	sp, sp, #24
 256              		.cfi_def_cfa_offset 32
 257 0004 00AF     		add	r7, sp, #0
 258              		.cfi_def_cfa_register 7
 106:directions.c  ****     const int pct = PIVOT_SPEED_R;
 259              		.loc 1 106 0
 260 0006 1A23     		movs	r3, #26
 261 0008 7B61     		str	r3, [r7, #20]
 107:directions.c  ****     int L = +pct;
 262              		.loc 1 107 0
 263 000a 7B69     		ldr	r3, [r7, #20]
 264 000c 3B61     		str	r3, [r7, #16]
 108:directions.c  ****     int R = -pct;
 265              		.loc 1 108 0
 266 000e 7B69     		ldr	r3, [r7, #20]
 267 0010 5B42     		negs	r3, r3
 268 0012 FB60     		str	r3, [r7, #12]
 109:directions.c  ****     int base  = (L + R) / 2;
 269              		.loc 1 109 0
 270 0014 3A69     		ldr	r2, [r7, #16]
 271 0016 FB68     		ldr	r3, [r7, #12]
 272 0018 1344     		add	r3, r3, r2
 273 001a DA0F     		lsrs	r2, r3, #31
 274 001c 1344     		add	r3, r3, r2
 275 001e 5B10     		asrs	r3, r3, #1
 276 0020 BB60     		str	r3, [r7, #8]
 110:directions.c  ****     int steer = (R - L) / 2;
 277              		.loc 1 110 0
 278 0022 FA68     		ldr	r2, [r7, #12]
 279 0024 3B69     		ldr	r3, [r7, #16]
 280 0026 D31A     		subs	r3, r2, r3
 281 0028 DA0F     		lsrs	r2, r3, #31
 282 002a 1344     		add	r3, r3, r2
 283 002c 5B10     		asrs	r3, r3, #1
 284 002e 7B60     		str	r3, [r7, #4]
 111:directions.c  ****     set_motors_with_trim_and_steer(base, steer);
 285              		.loc 1 111 0
 286 0030 7968     		ldr	r1, [r7, #4]
 287 0032 B868     		ldr	r0, [r7, #8]
 288 0034 FFF7FEFF 		bl	set_motors_with_trim_and_steer
ARM GAS  C:\Users\yram171\AppData\Local\Temp\ccpHUZLe.s 			page 8


 112:directions.c  **** }
 289              		.loc 1 112 0
 290 0038 00BF     		nop
 291 003a 1837     		adds	r7, r7, #24
 292              		.cfi_def_cfa_offset 8
 293 003c BD46     		mov	sp, r7
 294              		.cfi_def_cfa_register 13
 295              		@ sp needed
 296 003e 80BD     		pop	{r7, pc}
 297              		.cfi_endproc
 298              	.LFE67:
 299              		.size	pivot_right_speed, .-pivot_right_speed
 300              		.section	.text.pivot_uturn_speed,"ax",%progbits
 301              		.align	2
 302              		.thumb
 303              		.thumb_func
 304              		.type	pivot_uturn_speed, %function
 305              	pivot_uturn_speed:
 306              	.LFB68:
 113:directions.c  **** 
 114:directions.c  **** static void pivot_uturn_speed(void)
 115:directions.c  **** {
 307              		.loc 1 115 0
 308              		.cfi_startproc
 309              		@ args = 0, pretend = 0, frame = 24
 310              		@ frame_needed = 1, uses_anonymous_args = 0
 311 0000 80B5     		push	{r7, lr}
 312              		.cfi_def_cfa_offset 8
 313              		.cfi_offset 7, -8
 314              		.cfi_offset 14, -4
 315 0002 86B0     		sub	sp, sp, #24
 316              		.cfi_def_cfa_offset 32
 317 0004 00AF     		add	r7, sp, #0
 318              		.cfi_def_cfa_register 7
 116:directions.c  ****     const int pct = PIVOT_SPEED_U;
 319              		.loc 1 116 0
 320 0006 3023     		movs	r3, #48
 321 0008 7B61     		str	r3, [r7, #20]
 117:directions.c  ****     int L = +pct;
 322              		.loc 1 117 0
 323 000a 7B69     		ldr	r3, [r7, #20]
 324 000c 3B61     		str	r3, [r7, #16]
 118:directions.c  ****     int R = -pct;
 325              		.loc 1 118 0
 326 000e 7B69     		ldr	r3, [r7, #20]
 327 0010 5B42     		negs	r3, r3
 328 0012 FB60     		str	r3, [r7, #12]
 119:directions.c  ****     int base  = (L + R) / 2;
 329              		.loc 1 119 0
 330 0014 3A69     		ldr	r2, [r7, #16]
 331 0016 FB68     		ldr	r3, [r7, #12]
 332 0018 1344     		add	r3, r3, r2
 333 001a DA0F     		lsrs	r2, r3, #31
 334 001c 1344     		add	r3, r3, r2
 335 001e 5B10     		asrs	r3, r3, #1
 336 0020 BB60     		str	r3, [r7, #8]
 120:directions.c  ****     int steer = (R - L) / 2;
ARM GAS  C:\Users\yram171\AppData\Local\Temp\ccpHUZLe.s 			page 9


 337              		.loc 1 120 0
 338 0022 FA68     		ldr	r2, [r7, #12]
 339 0024 3B69     		ldr	r3, [r7, #16]
 340 0026 D31A     		subs	r3, r2, r3
 341 0028 DA0F     		lsrs	r2, r3, #31
 342 002a 1344     		add	r3, r3, r2
 343 002c 5B10     		asrs	r3, r3, #1
 344 002e 7B60     		str	r3, [r7, #4]
 121:directions.c  ****     set_motors_with_trim_and_steer(base, steer);
 345              		.loc 1 121 0
 346 0030 7968     		ldr	r1, [r7, #4]
 347 0032 B868     		ldr	r0, [r7, #8]
 348 0034 FFF7FEFF 		bl	set_motors_with_trim_and_steer
 122:directions.c  **** }
 349              		.loc 1 122 0
 350 0038 00BF     		nop
 351 003a 1837     		adds	r7, r7, #24
 352              		.cfi_def_cfa_offset 8
 353 003c BD46     		mov	sp, r7
 354              		.cfi_def_cfa_register 13
 355              		@ sp needed
 356 003e 80BD     		pop	{r7, pc}
 357              		.cfi_endproc
 358              	.LFE68:
 359              		.size	pivot_uturn_speed, .-pivot_uturn_speed
 360              		.section	.text.finish_and_release,"ax",%progbits
 361              		.align	2
 362              		.thumb
 363              		.thumb_func
 364              		.type	finish_and_release, %function
 365              	finish_and_release:
 366              	.LFB69:
 123:directions.c  **** 
 124:directions.c  **** 
 125:directions.c  **** /* Ensure we always exit cleanly and release to straight */
 126:directions.c  **** static void finish_and_release(volatile uint8_t* p_dir)
 127:directions.c  **** {
 367              		.loc 1 127 0
 368              		.cfi_startproc
 369              		@ args = 0, pretend = 0, frame = 8
 370              		@ frame_needed = 1, uses_anonymous_args = 0
 371 0000 80B5     		push	{r7, lr}
 372              		.cfi_def_cfa_offset 8
 373              		.cfi_offset 7, -8
 374              		.cfi_offset 14, -4
 375 0002 82B0     		sub	sp, sp, #8
 376              		.cfi_def_cfa_offset 16
 377 0004 00AF     		add	r7, sp, #0
 378              		.cfi_def_cfa_register 7
 379 0006 7860     		str	r0, [r7, #4]
 128:directions.c  ****     /* Give counters back to the background task */
 129:directions.c  ****     enc_resume_background();
 380              		.loc 1 129 0
 381 0008 FFF7FEFF 		bl	enc_resume_background
 130:directions.c  ****     enc_reset_local();
 382              		.loc 1 130 0
 383 000c FFF7FEFF 		bl	enc_reset_local
ARM GAS  C:\Users\yram171\AppData\Local\Temp\ccpHUZLe.s 			page 10


 131:directions.c  **** 
 132:directions.c  ****     /* Release to straight and reset our state machine */
 133:directions.c  ****     if (p_dir) *p_dir = 0u;
 384              		.loc 1 133 0
 385 0010 7B68     		ldr	r3, [r7, #4]
 386 0012 002B     		cmp	r3, #0
 387 0014 02D0     		beq	.L14
 388              		.loc 1 133 0 is_stmt 0 discriminator 1
 389 0016 7B68     		ldr	r3, [r7, #4]
 390 0018 0022     		movs	r2, #0
 391 001a 1A70     		strb	r2, [r3]
 392              	.L14:
 134:directions.c  ****     s_state = DIR_IDLE;
 393              		.loc 1 134 0 is_stmt 1
 394 001c 134B     		ldr	r3, .L15
 395 001e 0022     		movs	r2, #0
 396 0020 1A70     		strb	r2, [r3]
 135:directions.c  ****     s_turn_side = 0u;
 397              		.loc 1 135 0
 398 0022 134B     		ldr	r3, .L15+4
 399 0024 0022     		movs	r2, #0
 400 0026 1A70     		strb	r2, [r3]
 136:directions.c  ****     s_target_ticks = 0;
 401              		.loc 1 136 0
 402 0028 124B     		ldr	r3, .L15+8
 403 002a 0022     		movs	r2, #0
 404 002c 1A60     		str	r2, [r3]
 137:directions.c  ****     s_acc_ticks = 0;
 405              		.loc 1 137 0
 406 002e 124B     		ldr	r3, .L15+12
 407 0030 0022     		movs	r2, #0
 408 0032 1A60     		str	r2, [r3]
 138:directions.c  ****     s_safety_count = 0;
 409              		.loc 1 138 0
 410 0034 114B     		ldr	r3, .L15+16
 411 0036 0022     		movs	r2, #0
 412 0038 1A80     		strh	r2, [r3]	@ movhi
 139:directions.c  ****     
 140:directions.c  ****     /* Stop motion and brief brake/coast window */
 141:directions.c  ****     
 142:directions.c  ****     set_motors_symmetric(0); 
 413              		.loc 1 142 0
 414 003a 0020     		movs	r0, #0
 415 003c FFF7FEFF 		bl	set_motors_symmetric
 143:directions.c  ****     CyDelay(BRAKE_AFTER_MS);
 416              		.loc 1 143 0
 417 0040 4FF47A70 		mov	r0, #1000
 418 0044 FFF7FEFF 		bl	CyDelay
 144:directions.c  ****     set_motors_symmetric(0);
 419              		.loc 1 144 0
 420 0048 0020     		movs	r0, #0
 421 004a FFF7FEFF 		bl	set_motors_symmetric
 145:directions.c  **** 
 146:directions.c  ****     set_motors_with_trim_and_steer(100,8);
 422              		.loc 1 146 0
 423 004e 0821     		movs	r1, #8
 424 0050 6420     		movs	r0, #100
ARM GAS  C:\Users\yram171\AppData\Local\Temp\ccpHUZLe.s 			page 11


 425 0052 FFF7FEFF 		bl	set_motors_with_trim_and_steer
 147:directions.c  ****     CyDelay(40);
 426              		.loc 1 147 0
 427 0056 2820     		movs	r0, #40
 428 0058 FFF7FEFF 		bl	CyDelay
 148:directions.c  ****     set_motors_symmetric(0); 
 429              		.loc 1 148 0
 430 005c 0020     		movs	r0, #0
 431 005e FFF7FEFF 		bl	set_motors_symmetric
 149:directions.c  **** }
 432              		.loc 1 149 0
 433 0062 00BF     		nop
 434 0064 0837     		adds	r7, r7, #8
 435              		.cfi_def_cfa_offset 8
 436 0066 BD46     		mov	sp, r7
 437              		.cfi_def_cfa_register 13
 438              		@ sp needed
 439 0068 80BD     		pop	{r7, pc}
 440              	.L16:
 441 006a 00BF     		.align	2
 442              	.L15:
 443 006c 00000000 		.word	s_state
 444 0070 01000000 		.word	s_turn_side
 445 0074 04000000 		.word	s_target_ticks
 446 0078 08000000 		.word	s_acc_ticks
 447 007c 0C000000 		.word	s_safety_count
 448              		.cfi_endproc
 449              	.LFE69:
 450              		.size	finish_and_release, .-finish_and_release
 451              		.section	.text.Directions_Init,"ax",%progbits
 452              		.align	2
 453              		.global	Directions_Init
 454              		.thumb
 455              		.thumb_func
 456              		.type	Directions_Init, %function
 457              	Directions_Init:
 458              	.LFB70:
 150:directions.c  **** 
 151:directions.c  **** /* ======================= Public API ======================= */
 152:directions.c  **** 
 153:directions.c  **** void Directions_Init(void)
 154:directions.c  **** {
 459              		.loc 1 154 0
 460              		.cfi_startproc
 461              		@ args = 0, pretend = 0, frame = 0
 462              		@ frame_needed = 1, uses_anonymous_args = 0
 463              		@ link register save eliminated.
 464 0000 80B4     		push	{r7}
 465              		.cfi_def_cfa_offset 4
 466              		.cfi_offset 7, -4
 467 0002 00AF     		add	r7, sp, #0
 468              		.cfi_def_cfa_register 7
 155:directions.c  ****     s_state = DIR_IDLE;
 469              		.loc 1 155 0
 470 0004 094B     		ldr	r3, .L18
 471 0006 0022     		movs	r2, #0
 472 0008 1A70     		strb	r2, [r3]
ARM GAS  C:\Users\yram171\AppData\Local\Temp\ccpHUZLe.s 			page 12


 156:directions.c  ****     s_turn_side = 0u;
 473              		.loc 1 156 0
 474 000a 094B     		ldr	r3, .L18+4
 475 000c 0022     		movs	r2, #0
 476 000e 1A70     		strb	r2, [r3]
 157:directions.c  ****     s_target_ticks = 0;
 477              		.loc 1 157 0
 478 0010 084B     		ldr	r3, .L18+8
 479 0012 0022     		movs	r2, #0
 480 0014 1A60     		str	r2, [r3]
 158:directions.c  ****     s_acc_ticks = 0;
 481              		.loc 1 158 0
 482 0016 084B     		ldr	r3, .L18+12
 483 0018 0022     		movs	r2, #0
 484 001a 1A60     		str	r2, [r3]
 159:directions.c  ****     s_safety_count = 0;
 485              		.loc 1 159 0
 486 001c 074B     		ldr	r3, .L18+16
 487 001e 0022     		movs	r2, #0
 488 0020 1A80     		strh	r2, [r3]	@ movhi
 160:directions.c  **** }
 489              		.loc 1 160 0
 490 0022 00BF     		nop
 491 0024 BD46     		mov	sp, r7
 492              		.cfi_def_cfa_register 13
 493              		@ sp needed
 494 0026 80BC     		pop	{r7}
 495              		.cfi_restore 7
 496              		.cfi_def_cfa_offset 0
 497 0028 7047     		bx	lr
 498              	.L19:
 499 002a 00BF     		.align	2
 500              	.L18:
 501 002c 00000000 		.word	s_state
 502 0030 01000000 		.word	s_turn_side
 503 0034 04000000 		.word	s_target_ticks
 504 0038 08000000 		.word	s_acc_ticks
 505 003c 0C000000 		.word	s_safety_count
 506              		.cfi_endproc
 507              	.LFE70:
 508              		.size	Directions_Init, .-Directions_Init
 509              		.section	.text.Directions_Handle,"ax",%progbits
 510              		.align	2
 511              		.global	Directions_Handle
 512              		.thumb
 513              		.thumb_func
 514              		.type	Directions_Handle, %function
 515              	Directions_Handle:
 516              	.LFB71:
 161:directions.c  **** 
 162:directions.c  **** void Directions_Handle(volatile uint8_t* p_dir)
 163:directions.c  **** {
 517              		.loc 1 163 0
 518              		.cfi_startproc
 519              		@ args = 0, pretend = 0, frame = 16
 520              		@ frame_needed = 1, uses_anonymous_args = 0
 521 0000 80B5     		push	{r7, lr}
ARM GAS  C:\Users\yram171\AppData\Local\Temp\ccpHUZLe.s 			page 13


 522              		.cfi_def_cfa_offset 8
 523              		.cfi_offset 7, -8
 524              		.cfi_offset 14, -4
 525 0002 84B0     		sub	sp, sp, #16
 526              		.cfi_def_cfa_offset 24
 527 0004 00AF     		add	r7, sp, #0
 528              		.cfi_def_cfa_register 7
 529 0006 7860     		str	r0, [r7, #4]
 164:directions.c  ****     const uint8_t req = (p_dir ? *p_dir : 0u);
 530              		.loc 1 164 0
 531 0008 7B68     		ldr	r3, [r7, #4]
 532 000a 002B     		cmp	r3, #0
 533 000c 03D0     		beq	.L21
 534              		.loc 1 164 0 is_stmt 0 discriminator 1
 535 000e 7B68     		ldr	r3, [r7, #4]
 536 0010 1B78     		ldrb	r3, [r3]
 537 0012 DBB2     		uxtb	r3, r3
 538 0014 00E0     		b	.L22
 539              	.L21:
 540              		.loc 1 164 0 discriminator 2
 541 0016 0023     		movs	r3, #0
 542              	.L22:
 543              		.loc 1 164 0 discriminator 4
 544 0018 FB73     		strb	r3, [r7, #15]
 165:directions.c  **** 
 166:directions.c  ****     switch (s_state)
 545              		.loc 1 166 0 is_stmt 1 discriminator 4
 546 001a 5C4B     		ldr	r3, .L45
 547 001c 1B78     		ldrb	r3, [r3]	@ zero_extendqisi2
 548 001e 022B     		cmp	r3, #2
 549 0020 77D0     		beq	.L24
 550 0022 032B     		cmp	r3, #3
 551 0024 00F0A380 		beq	.L25
 552 0028 002B     		cmp	r3, #0
 553 002a 40F0A480 		bne	.L42
 167:directions.c  ****     {
 168:directions.c  ****     case DIR_IDLE:
 169:directions.c  ****         if (req == 1u) {
 554              		.loc 1 169 0
 555 002e FB7B     		ldrb	r3, [r7, #15]	@ zero_extendqisi2
 556 0030 012B     		cmp	r3, #1
 557 0032 22D1     		bne	.L27
 170:directions.c  ****             /* Stop, settle, pause encoders, zero counters */
 171:directions.c  ****             set_motors_symmetric(0);
 558              		.loc 1 171 0
 559 0034 0020     		movs	r0, #0
 560 0036 FFF7FEFF 		bl	set_motors_symmetric
 172:directions.c  ****             motor_enable(0u, 0u);
 561              		.loc 1 172 0
 562 003a 0021     		movs	r1, #0
 563 003c 0020     		movs	r0, #0
 564 003e FFF7FEFF 		bl	motor_enable
 173:directions.c  ****             CyDelay(STOP_BEFORE_MS);
 565              		.loc 1 173 0
 566 0042 6420     		movs	r0, #100
 567 0044 FFF7FEFF 		bl	CyDelay
 174:directions.c  **** 
ARM GAS  C:\Users\yram171\AppData\Local\Temp\ccpHUZLe.s 			page 14


 175:directions.c  ****             //enc_pause_background();
 176:directions.c  ****             enc_reset_local();
 568              		.loc 1 176 0
 569 0048 FFF7FEFF 		bl	enc_reset_local
 177:directions.c  **** 
 178:directions.c  ****             s_turn_side = req; /* latch side */
 570              		.loc 1 178 0
 571 004c 504A     		ldr	r2, .L45+4
 572 004e FB7B     		ldrb	r3, [r7, #15]
 573 0050 1370     		strb	r3, [r2]
 179:directions.c  ****             s_target_ticks = (req == 1u) ? TICKS_90_LEFT : TICKS_90_RIGHT;
 574              		.loc 1 179 0
 575 0052 FB7B     		ldrb	r3, [r7, #15]	@ zero_extendqisi2
 576 0054 012B     		cmp	r3, #1
 577 0056 02D1     		bne	.L28
 578              		.loc 1 179 0 is_stmt 0 discriminator 1
 579 0058 4E4B     		ldr	r3, .L45+8
 580 005a 1B68     		ldr	r3, [r3]
 581 005c 01E0     		b	.L29
 582              	.L28:
 583              		.loc 1 179 0 discriminator 2
 584 005e 4E4B     		ldr	r3, .L45+12
 585 0060 1B68     		ldr	r3, [r3]
 586              	.L29:
 587              		.loc 1 179 0 discriminator 4
 588 0062 4E4A     		ldr	r2, .L45+16
 589 0064 1360     		str	r3, [r2]
 180:directions.c  ****             s_acc_ticks = 0;
 590              		.loc 1 180 0 is_stmt 1 discriminator 4
 591 0066 4E4B     		ldr	r3, .L45+20
 592 0068 0022     		movs	r2, #0
 593 006a 1A60     		str	r2, [r3]
 181:directions.c  ****             s_safety_count = 0;
 594              		.loc 1 181 0 discriminator 4
 595 006c 4D4B     		ldr	r3, .L45+24
 596 006e 0022     		movs	r2, #0
 597 0070 1A80     		strh	r2, [r3]	@ movhi
 182:directions.c  ****             s_state = DIR_TURNING;
 598              		.loc 1 182 0 discriminator 4
 599 0072 464B     		ldr	r3, .L45
 600 0074 0222     		movs	r2, #2
 601 0076 1A70     		strb	r2, [r3]
 183:directions.c  ****         } else if (req == 2u) {
 184:directions.c  ****             /* Stop, settle, pause encoders, zero counters */
 185:directions.c  ****             set_motors_symmetric(0);
 186:directions.c  ****             motor_enable(0u, 0u);
 187:directions.c  ****             CyDelay(STOP_BEFORE_MS);
 188:directions.c  **** 
 189:directions.c  ****             //enc_pause_background();
 190:directions.c  ****             enc_reset_local();
 191:directions.c  **** 
 192:directions.c  ****             s_turn_side = req; /* latch side */
 193:directions.c  ****             s_target_ticks = (req == 1u) ? TICKS_90_LEFT : TICKS_90_RIGHT;
 194:directions.c  ****             s_acc_ticks = 0;
 195:directions.c  ****             s_safety_count = 0;
 196:directions.c  ****             s_state = DIR_TURNING;
 197:directions.c  ****         } else if (req == 3u){
ARM GAS  C:\Users\yram171\AppData\Local\Temp\ccpHUZLe.s 			page 15


 198:directions.c  ****             set_motors_symmetric(0);
 199:directions.c  ****             motor_enable(0u, 0u);
 200:directions.c  ****             CyDelay(STOP_BEFORE_MS);
 201:directions.c  **** 
 202:directions.c  ****             //enc_pause_background();
 203:directions.c  ****             enc_reset_local();
 204:directions.c  **** 
 205:directions.c  ****             s_turn_side = req; /* latch side */
 206:directions.c  ****             s_target_ticks = (req == 1u) ? TICKS_90_LEFT : TICKS_90_RIGHT;
 207:directions.c  ****             s_acc_ticks = 0;
 208:directions.c  ****             s_safety_count = 0;
 209:directions.c  ****             s_state = DIR_TURNING;
 210:directions.c  ****         }
 211:directions.c  ****         break;
 602              		.loc 1 211 0 discriminator 4
 603 0078 81E0     		b	.L43
 604              	.L27:
 183:directions.c  ****         } else if (req == 2u) {
 605              		.loc 1 183 0
 606 007a FB7B     		ldrb	r3, [r7, #15]	@ zero_extendqisi2
 607 007c 022B     		cmp	r3, #2
 608 007e 22D1     		bne	.L31
 185:directions.c  ****             motor_enable(0u, 0u);
 609              		.loc 1 185 0
 610 0080 0020     		movs	r0, #0
 611 0082 FFF7FEFF 		bl	set_motors_symmetric
 186:directions.c  ****             CyDelay(STOP_BEFORE_MS);
 612              		.loc 1 186 0
 613 0086 0021     		movs	r1, #0
 614 0088 0020     		movs	r0, #0
 615 008a FFF7FEFF 		bl	motor_enable
 187:directions.c  **** 
 616              		.loc 1 187 0
 617 008e 6420     		movs	r0, #100
 618 0090 FFF7FEFF 		bl	CyDelay
 190:directions.c  **** 
 619              		.loc 1 190 0
 620 0094 FFF7FEFF 		bl	enc_reset_local
 192:directions.c  ****             s_target_ticks = (req == 1u) ? TICKS_90_LEFT : TICKS_90_RIGHT;
 621              		.loc 1 192 0
 622 0098 3D4A     		ldr	r2, .L45+4
 623 009a FB7B     		ldrb	r3, [r7, #15]
 624 009c 1370     		strb	r3, [r2]
 193:directions.c  ****             s_acc_ticks = 0;
 625              		.loc 1 193 0
 626 009e FB7B     		ldrb	r3, [r7, #15]	@ zero_extendqisi2
 627 00a0 012B     		cmp	r3, #1
 628 00a2 02D1     		bne	.L32
 193:directions.c  ****             s_acc_ticks = 0;
 629              		.loc 1 193 0 is_stmt 0 discriminator 1
 630 00a4 3B4B     		ldr	r3, .L45+8
 631 00a6 1B68     		ldr	r3, [r3]
 632 00a8 01E0     		b	.L33
 633              	.L32:
 193:directions.c  ****             s_acc_ticks = 0;
 634              		.loc 1 193 0 discriminator 2
 635 00aa 3B4B     		ldr	r3, .L45+12
ARM GAS  C:\Users\yram171\AppData\Local\Temp\ccpHUZLe.s 			page 16


 636 00ac 1B68     		ldr	r3, [r3]
 637              	.L33:
 193:directions.c  ****             s_acc_ticks = 0;
 638              		.loc 1 193 0 discriminator 4
 639 00ae 3B4A     		ldr	r2, .L45+16
 640 00b0 1360     		str	r3, [r2]
 194:directions.c  ****             s_safety_count = 0;
 641              		.loc 1 194 0 is_stmt 1 discriminator 4
 642 00b2 3B4B     		ldr	r3, .L45+20
 643 00b4 0022     		movs	r2, #0
 644 00b6 1A60     		str	r2, [r3]
 195:directions.c  ****             s_state = DIR_TURNING;
 645              		.loc 1 195 0 discriminator 4
 646 00b8 3A4B     		ldr	r3, .L45+24
 647 00ba 0022     		movs	r2, #0
 648 00bc 1A80     		strh	r2, [r3]	@ movhi
 196:directions.c  ****         } else if (req == 3u){
 649              		.loc 1 196 0 discriminator 4
 650 00be 334B     		ldr	r3, .L45
 651 00c0 0222     		movs	r2, #2
 652 00c2 1A70     		strb	r2, [r3]
 653              		.loc 1 211 0 discriminator 4
 654 00c4 5BE0     		b	.L43
 655              	.L31:
 197:directions.c  ****             set_motors_symmetric(0);
 656              		.loc 1 197 0
 657 00c6 FB7B     		ldrb	r3, [r7, #15]	@ zero_extendqisi2
 658 00c8 032B     		cmp	r3, #3
 659 00ca 58D1     		bne	.L43
 198:directions.c  ****             motor_enable(0u, 0u);
 660              		.loc 1 198 0
 661 00cc 0020     		movs	r0, #0
 662 00ce FFF7FEFF 		bl	set_motors_symmetric
 199:directions.c  ****             CyDelay(STOP_BEFORE_MS);
 663              		.loc 1 199 0
 664 00d2 0021     		movs	r1, #0
 665 00d4 0020     		movs	r0, #0
 666 00d6 FFF7FEFF 		bl	motor_enable
 200:directions.c  **** 
 667              		.loc 1 200 0
 668 00da 6420     		movs	r0, #100
 669 00dc FFF7FEFF 		bl	CyDelay
 203:directions.c  **** 
 670              		.loc 1 203 0
 671 00e0 FFF7FEFF 		bl	enc_reset_local
 205:directions.c  ****             s_target_ticks = (req == 1u) ? TICKS_90_LEFT : TICKS_90_RIGHT;
 672              		.loc 1 205 0
 673 00e4 2A4A     		ldr	r2, .L45+4
 674 00e6 FB7B     		ldrb	r3, [r7, #15]
 675 00e8 1370     		strb	r3, [r2]
 206:directions.c  ****             s_acc_ticks = 0;
 676              		.loc 1 206 0
 677 00ea FB7B     		ldrb	r3, [r7, #15]	@ zero_extendqisi2
 678 00ec 012B     		cmp	r3, #1
 679 00ee 02D1     		bne	.L34
 206:directions.c  ****             s_acc_ticks = 0;
 680              		.loc 1 206 0 is_stmt 0 discriminator 1
ARM GAS  C:\Users\yram171\AppData\Local\Temp\ccpHUZLe.s 			page 17


 681 00f0 284B     		ldr	r3, .L45+8
 682 00f2 1B68     		ldr	r3, [r3]
 683 00f4 01E0     		b	.L35
 684              	.L34:
 206:directions.c  ****             s_acc_ticks = 0;
 685              		.loc 1 206 0 discriminator 2
 686 00f6 284B     		ldr	r3, .L45+12
 687 00f8 1B68     		ldr	r3, [r3]
 688              	.L35:
 206:directions.c  ****             s_acc_ticks = 0;
 689              		.loc 1 206 0 discriminator 4
 690 00fa 284A     		ldr	r2, .L45+16
 691 00fc 1360     		str	r3, [r2]
 207:directions.c  ****             s_safety_count = 0;
 692              		.loc 1 207 0 is_stmt 1 discriminator 4
 693 00fe 284B     		ldr	r3, .L45+20
 694 0100 0022     		movs	r2, #0
 695 0102 1A60     		str	r2, [r3]
 208:directions.c  ****             s_state = DIR_TURNING;
 696              		.loc 1 208 0 discriminator 4
 697 0104 274B     		ldr	r3, .L45+24
 698 0106 0022     		movs	r2, #0
 699 0108 1A80     		strh	r2, [r3]	@ movhi
 209:directions.c  ****         }
 700              		.loc 1 209 0 discriminator 4
 701 010a 204B     		ldr	r3, .L45
 702 010c 0222     		movs	r2, #2
 703 010e 1A70     		strb	r2, [r3]
 704              		.loc 1 211 0 discriminator 4
 705 0110 35E0     		b	.L43
 706              	.L24:
 212:directions.c  **** 
 213:directions.c  ****     case DIR_TURNING:
 214:directions.c  ****         /* Drive the pivot */
 215:directions.c  ****         if (s_turn_side == 1u) {
 707              		.loc 1 215 0
 708 0112 1F4B     		ldr	r3, .L45+4
 709 0114 1B78     		ldrb	r3, [r3]	@ zero_extendqisi2
 710 0116 012B     		cmp	r3, #1
 711 0118 02D1     		bne	.L37
 216:directions.c  ****             pivot_left_speed();
 712              		.loc 1 216 0
 713 011a FFF7FEFF 		bl	pivot_left_speed
 714 011e 0CE0     		b	.L38
 715              	.L37:
 217:directions.c  ****         } else if(s_turn_side == 2u) {
 716              		.loc 1 217 0
 717 0120 1B4B     		ldr	r3, .L45+4
 718 0122 1B78     		ldrb	r3, [r3]	@ zero_extendqisi2
 719 0124 022B     		cmp	r3, #2
 720 0126 02D1     		bne	.L39
 218:directions.c  ****             pivot_right_speed();
 721              		.loc 1 218 0
 722 0128 FFF7FEFF 		bl	pivot_right_speed
 723 012c 05E0     		b	.L38
 724              	.L39:
 219:directions.c  ****         } else if(s_turn_side == 3u) {
ARM GAS  C:\Users\yram171\AppData\Local\Temp\ccpHUZLe.s 			page 18


 725              		.loc 1 219 0
 726 012e 184B     		ldr	r3, .L45+4
 727 0130 1B78     		ldrb	r3, [r3]	@ zero_extendqisi2
 728 0132 032B     		cmp	r3, #3
 729 0134 01D1     		bne	.L38
 220:directions.c  ****             pivot_uturn_speed();
 730              		.loc 1 220 0
 731 0136 FFF7FEFF 		bl	pivot_uturn_speed
 732              	.L38:
 221:directions.c  ****         }
 222:directions.c  **** 
 223:directions.c  **** 
 224:directions.c  ****         /* Progress + safety */
 225:directions.c  ****         enc_accumulate_now();
 733              		.loc 1 225 0
 734 013a FFF7FEFF 		bl	enc_accumulate_now
 226:directions.c  ****         if (++s_safety_count > MAX_TURN_HANDLER_TICKS) {
 735              		.loc 1 226 0
 736 013e 194B     		ldr	r3, .L45+24
 737 0140 1B88     		ldrh	r3, [r3]
 738 0142 0133     		adds	r3, r3, #1
 739 0144 9AB2     		uxth	r2, r3
 740 0146 174B     		ldr	r3, .L45+24
 741 0148 1A80     		strh	r2, [r3]	@ movhi
 742 014a 164B     		ldr	r3, .L45+24
 743 014c 1B88     		ldrh	r3, [r3]
 744 014e 1C2B     		cmp	r3, #28
 745 0150 03D9     		bls	.L40
 227:directions.c  ****             /* Fail-safe: bail out even if encoders misbehave */
 228:directions.c  ****             finish_and_release(p_dir);
 746              		.loc 1 228 0
 747 0152 7868     		ldr	r0, [r7, #4]
 748 0154 FFF7FEFF 		bl	finish_and_release
 229:directions.c  ****             break;
 749              		.loc 1 229 0
 750 0158 14E0     		b	.L36
 751              	.L40:
 230:directions.c  ****         }
 231:directions.c  **** 
 232:directions.c  ****         /* Done? */
 233:directions.c  ****         if (s_acc_ticks >= s_target_ticks) {
 752              		.loc 1 233 0
 753 015a 114B     		ldr	r3, .L45+20
 754 015c 1A68     		ldr	r2, [r3]
 755 015e 0F4B     		ldr	r3, .L45+16
 756 0160 1B68     		ldr	r3, [r3]
 757 0162 9A42     		cmp	r2, r3
 758 0164 0DDB     		blt	.L44
 234:directions.c  ****             s_state = DIR_FINISH;
 759              		.loc 1 234 0
 760 0166 094B     		ldr	r3, .L45
 761 0168 0322     		movs	r2, #3
 762 016a 1A70     		strb	r2, [r3]
 235:directions.c  ****         }
 236:directions.c  ****         break;
 763              		.loc 1 236 0
 764 016c 09E0     		b	.L44
ARM GAS  C:\Users\yram171\AppData\Local\Temp\ccpHUZLe.s 			page 19


 765              	.L25:
 237:directions.c  **** 
 238:directions.c  ****     case DIR_FINISH:
 239:directions.c  ****         /* One last stop; then release to straight */
 240:directions.c  ****         finish_and_release(p_dir);
 766              		.loc 1 240 0
 767 016e 7868     		ldr	r0, [r7, #4]
 768 0170 FFF7FEFF 		bl	finish_and_release
 241:directions.c  ****         break;
 769              		.loc 1 241 0
 770 0174 06E0     		b	.L36
 771              	.L42:
 242:directions.c  **** 
 243:directions.c  ****     default:
 244:directions.c  ****         /* Shouldn’t happen, but recover gracefully */
 245:directions.c  ****         finish_and_release(p_dir);
 772              		.loc 1 245 0
 773 0176 7868     		ldr	r0, [r7, #4]
 774 0178 FFF7FEFF 		bl	finish_and_release
 246:directions.c  ****         break;
 775              		.loc 1 246 0
 776 017c 02E0     		b	.L36
 777              	.L43:
 211:directions.c  **** 
 778              		.loc 1 211 0
 779 017e 00BF     		nop
 780 0180 00E0     		b	.L36
 781              	.L44:
 236:directions.c  **** 
 782              		.loc 1 236 0
 783 0182 00BF     		nop
 784              	.L36:
 247:directions.c  ****     }
 248:directions.c  **** }...
 785              		.loc 1 248 0
 786 0184 00BF     		nop
 787 0186 1037     		adds	r7, r7, #16
 788              		.cfi_def_cfa_offset 8
 789 0188 BD46     		mov	sp, r7
 790              		.cfi_def_cfa_register 13
 791              		@ sp needed
 792 018a 80BD     		pop	{r7, pc}
 793              	.L46:
 794              		.align	2
 795              	.L45:
 796 018c 00000000 		.word	s_state
 797 0190 01000000 		.word	s_turn_side
 798 0194 00000000 		.word	TICKS_90_LEFT
 799 0198 04000000 		.word	TICKS_90_RIGHT
 800 019c 04000000 		.word	s_target_ticks
 801 01a0 08000000 		.word	s_acc_ticks
 802 01a4 0C000000 		.word	s_safety_count
 803              		.cfi_endproc
 804              	.LFE71:
 805              		.size	Directions_Handle, .-Directions_Handle
 806              		.text
 807              	.Letext0:
ARM GAS  C:\Users\yram171\AppData\Local\Temp\ccpHUZLe.s 			page 20


 808              		.file 2 "c:\\program files (x86)\\cypress\\psoc creator\\4.2\\psoc creator\\import\\gnu\\arm\\5.4.
 809              		.file 3 "c:\\program files (x86)\\cypress\\psoc creator\\4.2\\psoc creator\\import\\gnu\\arm\\5.4.
 810              		.file 4 "Generated_Source\\PSoC5/core_cm3.h"