ARM GAS  C:\Users\ylee818\AppData\Local\Temp\ccqANnic.s 			page 1


   1              		.syntax unified
   2              		.cpu cortex-m3
   3              		.fpu softvfp
   4              		.eabi_attribute 20, 1
   5              		.eabi_attribute 21, 1
   6              		.eabi_attribute 23, 3
   7              		.eabi_attribute 24, 1
   8              		.eabi_attribute 25, 1
   9              		.eabi_attribute 26, 1
  10              		.eabi_attribute 30, 6
  11              		.eabi_attribute 34, 1
  12              		.eabi_attribute 18, 4
  13              		.thumb
  14              		.syntax unified
  15              		.file	"main.c"
  16              		.text
  17              	.Ltext0:
  18              		.cfi_sections	.debug_frame
  19              		.bss
  20              	sen1_on_line:
  21 0000 00       		.space	1
  22              	sen2_on_line:
  23 0001 00       		.space	1
  24              	sen3_on_line:
  25 0002 00       		.space	1
  26              	sen4_on_line:
  27 0003 00       		.space	1
  28              	sen5_on_line:
  29 0004 00       		.space	1
  30              	sen6_on_line:
  31 0005 00       		.space	1
  32              	g_direction:
  33 0006 00       		.space	1
  34              	g_stop_now:
  35 0007 00       		.space	1
  36              		.align	2
  37              	g_dist_mm:
  38 0008 00000000 		.space	4
  39              		.align	1
  40              	dir_delay_ticks:
  41 000c 0000     		.space	2
  42              	dir_latched_side:
  43 000e 00       		.space	1
  44              		.global	__aeabi_ldivmod
  45              		.section	.text.isr_qd_Handler,"ax",%progbits
  46              		.align	2
  47              		.global	isr_qd_Handler
  48              		.thumb
  49              		.thumb_func
  50              		.type	isr_qd_Handler, %function
  51              	isr_qd_Handler:
  52              	.LFB64:
  53              		.file 1 "main.c"
   1:main.c        **** /* ========================= main.c (with PI steering + turn-call delay) =========================
   2:main.c        ****  * - Keeps straight-line PI active during a short delay after g_direction flips (Option A)
   3:main.c        ****  * - Then calls Directions_Handle(&g_direction) to run the maneuver
   4:main.c        ****  * - Resets PI integrator after the turn completes
ARM GAS  C:\Users\ylee818\AppData\Local\Temp\ccqANnic.s 			page 2


   5:main.c        ****  * ============================================================================================== *
   6:main.c        **** 
   7:main.c        **** #include <project.h>
   8:main.c        **** #include <stdint.h>
   9:main.c        **** #include <stdbool.h>
  10:main.c        **** 
  11:main.c        **** #include <sensors.h>     // Sensor_ComputePeakToPeak()
  12:main.c        **** #include "motor_s.h"     // set_motors_*, motor_enable
  13:main.c        **** #include "directions.h"  // Directions_* turning module
  14:main.c        **** 
  15:main.c        **** /* ===== Loop pacing (kept) ===== */
  16:main.c        **** #define LOOP_DT_MS               8u
  17:main.c        **** #define DT_S   ( (float)LOOP_DT_MS / 1000.0f )
  18:main.c        **** 
  19:main.c        **** /* ===== Cruise speed / distance target (kept) ===== */
  20:main.c        **** #define VMAX_CONST_MM_S        1000
  21:main.c        **** #define SPEED_FRAC_PERCENT      28
  22:main.c        **** #define V_CRUISE_MM_S  ((int32_t)VMAX_CONST_MM_S * (int32_t)SPEED_FRAC_PERCENT / 100)
  23:main.c        **** #define TARGET_DIST_MM        20000
  24:main.c        **** 
  25:main.c        **** /* ===== Encoder → mm conversion (kept) ===== */
  26:main.c        **** #define QD_SAMPLE_MS             5u
  27:main.c        **** #define CPR_OUTSHAFT           228u
  28:main.c        **** #define R_MM                    34
  29:main.c        **** #define PI_X1000              3142
  30:main.c        **** #define PERIM_MM_X1000   ((int32_t)(2 * PI_X1000 * R_MM))
  31:main.c        **** #define MM_PER_COUNT_X1000     ( PERIM_MM_X1000 / CPR_OUTSHAFT )
  32:main.c        **** #define CALIB_DIST_X1000     1500
  33:main.c        **** #define APPLY_CALIB_DIST(x)  ( (int32_t)(((int64_t)(x) * CALIB_DIST_X1000 + 500)/1000) )
  34:main.c        **** 
  35:main.c        **** /* ===== S1/S2 relaxed detection (kept) ===== */
  36:main.c        **** #define S_MINC_COUNTS            2u
  37:main.c        **** #define S_MAXC_COUNTS          450u
  38:main.c        **** #define S_HYST_COUNTS           16u
  39:main.c        **** 
  40:main.c        **** /* ===== Turn request filtering (kept) ===== */
  41:main.c        **** #define TURN_DEBOUNCE_TICKS       5u
  42:main.c        **** #define CLEAR_ARM_TICKS           4u
  43:main.c        **** 
  44:main.c        **** #define DIR_CALL_DELAY_MS        (100)  /* wait ~200 ms before starting the maneuver */
  45:main.c        **** #define DIR_CALL_DELAY_TICKS     ((DIR_CALL_DELAY_MS + LOOP_DT_MS - 1) / LOOP_DT_MS)
  46:main.c        **** 
  47:main.c        **** /* ===== Local sensor flags (used for S1/S2 edge) ===== */
  48:main.c        **** static uint8_t sen1_on_line=0, sen2_on_line=0, sen3_on_line=0;
  49:main.c        **** static uint8_t sen4_on_line=0, sen5_on_line=0, sen6_on_line=0;
  50:main.c        **** 
  51:main.c        **** /* ===== Global state (kept) ===== */
  52:main.c        **** static volatile uint8_t g_direction = 0;   /* 0=straight, 1=left, 2=right */
  53:main.c        **** static volatile uint8_t g_stop_now  = 0;
  54:main.c        **** static volatile int32_t g_dist_mm   = 0;
  55:main.c        **** 
  56:main.c        **** /* ===== Option A state ===== */
  57:main.c        **** static uint16_t dir_delay_ticks = 0;        /* countdown in loop ticks */
  58:main.c        **** static uint8_t  dir_latched_side = 0;       /* remembers 1 or 2 while waiting */
  59:main.c        **** 
  60:main.c        **** /* ------------------------------- 5 ms Timer ISR: accumulate distance (kept) ---------------------
  61:main.c        **** CY_ISR(isr_qd_Handler)
ARM GAS  C:\Users\ylee818\AppData\Local\Temp\ccqANnic.s 			page 3


  62:main.c        **** {
  54              		.loc 1 62 0
  55              		.cfi_startproc
  56              		@ args = 0, pretend = 0, frame = 72
  57              		@ frame_needed = 1, uses_anonymous_args = 0
  58 0000 2DE9F04F 		push	{r4, r5, r6, r7, r8, r9, r10, fp, lr}
  59              		.cfi_def_cfa_offset 36
  60              		.cfi_offset 4, -36
  61              		.cfi_offset 5, -32
  62              		.cfi_offset 6, -28
  63              		.cfi_offset 7, -24
  64              		.cfi_offset 8, -20
  65              		.cfi_offset 9, -16
  66              		.cfi_offset 10, -12
  67              		.cfi_offset 11, -8
  68              		.cfi_offset 14, -4
  69 0004 93B0     		sub	sp, sp, #76
  70              		.cfi_def_cfa_offset 112
  71 0006 00AF     		add	r7, sp, #0
  72              		.cfi_def_cfa_register 7
  63:main.c        ****     int32_t raw1 = QuadDec_M1_GetCounter();  QuadDec_M1_SetCounter(0);
  73              		.loc 1 63 0
  74 0008 FFF7FEFF 		bl	QuadDec_M1_GetCounter
  75 000c 0346     		mov	r3, r0
  76 000e 7B64     		str	r3, [r7, #68]
  77 0010 0020     		movs	r0, #0
  78 0012 FFF7FEFF 		bl	QuadDec_M1_SetCounter
  64:main.c        ****     int32_t raw2 = QuadDec_M2_GetCounter();  QuadDec_M2_SetCounter(0);
  79              		.loc 1 64 0
  80 0016 FFF7FEFF 		bl	QuadDec_M2_GetCounter
  81 001a 0346     		mov	r3, r0
  82 001c 3B64     		str	r3, [r7, #64]
  83 001e 0020     		movs	r0, #0
  84 0020 FFF7FEFF 		bl	QuadDec_M2_SetCounter
  65:main.c        **** 
  66:main.c        ****     int32_t d1 = raw1, d2 = raw2;
  85              		.loc 1 66 0
  86 0024 7B6C     		ldr	r3, [r7, #68]
  87 0026 FB63     		str	r3, [r7, #60]
  88 0028 3B6C     		ldr	r3, [r7, #64]
  89 002a BB63     		str	r3, [r7, #56]
  67:main.c        ****     int32_t a1 = (d1 >= 0) ? d1 : -d1;
  90              		.loc 1 67 0
  91 002c FB6B     		ldr	r3, [r7, #60]
  92 002e 002B     		cmp	r3, #0
  93 0030 B8BF     		it	lt
  94 0032 5B42     		rsblt	r3, r3, #0
  95 0034 7B63     		str	r3, [r7, #52]
  68:main.c        ****     int32_t a2 = (d2 >= 0) ? d2 : -d2;
  96              		.loc 1 68 0
  97 0036 BB6B     		ldr	r3, [r7, #56]
  98 0038 002B     		cmp	r3, #0
  99 003a B8BF     		it	lt
 100 003c 5B42     		rsblt	r3, r3, #0
 101 003e 3B63     		str	r3, [r7, #48]
  69:main.c        ****     int32_t davg_abs  = (a1 + a2) / 2;
 102              		.loc 1 69 0
ARM GAS  C:\Users\ylee818\AppData\Local\Temp\ccqANnic.s 			page 4


 103 0040 7A6B     		ldr	r2, [r7, #52]
 104 0042 3B6B     		ldr	r3, [r7, #48]
 105 0044 1344     		add	r3, r3, r2
 106 0046 DA0F     		lsrs	r2, r3, #31
 107 0048 1344     		add	r3, r3, r2
 108 004a 5B10     		asrs	r3, r3, #1
 109 004c FB62     		str	r3, [r7, #44]
  70:main.c        ****     int32_t davg_sign = ((d1 + d2) >= 0) ? +1 : -1;
 110              		.loc 1 70 0
 111 004e FA6B     		ldr	r2, [r7, #60]
 112 0050 BB6B     		ldr	r3, [r7, #56]
 113 0052 1344     		add	r3, r3, r2
 114 0054 002B     		cmp	r3, #0
 115 0056 01DB     		blt	.L2
 116              		.loc 1 70 0 is_stmt 0 discriminator 1
 117 0058 0123     		movs	r3, #1
 118 005a 01E0     		b	.L3
 119              	.L2:
 120              		.loc 1 70 0 discriminator 2
 121 005c 4FF0FF33 		mov	r3, #-1
 122              	.L3:
 123              		.loc 1 70 0 discriminator 4
 124 0060 BB62     		str	r3, [r7, #40]
  71:main.c        **** 
  72:main.c        ****     int64_t num_abs = (int64_t)davg_abs * MM_PER_COUNT_X1000;
 125              		.loc 1 72 0 is_stmt 1 discriminator 4
 126 0062 FB6A     		ldr	r3, [r7, #44]
 127 0064 1946     		mov	r1, r3
 128 0066 4FEAE172 		asr	r2, r1, #31
 129 006a 0B46     		mov	r3, r1
 130 006c 1446     		mov	r4, r2
 131 006e DB18     		adds	r3, r3, r3
 132 0070 44EB0404 		adc	r4, r4, r4
 133 0074 5B18     		adds	r3, r3, r1
 134 0076 44EB0204 		adc	r4, r4, r2
 135 007a 4FEA8409 		lsl	r9, r4, #2
 136 007e 49EA9379 		orr	r9, r9, r3, lsr #30
 137 0082 4FEA8308 		lsl	r8, r3, #2
 138 0086 4346     		mov	r3, r8
 139 0088 4C46     		mov	r4, r9
 140 008a 5B18     		adds	r3, r3, r1
 141 008c 44EB0204 		adc	r4, r4, r2
 142 0090 4FEAC40B 		lsl	fp, r4, #3
 143 0094 4BEA537B 		orr	fp, fp, r3, lsr #29
 144 0098 4FEAC30A 		lsl	r10, r3, #3
 145 009c 13EB0A03 		adds	r3, r3, r10
 146 00a0 44EB0B04 		adc	r4, r4, fp
 147 00a4 E000     		lsls	r0, r4, #3
 148 00a6 7861     		str	r0, [r7, #20]
 149 00a8 7869     		ldr	r0, [r7, #20]
 150 00aa 40EA5370 		orr	r0, r0, r3, lsr #29
 151 00ae 7861     		str	r0, [r7, #20]
 152 00b0 DB00     		lsls	r3, r3, #3
 153 00b2 3B61     		str	r3, [r7, #16]
 154 00b4 D7E90434 		ldrd	r3, [r7, #16]
 155 00b8 5B18     		adds	r3, r3, r1
 156 00ba 44EB0204 		adc	r4, r4, r2
ARM GAS  C:\Users\ylee818\AppData\Local\Temp\ccqANnic.s 			page 5


 157 00be C7E90834 		strd	r3, [r7, #32]
  73:main.c        ****     int32_t dmm_abs = (int32_t)((num_abs + 500) / 1000);
 158              		.loc 1 73 0 discriminator 4
 159 00c2 D7E90834 		ldrd	r3, [r7, #32]
 160 00c6 13F5FA70 		adds	r0, r3, #500
 161 00ca 44F10001 		adc	r1, r4, #0
 162 00ce 4FF47A72 		mov	r2, #1000
 163 00d2 4FF00003 		mov	r3, #0
 164 00d6 FFF7FEFF 		bl	__aeabi_ldivmod
 165 00da 0346     		mov	r3, r0
 166 00dc 0C46     		mov	r4, r1
 167 00de FB61     		str	r3, [r7, #28]
  74:main.c        ****     int32_t dmm_signed = APPLY_CALIB_DIST(dmm_abs) * davg_sign;
 168              		.loc 1 74 0 discriminator 4
 169 00e0 FB69     		ldr	r3, [r7, #28]
 170 00e2 1946     		mov	r1, r3
 171 00e4 4FEAE172 		asr	r2, r1, #31
 172 00e8 0B46     		mov	r3, r1
 173 00ea 1446     		mov	r4, r2
 174 00ec DB18     		adds	r3, r3, r3
 175 00ee 44EB0404 		adc	r4, r4, r4
 176 00f2 5B18     		adds	r3, r3, r1
 177 00f4 44EB0204 		adc	r4, r4, r2
 178 00f8 E000     		lsls	r0, r4, #3
 179 00fa F860     		str	r0, [r7, #12]
 180 00fc F868     		ldr	r0, [r7, #12]
 181 00fe 40EA5370 		orr	r0, r0, r3, lsr #29
 182 0102 F860     		str	r0, [r7, #12]
 183 0104 DB00     		lsls	r3, r3, #3
 184 0106 BB60     		str	r3, [r7, #8]
 185 0108 D7E90234 		ldrd	r3, [r7, #8]
 186 010c 5B18     		adds	r3, r3, r1
 187 010e 44EB0204 		adc	r4, r4, r2
 188 0112 2601     		lsls	r6, r4, #4
 189 0114 46EA1376 		orr	r6, r6, r3, lsr #28
 190 0118 1D01     		lsls	r5, r3, #4
 191 011a ED1A     		subs	r5, r5, r3
 192 011c 66EB0406 		sbc	r6, r6, r4
 193 0120 B300     		lsls	r3, r6, #2
 194 0122 7B60     		str	r3, [r7, #4]
 195 0124 7B68     		ldr	r3, [r7, #4]
 196 0126 43EA9573 		orr	r3, r3, r5, lsr #30
 197 012a 7B60     		str	r3, [r7, #4]
 198 012c AB00     		lsls	r3, r5, #2
 199 012e 3B60     		str	r3, [r7]
 200 0130 D7E90056 		ldrd	r5, [r7]
 201 0134 2B46     		mov	r3, r5
 202 0136 3446     		mov	r4, r6
 203 0138 13F5FA70 		adds	r0, r3, #500
 204 013c 44F10001 		adc	r1, r4, #0
 205 0140 4FF47A72 		mov	r2, #1000
 206 0144 4FF00003 		mov	r3, #0
 207 0148 FFF7FEFF 		bl	__aeabi_ldivmod
 208 014c 0346     		mov	r3, r0
 209 014e 0C46     		mov	r4, r1
 210 0150 1A46     		mov	r2, r3
 211 0152 BB6A     		ldr	r3, [r7, #40]
ARM GAS  C:\Users\ylee818\AppData\Local\Temp\ccqANnic.s 			page 6


 212 0154 03FB02F3 		mul	r3, r3, r2
 213 0158 BB61     		str	r3, [r7, #24]
  75:main.c        **** 
  76:main.c        ****     g_dist_mm += dmm_signed;
 214              		.loc 1 76 0 discriminator 4
 215 015a 064B     		ldr	r3, .L4
 216 015c 1A68     		ldr	r2, [r3]
 217 015e BB69     		ldr	r3, [r7, #24]
 218 0160 1344     		add	r3, r3, r2
 219 0162 044A     		ldr	r2, .L4
 220 0164 1360     		str	r3, [r2]
  77:main.c        ****     (void)Timer_QD_ReadStatusRegister();     // clear TC
 221              		.loc 1 77 0 discriminator 4
 222 0166 FFF7FEFF 		bl	Timer_QD_ReadStatusRegister
  78:main.c        **** }
 223              		.loc 1 78 0 discriminator 4
 224 016a 00BF     		nop
 225 016c 4C37     		adds	r7, r7, #76
 226              		.cfi_def_cfa_offset 36
 227 016e BD46     		mov	sp, r7
 228              		.cfi_def_cfa_register 13
 229              		@ sp needed
 230 0170 BDE8F08F 		pop	{r4, r5, r6, r7, r8, r9, r10, fp, pc}
 231              	.L5:
 232              		.align	2
 233              	.L4:
 234 0174 08000000 		.word	g_dist_mm
 235              		.cfi_endproc
 236              	.LFE64:
 237              		.size	isr_qd_Handler, .-isr_qd_Handler
 238              		.global	__aeabi_ui2f
 239              		.global	__aeabi_fdiv
 240              		.section	.text.norm01_from_pp,"ax",%progbits
 241              		.align	2
 242              		.thumb
 243              		.thumb_func
 244              		.type	norm01_from_pp, %function
 245              	norm01_from_pp:
 246              	.LFB65:
  79:main.c        **** 
  80:main.c        **** /* Utility: normalize peak-to-peak to [0..1] */
  81:main.c        **** static inline float norm01_from_pp(uint16_t pp)
  82:main.c        **** {
 247              		.loc 1 82 0
 248              		.cfi_startproc
 249              		@ args = 0, pretend = 0, frame = 8
 250              		@ frame_needed = 1, uses_anonymous_args = 0
 251 0000 80B5     		push	{r7, lr}
 252              		.cfi_def_cfa_offset 8
 253              		.cfi_offset 7, -8
 254              		.cfi_offset 14, -4
 255 0002 82B0     		sub	sp, sp, #8
 256              		.cfi_def_cfa_offset 16
 257 0004 00AF     		add	r7, sp, #0
 258              		.cfi_def_cfa_register 7
 259 0006 0346     		mov	r3, r0
 260 0008 FB80     		strh	r3, [r7, #6]	@ movhi
ARM GAS  C:\Users\ylee818\AppData\Local\Temp\ccqANnic.s 			page 7


  83:main.c        ****     if (pp <= S_MINC_COUNTS) return 0.0f;
 261              		.loc 1 83 0
 262 000a FB88     		ldrh	r3, [r7, #6]
 263 000c 022B     		cmp	r3, #2
 264 000e 02D8     		bhi	.L7
 265              		.loc 1 83 0 is_stmt 0 discriminator 1
 266 0010 4FF00003 		mov	r3, #0
 267 0014 11E0     		b	.L8
 268              	.L7:
  84:main.c        ****     if (pp >= S_MAXC_COUNTS) return 1.0f;
 269              		.loc 1 84 0 is_stmt 1
 270 0016 FB88     		ldrh	r3, [r7, #6]
 271 0018 B3F5E17F 		cmp	r3, #450
 272 001c 02D3     		bcc	.L9
 273              		.loc 1 84 0 is_stmt 0 discriminator 1
 274 001e 4FF07E53 		mov	r3, #1065353216
 275 0022 0AE0     		b	.L8
 276              	.L9:
  85:main.c        ****     return (float)(pp - S_MINC_COUNTS) / (float)(S_MAXC_COUNTS - S_MINC_COUNTS);
 277              		.loc 1 85 0 is_stmt 1
 278 0024 FB88     		ldrh	r3, [r7, #6]
 279 0026 023B     		subs	r3, r3, #2
 280 0028 1846     		mov	r0, r3
 281 002a FFF7FEFF 		bl	__aeabi_ui2f
 282 002e 0346     		mov	r3, r0
 283 0030 0449     		ldr	r1, .L10
 284 0032 1846     		mov	r0, r3
 285 0034 FFF7FEFF 		bl	__aeabi_fdiv
 286 0038 0346     		mov	r3, r0
 287              	.L8:
  86:main.c        **** }
 288              		.loc 1 86 0
 289 003a 1846     		mov	r0, r3
 290 003c 0837     		adds	r7, r7, #8
 291              		.cfi_def_cfa_offset 8
 292 003e BD46     		mov	sp, r7
 293              		.cfi_def_cfa_register 13
 294              		@ sp needed
 295 0040 80BD     		pop	{r7, pc}
 296              	.L11:
 297 0042 00BF     		.align	2
 298              	.L10:
 299 0044 0000E043 		.word	1138753536
 300              		.cfi_endproc
 301              	.LFE65:
 302              		.size	norm01_from_pp, .-norm01_from_pp
 303              		.section	.text.light_sensors_update_and_maybe_request_turn,"ax",%progbits
 304              		.align	2
 305              		.thumb
 306              		.thumb_func
 307              		.type	light_sensors_update_and_maybe_request_turn, %function
 308              	light_sensors_update_and_maybe_request_turn:
 309              	.LFB66:
  87:main.c        **** 
  88:main.c        **** /* Read sensors and (maybe) request a turn based on S1 / S2 (kept) */
  89:main.c        **** static void light_sensors_update_and_maybe_request_turn(uint16_t* V4_pp, uint16_t* V5_pp, uint16_t*
  90:main.c        **** {
ARM GAS  C:\Users\ylee818\AppData\Local\Temp\ccqANnic.s 			page 8


 310              		.loc 1 90 0
 311              		.cfi_startproc
 312              		@ args = 0, pretend = 0, frame = 40
 313              		@ frame_needed = 1, uses_anonymous_args = 0
 314 0000 80B5     		push	{r7, lr}
 315              		.cfi_def_cfa_offset 8
 316              		.cfi_offset 7, -8
 317              		.cfi_offset 14, -4
 318 0002 8AB0     		sub	sp, sp, #40
 319              		.cfi_def_cfa_offset 48
 320 0004 00AF     		add	r7, sp, #0
 321              		.cfi_def_cfa_register 7
 322 0006 F860     		str	r0, [r7, #12]
 323 0008 B960     		str	r1, [r7, #8]
 324 000a 7A60     		str	r2, [r7, #4]
  91:main.c        ****     uint16_t V1 = Sensor_ComputePeakToPeak(0);
 325              		.loc 1 91 0
 326 000c 0020     		movs	r0, #0
 327 000e FFF7FEFF 		bl	Sensor_ComputePeakToPeak
 328 0012 0346     		mov	r3, r0
 329 0014 FB84     		strh	r3, [r7, #38]	@ movhi
  92:main.c        ****     uint16_t V2 = Sensor_ComputePeakToPeak(1);
 330              		.loc 1 92 0
 331 0016 0120     		movs	r0, #1
 332 0018 FFF7FEFF 		bl	Sensor_ComputePeakToPeak
 333 001c 0346     		mov	r3, r0
 334 001e BB84     		strh	r3, [r7, #36]	@ movhi
  93:main.c        ****     uint16_t V3 = Sensor_ComputePeakToPeak(2);
 335              		.loc 1 93 0
 336 0020 0220     		movs	r0, #2
 337 0022 FFF7FEFF 		bl	Sensor_ComputePeakToPeak
 338 0026 0346     		mov	r3, r0
 339 0028 7B84     		strh	r3, [r7, #34]	@ movhi
  94:main.c        ****     uint16_t V4 = Sensor_ComputePeakToPeak(3);
 340              		.loc 1 94 0
 341 002a 0320     		movs	r0, #3
 342 002c FFF7FEFF 		bl	Sensor_ComputePeakToPeak
 343 0030 0346     		mov	r3, r0
 344 0032 3B84     		strh	r3, [r7, #32]	@ movhi
  95:main.c        ****     uint16_t V5 = Sensor_ComputePeakToPeak(4);
 345              		.loc 1 95 0
 346 0034 0420     		movs	r0, #4
 347 0036 FFF7FEFF 		bl	Sensor_ComputePeakToPeak
 348 003a 0346     		mov	r3, r0
 349 003c FB83     		strh	r3, [r7, #30]	@ movhi
  96:main.c        ****     uint16_t V6 = Sensor_ComputePeakToPeak(5);
 350              		.loc 1 96 0
 351 003e 0520     		movs	r0, #5
 352 0040 FFF7FEFF 		bl	Sensor_ComputePeakToPeak
 353 0044 0346     		mov	r3, r0
 354 0046 BB83     		strh	r3, [r7, #28]	@ movhi
  97:main.c        **** 
  98:main.c        ****     if (V4_pp) *V4_pp = V4;
 355              		.loc 1 98 0
 356 0048 FB68     		ldr	r3, [r7, #12]
 357 004a 002B     		cmp	r3, #0
 358 004c 02D0     		beq	.L13
ARM GAS  C:\Users\ylee818\AppData\Local\Temp\ccqANnic.s 			page 9


 359              		.loc 1 98 0 is_stmt 0 discriminator 1
 360 004e FB68     		ldr	r3, [r7, #12]
 361 0050 3A8C     		ldrh	r2, [r7, #32]	@ movhi
 362 0052 1A80     		strh	r2, [r3]	@ movhi
 363              	.L13:
  99:main.c        ****     if (V5_pp) *V5_pp = V5;
 364              		.loc 1 99 0 is_stmt 1
 365 0054 BB68     		ldr	r3, [r7, #8]
 366 0056 002B     		cmp	r3, #0
 367 0058 02D0     		beq	.L14
 368              		.loc 1 99 0 is_stmt 0 discriminator 1
 369 005a BB68     		ldr	r3, [r7, #8]
 370 005c FA8B     		ldrh	r2, [r7, #30]	@ movhi
 371 005e 1A80     		strh	r2, [r3]	@ movhi
 372              	.L14:
 100:main.c        ****     if (V6_pp) *V6_pp = V6;
 373              		.loc 1 100 0 is_stmt 1
 374 0060 7B68     		ldr	r3, [r7, #4]
 375 0062 002B     		cmp	r3, #0
 376 0064 02D0     		beq	.L15
 377              		.loc 1 100 0 is_stmt 0 discriminator 1
 378 0066 7B68     		ldr	r3, [r7, #4]
 379 0068 BA8B     		ldrh	r2, [r7, #28]	@ movhi
 380 006a 1A80     		strh	r2, [r3]	@ movhi
 381              	.L15:
 101:main.c        **** 
 102:main.c        ****     static uint8_t s1 = 0, s2 = 0;
 103:main.c        ****     uint8_t s1_enter = (V1 > S_MINC_COUNTS && V1 < S_MAXC_COUNTS);
 382              		.loc 1 103 0 is_stmt 1
 383 006c FB8C     		ldrh	r3, [r7, #38]
 384 006e 022B     		cmp	r3, #2
 385 0070 05D9     		bls	.L16
 386              		.loc 1 103 0 is_stmt 0 discriminator 1
 387 0072 FB8C     		ldrh	r3, [r7, #38]
 388 0074 B3F5E17F 		cmp	r3, #450
 389 0078 01D2     		bcs	.L16
 390              		.loc 1 103 0 discriminator 3
 391 007a 0123     		movs	r3, #1
 392 007c 00E0     		b	.L17
 393              	.L16:
 394              		.loc 1 103 0 discriminator 4
 395 007e 0023     		movs	r3, #0
 396              	.L17:
 397              		.loc 1 103 0 discriminator 6
 398 0080 FB76     		strb	r3, [r7, #27]
 104:main.c        ****     uint8_t s2_enter = (V2 > S_MINC_COUNTS && V2 < S_MAXC_COUNTS);
 399              		.loc 1 104 0 is_stmt 1 discriminator 6
 400 0082 BB8C     		ldrh	r3, [r7, #36]
 401 0084 022B     		cmp	r3, #2
 402 0086 05D9     		bls	.L18
 403              		.loc 1 104 0 is_stmt 0 discriminator 1
 404 0088 BB8C     		ldrh	r3, [r7, #36]
 405 008a B3F5E17F 		cmp	r3, #450
 406 008e 01D2     		bcs	.L18
 407              		.loc 1 104 0 discriminator 3
 408 0090 0123     		movs	r3, #1
 409 0092 00E0     		b	.L19
ARM GAS  C:\Users\ylee818\AppData\Local\Temp\ccqANnic.s 			page 10


 410              	.L18:
 411              		.loc 1 104 0 discriminator 4
 412 0094 0023     		movs	r3, #0
 413              	.L19:
 414              		.loc 1 104 0 discriminator 6
 415 0096 BB76     		strb	r3, [r7, #26]
 105:main.c        ****     uint8_t s1_exit  = (V1 > (S_MAXC_COUNTS + S_HYST_COUNTS)) || ((V1 + S_HYST_COUNTS) < S_MINC_COU
 416              		.loc 1 105 0 is_stmt 1 discriminator 6
 417 0098 FB8C     		ldrh	r3, [r7, #38]
 418 009a B3F5E97F 		cmp	r3, #466
 419 009e 03D8     		bhi	.L20
 420              		.loc 1 105 0 is_stmt 0 discriminator 2
 421 00a0 FB8C     		ldrh	r3, [r7, #38]
 422 00a2 1033     		adds	r3, r3, #16
 423 00a4 012B     		cmp	r3, #1
 424 00a6 01D8     		bhi	.L21
 425              	.L20:
 426              		.loc 1 105 0 discriminator 3
 427 00a8 0123     		movs	r3, #1
 428 00aa 00E0     		b	.L22
 429              	.L21:
 430              		.loc 1 105 0 discriminator 4
 431 00ac 0023     		movs	r3, #0
 432              	.L22:
 433              		.loc 1 105 0 discriminator 6
 434 00ae 7B76     		strb	r3, [r7, #25]
 106:main.c        ****     uint8_t s2_exit  = (V2 > (S_MAXC_COUNTS + S_HYST_COUNTS)) || ((V2 + S_HYST_COUNTS) < S_MINC_COU
 435              		.loc 1 106 0 is_stmt 1 discriminator 6
 436 00b0 BB8C     		ldrh	r3, [r7, #36]
 437 00b2 B3F5E97F 		cmp	r3, #466
 438 00b6 03D8     		bhi	.L23
 439              		.loc 1 106 0 is_stmt 0 discriminator 2
 440 00b8 BB8C     		ldrh	r3, [r7, #36]
 441 00ba 1033     		adds	r3, r3, #16
 442 00bc 012B     		cmp	r3, #1
 443 00be 01D8     		bhi	.L24
 444              	.L23:
 445              		.loc 1 106 0 discriminator 3
 446 00c0 0123     		movs	r3, #1
 447 00c2 00E0     		b	.L25
 448              	.L24:
 449              		.loc 1 106 0 discriminator 4
 450 00c4 0023     		movs	r3, #0
 451              	.L25:
 452              		.loc 1 106 0 discriminator 6
 453 00c6 3B76     		strb	r3, [r7, #24]
 107:main.c        **** 
 108:main.c        ****     if (!s1) s1 = s1_enter ? 1u : 0u; else s1 = s1_exit ? 0u : 1u;
 454              		.loc 1 108 0 is_stmt 1 discriminator 6
 455 00c8 6F4B     		ldr	r3, .L59
 456 00ca 1B78     		ldrb	r3, [r3]	@ zero_extendqisi2
 457 00cc 002B     		cmp	r3, #0
 458 00ce 08D1     		bne	.L26
 459              		.loc 1 108 0 is_stmt 0 discriminator 1
 460 00d0 FB7E     		ldrb	r3, [r7, #27]	@ zero_extendqisi2
 461 00d2 002B     		cmp	r3, #0
 462 00d4 01D0     		beq	.L27
ARM GAS  C:\Users\ylee818\AppData\Local\Temp\ccqANnic.s 			page 11


 463              		.loc 1 108 0 discriminator 3
 464 00d6 0122     		movs	r2, #1
 465 00d8 00E0     		b	.L28
 466              	.L27:
 467              		.loc 1 108 0 discriminator 4
 468 00da 0022     		movs	r2, #0
 469              	.L28:
 470              		.loc 1 108 0 discriminator 6
 471 00dc 6A4B     		ldr	r3, .L59
 472 00de 1A70     		strb	r2, [r3]
 473 00e0 08E0     		b	.L29
 474              	.L26:
 475              		.loc 1 108 0 discriminator 2
 476 00e2 7B7E     		ldrb	r3, [r7, #25]	@ zero_extendqisi2
 477 00e4 002B     		cmp	r3, #0
 478 00e6 0CBF     		ite	eq
 479 00e8 0123     		moveq	r3, #1
 480 00ea 0023     		movne	r3, #0
 481 00ec DBB2     		uxtb	r3, r3
 482 00ee 1A46     		mov	r2, r3
 483 00f0 654B     		ldr	r3, .L59
 484 00f2 1A70     		strb	r2, [r3]
 485              	.L29:
 109:main.c        ****     if (!s2) s2 = s2_enter ? 1u : 0u; else s2 = s2_exit ? 0u : 1u;
 486              		.loc 1 109 0 is_stmt 1
 487 00f4 654B     		ldr	r3, .L59+4
 488 00f6 1B78     		ldrb	r3, [r3]	@ zero_extendqisi2
 489 00f8 002B     		cmp	r3, #0
 490 00fa 08D1     		bne	.L30
 491              		.loc 1 109 0 is_stmt 0 discriminator 1
 492 00fc BB7E     		ldrb	r3, [r7, #26]	@ zero_extendqisi2
 493 00fe 002B     		cmp	r3, #0
 494 0100 01D0     		beq	.L31
 495              		.loc 1 109 0 discriminator 3
 496 0102 0122     		movs	r2, #1
 497 0104 00E0     		b	.L32
 498              	.L31:
 499              		.loc 1 109 0 discriminator 4
 500 0106 0022     		movs	r2, #0
 501              	.L32:
 502              		.loc 1 109 0 discriminator 6
 503 0108 604B     		ldr	r3, .L59+4
 504 010a 1A70     		strb	r2, [r3]
 505 010c 08E0     		b	.L33
 506              	.L30:
 507              		.loc 1 109 0 discriminator 2
 508 010e 3B7E     		ldrb	r3, [r7, #24]	@ zero_extendqisi2
 509 0110 002B     		cmp	r3, #0
 510 0112 0CBF     		ite	eq
 511 0114 0123     		moveq	r3, #1
 512 0116 0023     		movne	r3, #0
 513 0118 DBB2     		uxtb	r3, r3
 514 011a 1A46     		mov	r2, r3
 515 011c 5B4B     		ldr	r3, .L59+4
 516 011e 1A70     		strb	r2, [r3]
 517              	.L33:
 110:main.c        **** 
ARM GAS  C:\Users\ylee818\AppData\Local\Temp\ccqANnic.s 			page 12


 111:main.c        ****     sen1_on_line = s1;  sen2_on_line = s2;
 518              		.loc 1 111 0 is_stmt 1
 519 0120 594B     		ldr	r3, .L59
 520 0122 1A78     		ldrb	r2, [r3]	@ zero_extendqisi2
 521 0124 5A4B     		ldr	r3, .L59+8
 522 0126 1A70     		strb	r2, [r3]
 523 0128 584B     		ldr	r3, .L59+4
 524 012a 1A78     		ldrb	r2, [r3]	@ zero_extendqisi2
 525 012c 594B     		ldr	r3, .L59+12
 526 012e 1A70     		strb	r2, [r3]
 112:main.c        ****     sen3_on_line = (V3 > 10 && V3 < 100) ? 1u : 0u;
 527              		.loc 1 112 0
 528 0130 7B8C     		ldrh	r3, [r7, #34]
 529 0132 0A2B     		cmp	r3, #10
 530 0134 04D9     		bls	.L34
 531              		.loc 1 112 0 is_stmt 0 discriminator 1
 532 0136 7B8C     		ldrh	r3, [r7, #34]
 533 0138 632B     		cmp	r3, #99
 534 013a 01D8     		bhi	.L34
 535              		.loc 1 112 0 discriminator 3
 536 013c 0122     		movs	r2, #1
 537 013e 00E0     		b	.L35
 538              	.L34:
 539              		.loc 1 112 0 discriminator 4
 540 0140 0022     		movs	r2, #0
 541              	.L35:
 542              		.loc 1 112 0 discriminator 6
 543 0142 554B     		ldr	r3, .L59+16
 544 0144 1A70     		strb	r2, [r3]
 113:main.c        ****     sen4_on_line = (V4 > 10 && V4 < 100) ? 1u : 0u;
 545              		.loc 1 113 0 is_stmt 1 discriminator 6
 546 0146 3B8C     		ldrh	r3, [r7, #32]
 547 0148 0A2B     		cmp	r3, #10
 548 014a 04D9     		bls	.L36
 549              		.loc 1 113 0 is_stmt 0 discriminator 1
 550 014c 3B8C     		ldrh	r3, [r7, #32]
 551 014e 632B     		cmp	r3, #99
 552 0150 01D8     		bhi	.L36
 553              		.loc 1 113 0 discriminator 3
 554 0152 0122     		movs	r2, #1
 555 0154 00E0     		b	.L37
 556              	.L36:
 557              		.loc 1 113 0 discriminator 4
 558 0156 0022     		movs	r2, #0
 559              	.L37:
 560              		.loc 1 113 0 discriminator 6
 561 0158 504B     		ldr	r3, .L59+20
 562 015a 1A70     		strb	r2, [r3]
 114:main.c        ****     sen5_on_line = (V5 > 10 && V5 < 100) ? 1u : 0u;
 563              		.loc 1 114 0 is_stmt 1 discriminator 6
 564 015c FB8B     		ldrh	r3, [r7, #30]
 565 015e 0A2B     		cmp	r3, #10
 566 0160 04D9     		bls	.L38
 567              		.loc 1 114 0 is_stmt 0 discriminator 1
 568 0162 FB8B     		ldrh	r3, [r7, #30]
 569 0164 632B     		cmp	r3, #99
 570 0166 01D8     		bhi	.L38
ARM GAS  C:\Users\ylee818\AppData\Local\Temp\ccqANnic.s 			page 13


 571              		.loc 1 114 0 discriminator 3
 572 0168 0122     		movs	r2, #1
 573 016a 00E0     		b	.L39
 574              	.L38:
 575              		.loc 1 114 0 discriminator 4
 576 016c 0022     		movs	r2, #0
 577              	.L39:
 578              		.loc 1 114 0 discriminator 6
 579 016e 4C4B     		ldr	r3, .L59+24
 580 0170 1A70     		strb	r2, [r3]
 115:main.c        ****     sen6_on_line = (V6 > 10 && V6 < 100) ? 1u : 0u;
 581              		.loc 1 115 0 is_stmt 1 discriminator 6
 582 0172 BB8B     		ldrh	r3, [r7, #28]
 583 0174 0A2B     		cmp	r3, #10
 584 0176 04D9     		bls	.L40
 585              		.loc 1 115 0 is_stmt 0 discriminator 1
 586 0178 BB8B     		ldrh	r3, [r7, #28]
 587 017a 632B     		cmp	r3, #99
 588 017c 01D8     		bhi	.L40
 589              		.loc 1 115 0 discriminator 3
 590 017e 0122     		movs	r2, #1
 591 0180 00E0     		b	.L41
 592              	.L40:
 593              		.loc 1 115 0 discriminator 4
 594 0182 0022     		movs	r2, #0
 595              	.L41:
 596              		.loc 1 115 0 discriminator 6
 597 0184 474B     		ldr	r3, .L59+28
 598 0186 1A70     		strb	r2, [r3]
 116:main.c        **** 
 117:main.c        ****     static uint8_t debL = 0, debR = 0, latched_any = 0, armed = 0, clear_cnt = 0;
 118:main.c        **** 
 119:main.c        ****     uint8_t left_now  = sen1_on_line;
 599              		.loc 1 119 0 is_stmt 1 discriminator 6
 600 0188 414B     		ldr	r3, .L59+8
 601 018a 1B78     		ldrb	r3, [r3]
 602 018c FB75     		strb	r3, [r7, #23]
 120:main.c        ****     uint8_t right_now = sen2_on_line;
 603              		.loc 1 120 0 discriminator 6
 604 018e 414B     		ldr	r3, .L59+12
 605 0190 1B78     		ldrb	r3, [r3]
 606 0192 BB75     		strb	r3, [r7, #22]
 121:main.c        ****     uint8_t both_clear_now = (uint8_t)(!left_now && !right_now);
 607              		.loc 1 121 0 discriminator 6
 608 0194 FB7D     		ldrb	r3, [r7, #23]	@ zero_extendqisi2
 609 0196 002B     		cmp	r3, #0
 610 0198 04D1     		bne	.L42
 611              		.loc 1 121 0 is_stmt 0 discriminator 1
 612 019a BB7D     		ldrb	r3, [r7, #22]	@ zero_extendqisi2
 613 019c 002B     		cmp	r3, #0
 614 019e 01D1     		bne	.L42
 615              		.loc 1 121 0 discriminator 3
 616 01a0 0123     		movs	r3, #1
 617 01a2 00E0     		b	.L43
 618              	.L42:
 619              		.loc 1 121 0 discriminator 4
 620 01a4 0023     		movs	r3, #0
ARM GAS  C:\Users\ylee818\AppData\Local\Temp\ccqANnic.s 			page 14


 621              	.L43:
 622              		.loc 1 121 0 discriminator 6
 623 01a6 7B75     		strb	r3, [r7, #21]
 122:main.c        **** 
 123:main.c        ****     if (both_clear_now) {
 624              		.loc 1 123 0 is_stmt 1 discriminator 6
 625 01a8 7B7D     		ldrb	r3, [r7, #21]	@ zero_extendqisi2
 626 01aa 002B     		cmp	r3, #0
 627 01ac 11D0     		beq	.L44
 124:main.c        ****         if (clear_cnt < CLEAR_ARM_TICKS) clear_cnt++;
 628              		.loc 1 124 0
 629 01ae 3E4B     		ldr	r3, .L59+32
 630 01b0 1B78     		ldrb	r3, [r3]	@ zero_extendqisi2
 631 01b2 032B     		cmp	r3, #3
 632 01b4 05D8     		bhi	.L45
 633              		.loc 1 124 0 is_stmt 0 discriminator 1
 634 01b6 3C4B     		ldr	r3, .L59+32
 635 01b8 1B78     		ldrb	r3, [r3]	@ zero_extendqisi2
 636 01ba 0133     		adds	r3, r3, #1
 637 01bc DAB2     		uxtb	r2, r3
 638 01be 3A4B     		ldr	r3, .L59+32
 639 01c0 1A70     		strb	r2, [r3]
 640              	.L45:
 125:main.c        ****         if (clear_cnt >= CLEAR_ARM_TICKS) armed = 1u;
 641              		.loc 1 125 0 is_stmt 1
 642 01c2 394B     		ldr	r3, .L59+32
 643 01c4 1B78     		ldrb	r3, [r3]	@ zero_extendqisi2
 644 01c6 032B     		cmp	r3, #3
 645 01c8 06D9     		bls	.L47
 646              		.loc 1 125 0 is_stmt 0 discriminator 1
 647 01ca 384B     		ldr	r3, .L59+36
 648 01cc 0122     		movs	r2, #1
 649 01ce 1A70     		strb	r2, [r3]
 650 01d0 02E0     		b	.L47
 651              	.L44:
 126:main.c        ****     } else {
 127:main.c        ****         clear_cnt = 0;
 652              		.loc 1 127 0 is_stmt 1
 653 01d2 354B     		ldr	r3, .L59+32
 654 01d4 0022     		movs	r2, #0
 655 01d6 1A70     		strb	r2, [r3]
 656              	.L47:
 128:main.c        ****     }
 129:main.c        **** 
 130:main.c        ****     debL = left_now  ? (uint8_t)(debL + 1u) : 0u;
 657              		.loc 1 130 0
 658 01d8 FB7D     		ldrb	r3, [r7, #23]	@ zero_extendqisi2
 659 01da 002B     		cmp	r3, #0
 660 01dc 04D0     		beq	.L48
 661              		.loc 1 130 0 is_stmt 0 discriminator 1
 662 01de 344B     		ldr	r3, .L59+40
 663 01e0 1B78     		ldrb	r3, [r3]	@ zero_extendqisi2
 664 01e2 0133     		adds	r3, r3, #1
 665 01e4 DBB2     		uxtb	r3, r3
 666 01e6 00E0     		b	.L49
 667              	.L48:
 668              		.loc 1 130 0 discriminator 2
ARM GAS  C:\Users\ylee818\AppData\Local\Temp\ccqANnic.s 			page 15


 669 01e8 0023     		movs	r3, #0
 670              	.L49:
 671              		.loc 1 130 0 discriminator 4
 672 01ea 314A     		ldr	r2, .L59+40
 673 01ec 1370     		strb	r3, [r2]
 131:main.c        ****     debR = right_now ? (uint8_t)(debR + 1u) : 0u;
 674              		.loc 1 131 0 is_stmt 1 discriminator 4
 675 01ee BB7D     		ldrb	r3, [r7, #22]	@ zero_extendqisi2
 676 01f0 002B     		cmp	r3, #0
 677 01f2 04D0     		beq	.L50
 678              		.loc 1 131 0 is_stmt 0 discriminator 1
 679 01f4 2F4B     		ldr	r3, .L59+44
 680 01f6 1B78     		ldrb	r3, [r3]	@ zero_extendqisi2
 681 01f8 0133     		adds	r3, r3, #1
 682 01fa DBB2     		uxtb	r3, r3
 683 01fc 00E0     		b	.L51
 684              	.L50:
 685              		.loc 1 131 0 discriminator 2
 686 01fe 0023     		movs	r3, #0
 687              	.L51:
 688              		.loc 1 131 0 discriminator 4
 689 0200 2C4A     		ldr	r2, .L59+44
 690 0202 1370     		strb	r3, [r2]
 132:main.c        **** 
 133:main.c        ****     uint8_t left_stable  = (debL >= TURN_DEBOUNCE_TICKS);
 691              		.loc 1 133 0 is_stmt 1 discriminator 4
 692 0204 2A4B     		ldr	r3, .L59+40
 693 0206 1B78     		ldrb	r3, [r3]	@ zero_extendqisi2
 694 0208 042B     		cmp	r3, #4
 695 020a 8CBF     		ite	hi
 696 020c 0123     		movhi	r3, #1
 697 020e 0023     		movls	r3, #0
 698 0210 DBB2     		uxtb	r3, r3
 699 0212 3B75     		strb	r3, [r7, #20]
 134:main.c        ****     uint8_t right_stable = (debR >= TURN_DEBOUNCE_TICKS);
 700              		.loc 1 134 0 discriminator 4
 701 0214 274B     		ldr	r3, .L59+44
 702 0216 1B78     		ldrb	r3, [r3]	@ zero_extendqisi2
 703 0218 042B     		cmp	r3, #4
 704 021a 8CBF     		ite	hi
 705 021c 0123     		movhi	r3, #1
 706 021e 0023     		movls	r3, #0
 707 0220 DBB2     		uxtb	r3, r3
 708 0222 FB74     		strb	r3, [r7, #19]
 135:main.c        ****     uint8_t any_now      = (uint8_t)(left_stable | right_stable);
 709              		.loc 1 135 0 discriminator 4
 710 0224 3A7D     		ldrb	r2, [r7, #20]
 711 0226 FB7C     		ldrb	r3, [r7, #19]
 712 0228 1343     		orrs	r3, r3, r2
 713 022a BB74     		strb	r3, [r7, #18]
 136:main.c        **** 
 137:main.c        ****     if (g_direction == 0u){
 714              		.loc 1 137 0 discriminator 4
 715 022c 224B     		ldr	r3, .L59+48
 716 022e 1B78     		ldrb	r3, [r3]
 717 0230 DBB2     		uxtb	r3, r3
 718 0232 002B     		cmp	r3, #0
ARM GAS  C:\Users\ylee818\AppData\Local\Temp\ccqANnic.s 			page 16


 719 0234 20D1     		bne	.L52
 138:main.c        ****         if (armed && !latched_any && any_now){
 720              		.loc 1 138 0
 721 0236 1D4B     		ldr	r3, .L59+36
 722 0238 1B78     		ldrb	r3, [r3]	@ zero_extendqisi2
 723 023a 002B     		cmp	r3, #0
 724 023c 15D0     		beq	.L53
 725              		.loc 1 138 0 is_stmt 0 discriminator 1
 726 023e 1F4B     		ldr	r3, .L59+52
 727 0240 1B78     		ldrb	r3, [r3]	@ zero_extendqisi2
 728 0242 002B     		cmp	r3, #0
 729 0244 11D1     		bne	.L53
 730              		.loc 1 138 0 discriminator 2
 731 0246 BB7C     		ldrb	r3, [r7, #18]	@ zero_extendqisi2
 732 0248 002B     		cmp	r3, #0
 733 024a 0ED0     		beq	.L53
 139:main.c        ****             g_direction = left_stable ? 1u : 2u;   // 1=LEFT (S1), 2=RIGHT (S2)
 734              		.loc 1 139 0 is_stmt 1
 735 024c 3B7D     		ldrb	r3, [r7, #20]	@ zero_extendqisi2
 736 024e 002B     		cmp	r3, #0
 737 0250 01D0     		beq	.L54
 738              		.loc 1 139 0 is_stmt 0 discriminator 1
 739 0252 0122     		movs	r2, #1
 740 0254 00E0     		b	.L55
 741              	.L54:
 742              		.loc 1 139 0 discriminator 2
 743 0256 0222     		movs	r2, #2
 744              	.L55:
 745              		.loc 1 139 0 discriminator 4
 746 0258 174B     		ldr	r3, .L59+48
 747 025a 1A70     		strb	r2, [r3]
 140:main.c        ****             latched_any = 1u;
 748              		.loc 1 140 0 is_stmt 1 discriminator 4
 749 025c 174B     		ldr	r3, .L59+52
 750 025e 0122     		movs	r2, #1
 751 0260 1A70     		strb	r2, [r3]
 141:main.c        ****             armed = 0u;
 752              		.loc 1 141 0 discriminator 4
 753 0262 124B     		ldr	r3, .L59+36
 754 0264 0022     		movs	r2, #0
 755 0266 1A70     		strb	r2, [r3]
 142:main.c        ****         } else if (!any_now){
 143:main.c        ****             latched_any = 0u;
 144:main.c        ****         }
 145:main.c        ****     } else {
 146:main.c        ****         latched_any = 1u;
 147:main.c        ****     }
 148:main.c        **** }
 756              		.loc 1 148 0 discriminator 4
 757 0268 09E0     		b	.L58
 758              	.L53:
 142:main.c        ****         } else if (!any_now){
 759              		.loc 1 142 0
 760 026a BB7C     		ldrb	r3, [r7, #18]	@ zero_extendqisi2
 761 026c 002B     		cmp	r3, #0
 762 026e 06D1     		bne	.L58
 143:main.c        ****         }
ARM GAS  C:\Users\ylee818\AppData\Local\Temp\ccqANnic.s 			page 17


 763              		.loc 1 143 0
 764 0270 124B     		ldr	r3, .L59+52
 765 0272 0022     		movs	r2, #0
 766 0274 1A70     		strb	r2, [r3]
 767              		.loc 1 148 0
 768 0276 02E0     		b	.L58
 769              	.L52:
 146:main.c        ****     }
 770              		.loc 1 146 0
 771 0278 104B     		ldr	r3, .L59+52
 772 027a 0122     		movs	r2, #1
 773 027c 1A70     		strb	r2, [r3]
 774              	.L58:
 775              		.loc 1 148 0
 776 027e 00BF     		nop
 777 0280 2837     		adds	r7, r7, #40
 778              		.cfi_def_cfa_offset 8
 779 0282 BD46     		mov	sp, r7
 780              		.cfi_def_cfa_register 13
 781              		@ sp needed
 782 0284 80BD     		pop	{r7, pc}
 783              	.L60:
 784 0286 00BF     		.align	2
 785              	.L59:
 786 0288 0F000000 		.word	s1.8243
 787 028c 10000000 		.word	s2.8244
 788 0290 00000000 		.word	sen1_on_line
 789 0294 01000000 		.word	sen2_on_line
 790 0298 02000000 		.word	sen3_on_line
 791 029c 03000000 		.word	sen4_on_line
 792 02a0 04000000 		.word	sen5_on_line
 793 02a4 05000000 		.word	sen6_on_line
 794 02a8 11000000 		.word	clear_cnt.8253
 795 02ac 12000000 		.word	armed.8252
 796 02b0 13000000 		.word	debL.8249
 797 02b4 14000000 		.word	debR.8250
 798 02b8 06000000 		.word	g_direction
 799 02bc 15000000 		.word	latched_any.8251
 800              		.cfi_endproc
 801              	.LFE66:
 802              		.size	light_sensors_update_and_maybe_request_turn, .-light_sensors_update_and_maybe_request_turn
 803              		.global	__aeabi_fcmplt
 804              		.global	__aeabi_fcmpgt
 805              		.section	.text._clampf,"ax",%progbits
 806              		.align	2
 807              		.thumb
 808              		.thumb_func
 809              		.type	_clampf, %function
 810              	_clampf:
 811              	.LFB67:
 149:main.c        **** 
 150:main.c        **** /* ================= PI Controller (same as your current file) ================= */
 151:main.c        **** #define STEER_MAX        18
 152:main.c        **** #define KP               14.0f
 153:main.c        **** #define KI               2.0f
 154:main.c        **** #define INT_LIM          30.0f
 155:main.c        **** #define LOSS_TIMEOUT_T   0.25f
ARM GAS  C:\Users\ylee818\AppData\Local\Temp\ccqANnic.s 			page 18


 156:main.c        **** 
 157:main.c        **** typedef struct { float i, u, t_loss; } pi_t;
 158:main.c        **** static inline float _clampf(float x, float lo, float hi){ return (x<lo?lo:(x>hi?hi:x)); }
 812              		.loc 1 158 0
 813              		.cfi_startproc
 814              		@ args = 0, pretend = 0, frame = 16
 815              		@ frame_needed = 1, uses_anonymous_args = 0
 816 0000 80B5     		push	{r7, lr}
 817              		.cfi_def_cfa_offset 8
 818              		.cfi_offset 7, -8
 819              		.cfi_offset 14, -4
 820 0002 84B0     		sub	sp, sp, #16
 821              		.cfi_def_cfa_offset 24
 822 0004 00AF     		add	r7, sp, #0
 823              		.cfi_def_cfa_register 7
 824 0006 F860     		str	r0, [r7, #12]	@ float
 825 0008 B960     		str	r1, [r7, #8]	@ float
 826 000a 7A60     		str	r2, [r7, #4]	@ float
 827              		.loc 1 158 0
 828 000c B968     		ldr	r1, [r7, #8]	@ float
 829 000e F868     		ldr	r0, [r7, #12]	@ float
 830 0010 FFF7FEFF 		bl	__aeabi_fcmplt
 831 0014 0346     		mov	r3, r0
 832 0016 002B     		cmp	r3, #0
 833 0018 01D0     		beq	.L71
 834              		.loc 1 158 0 is_stmt 0 discriminator 1
 835 001a BB68     		ldr	r3, [r7, #8]	@ float
 836 001c 09E0     		b	.L68
 837              	.L71:
 838              		.loc 1 158 0 discriminator 2
 839 001e 7968     		ldr	r1, [r7, #4]	@ float
 840 0020 F868     		ldr	r0, [r7, #12]	@ float
 841 0022 FFF7FEFF 		bl	__aeabi_fcmpgt
 842 0026 0346     		mov	r3, r0
 843 0028 002B     		cmp	r3, #0
 844 002a 01D0     		beq	.L72
 845              		.loc 1 158 0 discriminator 4
 846 002c 7B68     		ldr	r3, [r7, #4]	@ float
 847 002e 00E0     		b	.L68
 848              	.L72:
 849              		.loc 1 158 0 discriminator 5
 850 0030 FB68     		ldr	r3, [r7, #12]	@ float
 851              	.L68:
 852              		.loc 1 158 0 discriminator 9
 853 0032 1846     		mov	r0, r3
 854 0034 1037     		adds	r7, r7, #16
 855              		.cfi_def_cfa_offset 8
 856 0036 BD46     		mov	sp, r7
 857              		.cfi_def_cfa_register 13
 858              		@ sp needed
 859 0038 80BD     		pop	{r7, pc}
 860              		.cfi_endproc
 861              	.LFE67:
 862              		.size	_clampf, .-_clampf
 863              		.global	__aeabi_fadd
 864              		.global	__aeabi_fmul
 865              		.global	__aeabi_fsub
ARM GAS  C:\Users\ylee818\AppData\Local\Temp\ccqANnic.s 			page 19


 866              		.global	__aeabi_fcmpge
 867              		.global	__aeabi_f2iz
 868              		.global	__aeabi_fcmple
 869 003a 00BF     		.section	.text.pi_step,"ax",%progbits
 870              		.align	2
 871              		.thumb
 872              		.thumb_func
 873              		.type	pi_step, %function
 874              	pi_step:
 875              	.LFB68:
 159:main.c        **** 
 160:main.c        **** static int pi_step(pi_t* pi, uint16_t V4_pp, uint16_t V5_pp, uint16_t V6_pp)
 161:main.c        **** {
 876              		.loc 1 161 0 is_stmt 1
 877              		.cfi_startproc
 878              		@ args = 0, pretend = 0, frame = 64
 879              		@ frame_needed = 1, uses_anonymous_args = 0
 880 0000 90B5     		push	{r4, r7, lr}
 881              		.cfi_def_cfa_offset 12
 882              		.cfi_offset 4, -12
 883              		.cfi_offset 7, -8
 884              		.cfi_offset 14, -4
 885 0002 91B0     		sub	sp, sp, #68
 886              		.cfi_def_cfa_offset 80
 887 0004 00AF     		add	r7, sp, #0
 888              		.cfi_def_cfa_register 7
 889 0006 F860     		str	r0, [r7, #12]
 890 0008 0846     		mov	r0, r1
 891 000a 1146     		mov	r1, r2
 892 000c 1A46     		mov	r2, r3
 893 000e 0346     		mov	r3, r0	@ movhi
 894 0010 7B81     		strh	r3, [r7, #10]	@ movhi
 895 0012 0B46     		mov	r3, r1	@ movhi
 896 0014 3B81     		strh	r3, [r7, #8]	@ movhi
 897 0016 1346     		mov	r3, r2	@ movhi
 898 0018 FB80     		strh	r3, [r7, #6]	@ movhi
 162:main.c        ****     float c4 = norm01_from_pp(V4_pp);
 899              		.loc 1 162 0
 900 001a 7B89     		ldrh	r3, [r7, #10]
 901 001c 1846     		mov	r0, r3
 902 001e FFF7FEFF 		bl	norm01_from_pp
 903 0022 B863     		str	r0, [r7, #56]	@ float
 163:main.c        ****     float c5 = norm01_from_pp(V5_pp);
 904              		.loc 1 163 0
 905 0024 3B89     		ldrh	r3, [r7, #8]
 906 0026 1846     		mov	r0, r3
 907 0028 FFF7FEFF 		bl	norm01_from_pp
 908 002c 7863     		str	r0, [r7, #52]	@ float
 164:main.c        ****     float c6 = norm01_from_pp(V6_pp);
 909              		.loc 1 164 0
 910 002e FB88     		ldrh	r3, [r7, #6]
 911 0030 1846     		mov	r0, r3
 912 0032 FFF7FEFF 		bl	norm01_from_pp
 913 0036 3863     		str	r0, [r7, #48]	@ float
 165:main.c        ****     float sum = c4 + c5 + c6;
 914              		.loc 1 165 0
 915 0038 796B     		ldr	r1, [r7, #52]	@ float
ARM GAS  C:\Users\ylee818\AppData\Local\Temp\ccqANnic.s 			page 20


 916 003a B86B     		ldr	r0, [r7, #56]	@ float
 917 003c FFF7FEFF 		bl	__aeabi_fadd
 918 0040 0346     		mov	r3, r0
 919 0042 396B     		ldr	r1, [r7, #48]	@ float
 920 0044 1846     		mov	r0, r3
 921 0046 FFF7FEFF 		bl	__aeabi_fadd
 922 004a 0346     		mov	r3, r0
 923 004c FB62     		str	r3, [r7, #44]	@ float
 166:main.c        ****     bool valid = (sum > 0.08f);
 924              		.loc 1 166 0
 925 004e 0123     		movs	r3, #1
 926 0050 1C46     		mov	r4, r3
 927 0052 7949     		ldr	r1, .L93
 928 0054 F86A     		ldr	r0, [r7, #44]	@ float
 929 0056 FFF7FEFF 		bl	__aeabi_fcmpgt
 930 005a 0346     		mov	r3, r0
 931 005c 002B     		cmp	r3, #0
 932 005e 01D1     		bne	.L74
 933 0060 0023     		movs	r3, #0
 934 0062 1C46     		mov	r4, r3
 935              	.L74:
 936 0064 87F82B40 		strb	r4, [r7, #43]
 167:main.c        **** 
 168:main.c        ****     float pos = 0.0f;
 937              		.loc 1 168 0
 938 0068 4FF00003 		mov	r3, #0
 939 006c FB63     		str	r3, [r7, #60]	@ float
 169:main.c        ****     if (valid) pos = (-1.0f * c4 + 0.0f * c5 + 1.0f * c6) / sum;
 940              		.loc 1 169 0
 941 006e 97F82B30 		ldrb	r3, [r7, #43]	@ zero_extendqisi2
 942 0072 002B     		cmp	r3, #0
 943 0074 15D0     		beq	.L75
 944              		.loc 1 169 0 is_stmt 0 discriminator 1
 945 0076 4FF00001 		mov	r1, #0
 946 007a 786B     		ldr	r0, [r7, #52]	@ float
 947 007c FFF7FEFF 		bl	__aeabi_fmul
 948 0080 0346     		mov	r3, r0
 949 0082 B96B     		ldr	r1, [r7, #56]	@ float
 950 0084 1846     		mov	r0, r3
 951 0086 FFF7FEFF 		bl	__aeabi_fsub
 952 008a 0346     		mov	r3, r0
 953 008c 396B     		ldr	r1, [r7, #48]	@ float
 954 008e 1846     		mov	r0, r3
 955 0090 FFF7FEFF 		bl	__aeabi_fadd
 956 0094 0346     		mov	r3, r0
 957 0096 F96A     		ldr	r1, [r7, #44]	@ float
 958 0098 1846     		mov	r0, r3
 959 009a FFF7FEFF 		bl	__aeabi_fdiv
 960 009e 0346     		mov	r3, r0
 961 00a0 FB63     		str	r3, [r7, #60]	@ float
 962              	.L75:
 170:main.c        **** 
 171:main.c        ****     float e = pos;
 963              		.loc 1 171 0 is_stmt 1
 964 00a2 FB6B     		ldr	r3, [r7, #60]	@ float
 965 00a4 7B62     		str	r3, [r7, #36]	@ float
 172:main.c        **** 
ARM GAS  C:\Users\ylee818\AppData\Local\Temp\ccqANnic.s 			page 21


 173:main.c        ****     if (!valid) {
 966              		.loc 1 173 0
 967 00a6 97F82B30 		ldrb	r3, [r7, #43]
 968 00aa 83F00103 		eor	r3, r3, #1
 969 00ae DBB2     		uxtb	r3, r3
 970 00b0 002B     		cmp	r3, #0
 971 00b2 2AD0     		beq	.L76
 174:main.c        ****         pi->t_loss += DT_S;
 972              		.loc 1 174 0
 973 00b4 FB68     		ldr	r3, [r7, #12]
 974 00b6 9B68     		ldr	r3, [r3, #8]	@ float
 975 00b8 6049     		ldr	r1, .L93+4
 976 00ba 1846     		mov	r0, r3
 977 00bc FFF7FEFF 		bl	__aeabi_fadd
 978 00c0 0346     		mov	r3, r0
 979 00c2 1A46     		mov	r2, r3
 980 00c4 FB68     		ldr	r3, [r7, #12]
 981 00c6 9A60     		str	r2, [r3, #8]	@ float
 175:main.c        ****         if (pi->t_loss >= LOSS_TIMEOUT_T) pi->i *= 0.92f;
 982              		.loc 1 175 0
 983 00c8 FB68     		ldr	r3, [r7, #12]
 984 00ca 9B68     		ldr	r3, [r3, #8]	@ float
 985 00cc 4FF07A51 		mov	r1, #1048576000
 986 00d0 1846     		mov	r0, r3
 987 00d2 FFF7FEFF 		bl	__aeabi_fcmpge
 988 00d6 0346     		mov	r3, r0
 989 00d8 002B     		cmp	r3, #0
 990 00da 09D0     		beq	.L77
 991              		.loc 1 175 0 is_stmt 0 discriminator 1
 992 00dc FB68     		ldr	r3, [r7, #12]
 993 00de 1B68     		ldr	r3, [r3]	@ float
 994 00e0 5749     		ldr	r1, .L93+8
 995 00e2 1846     		mov	r0, r3
 996 00e4 FFF7FEFF 		bl	__aeabi_fmul
 997 00e8 0346     		mov	r3, r0
 998 00ea 1A46     		mov	r2, r3
 999 00ec FB68     		ldr	r3, [r7, #12]
 1000 00ee 1A60     		str	r2, [r3]	@ float
 1001              	.L77:
 176:main.c        ****         return (int)_clampf(pi->u, -(float)STEER_MAX, (float)STEER_MAX);
 1002              		.loc 1 176 0 is_stmt 1
 1003 00f0 FB68     		ldr	r3, [r7, #12]
 1004 00f2 5B68     		ldr	r3, [r3, #4]	@ float
 1005 00f4 534A     		ldr	r2, .L93+12
 1006 00f6 5449     		ldr	r1, .L93+16
 1007 00f8 1846     		mov	r0, r3
 1008 00fa FFF7FEFF 		bl	_clampf
 1009 00fe 0346     		mov	r3, r0
 1010 0100 1846     		mov	r0, r3
 1011 0102 FFF7FEFF 		bl	__aeabi_f2iz
 1012 0106 0346     		mov	r3, r0
 1013 0108 91E0     		b	.L79
 1014              	.L76:
 177:main.c        ****     }
 178:main.c        ****     pi->t_loss = 0.0f;
 1015              		.loc 1 178 0
 1016 010a FB68     		ldr	r3, [r7, #12]
ARM GAS  C:\Users\ylee818\AppData\Local\Temp\ccqANnic.s 			page 22


 1017 010c 4FF00002 		mov	r2, #0
 1018 0110 9A60     		str	r2, [r3, #8]	@ float
 179:main.c        **** 
 180:main.c        ****     float i_next = _clampf(pi->i + e * DT_S, -INT_LIM, +INT_LIM);
 1019              		.loc 1 180 0
 1020 0112 FB68     		ldr	r3, [r7, #12]
 1021 0114 1C68     		ldr	r4, [r3]	@ float
 1022 0116 4949     		ldr	r1, .L93+4
 1023 0118 786A     		ldr	r0, [r7, #36]	@ float
 1024 011a FFF7FEFF 		bl	__aeabi_fmul
 1025 011e 0346     		mov	r3, r0
 1026 0120 1946     		mov	r1, r3
 1027 0122 2046     		mov	r0, r4
 1028 0124 FFF7FEFF 		bl	__aeabi_fadd
 1029 0128 0346     		mov	r3, r0
 1030 012a 484A     		ldr	r2, .L93+20
 1031 012c 4849     		ldr	r1, .L93+24
 1032 012e 1846     		mov	r0, r3
 1033 0130 FFF7FEFF 		bl	_clampf
 1034 0134 3862     		str	r0, [r7, #32]	@ float
 181:main.c        ****     float u_raw  = KP * e + KI * i_next;
 1035              		.loc 1 181 0
 1036 0136 4749     		ldr	r1, .L93+28
 1037 0138 786A     		ldr	r0, [r7, #36]	@ float
 1038 013a FFF7FEFF 		bl	__aeabi_fmul
 1039 013e 0346     		mov	r3, r0
 1040 0140 1C46     		mov	r4, r3
 1041 0142 3B6A     		ldr	r3, [r7, #32]	@ float
 1042 0144 1946     		mov	r1, r3
 1043 0146 1846     		mov	r0, r3
 1044 0148 FFF7FEFF 		bl	__aeabi_fadd
 1045 014c 0346     		mov	r3, r0
 1046 014e 1946     		mov	r1, r3
 1047 0150 2046     		mov	r0, r4
 1048 0152 FFF7FEFF 		bl	__aeabi_fadd
 1049 0156 0346     		mov	r3, r0
 1050 0158 FB61     		str	r3, [r7, #28]	@ float
 182:main.c        ****     float u      = _clampf(u_raw, -(float)STEER_MAX, (float)STEER_MAX);
 1051              		.loc 1 182 0
 1052 015a 3A4A     		ldr	r2, .L93+12
 1053 015c 3A49     		ldr	r1, .L93+16
 1054 015e F869     		ldr	r0, [r7, #28]	@ float
 1055 0160 FFF7FEFF 		bl	_clampf
 1056 0164 B861     		str	r0, [r7, #24]	@ float
 183:main.c        **** 
 184:main.c        ****     bool sat_hi = (u >=  (float)STEER_MAX - 1e-3f);
 1057              		.loc 1 184 0
 1058 0166 0123     		movs	r3, #1
 1059 0168 1C46     		mov	r4, r3
 1060 016a 3B49     		ldr	r1, .L93+32
 1061 016c B869     		ldr	r0, [r7, #24]	@ float
 1062 016e FFF7FEFF 		bl	__aeabi_fcmpge
 1063 0172 0346     		mov	r3, r0
 1064 0174 002B     		cmp	r3, #0
 1065 0176 01D1     		bne	.L80
 1066 0178 0023     		movs	r3, #0
 1067 017a 1C46     		mov	r4, r3
ARM GAS  C:\Users\ylee818\AppData\Local\Temp\ccqANnic.s 			page 23


 1068              	.L80:
 1069 017c FC75     		strb	r4, [r7, #23]
 185:main.c        ****     bool sat_lo = (u <= -(float)STEER_MAX + 1e-3f);
 1070              		.loc 1 185 0
 1071 017e 0123     		movs	r3, #1
 1072 0180 1C46     		mov	r4, r3
 1073 0182 3649     		ldr	r1, .L93+36
 1074 0184 B869     		ldr	r0, [r7, #24]	@ float
 1075 0186 FFF7FEFF 		bl	__aeabi_fcmple
 1076 018a 0346     		mov	r3, r0
 1077 018c 002B     		cmp	r3, #0
 1078 018e 01D1     		bne	.L81
 1079 0190 0023     		movs	r3, #0
 1080 0192 1C46     		mov	r4, r3
 1081              	.L81:
 1082 0194 BC75     		strb	r4, [r7, #22]
 186:main.c        **** 
 187:main.c        ****     if ((sat_hi && (KI * i_next > KI * pi->i)) ||
 1083              		.loc 1 187 0
 1084 0196 FB7D     		ldrb	r3, [r7, #23]	@ zero_extendqisi2
 1085 0198 002B     		cmp	r3, #0
 1086 019a 14D0     		beq	.L82
 1087              		.loc 1 187 0 is_stmt 0 discriminator 1
 1088 019c 3B6A     		ldr	r3, [r7, #32]	@ float
 1089 019e 1946     		mov	r1, r3
 1090 01a0 1846     		mov	r0, r3
 1091 01a2 FFF7FEFF 		bl	__aeabi_fadd
 1092 01a6 0346     		mov	r3, r0
 1093 01a8 1C46     		mov	r4, r3
 1094 01aa FB68     		ldr	r3, [r7, #12]
 1095 01ac 1B68     		ldr	r3, [r3]	@ float
 1096 01ae 1946     		mov	r1, r3
 1097 01b0 1846     		mov	r0, r3
 1098 01b2 FFF7FEFF 		bl	__aeabi_fadd
 1099 01b6 0346     		mov	r3, r0
 1100 01b8 1946     		mov	r1, r3
 1101 01ba 2046     		mov	r0, r4
 1102 01bc FFF7FEFF 		bl	__aeabi_fcmpgt
 1103 01c0 0346     		mov	r3, r0
 1104 01c2 002B     		cmp	r3, #0
 1105 01c4 1AD1     		bne	.L84
 1106              	.L82:
 1107              		.loc 1 187 0 discriminator 3
 1108 01c6 BB7D     		ldrb	r3, [r7, #22]	@ zero_extendqisi2
 1109 01c8 002B     		cmp	r3, #0
 1110 01ca 14D0     		beq	.L85
 188:main.c        ****         (sat_lo && (KI * i_next < KI * pi->i))) {
 1111              		.loc 1 188 0 is_stmt 1
 1112 01cc 3B6A     		ldr	r3, [r7, #32]	@ float
 1113 01ce 1946     		mov	r1, r3
 1114 01d0 1846     		mov	r0, r3
 1115 01d2 FFF7FEFF 		bl	__aeabi_fadd
 1116 01d6 0346     		mov	r3, r0
 1117 01d8 1C46     		mov	r4, r3
 1118 01da FB68     		ldr	r3, [r7, #12]
 1119 01dc 1B68     		ldr	r3, [r3]	@ float
 1120 01de 1946     		mov	r1, r3
ARM GAS  C:\Users\ylee818\AppData\Local\Temp\ccqANnic.s 			page 24


 1121 01e0 1846     		mov	r0, r3
 1122 01e2 FFF7FEFF 		bl	__aeabi_fadd
 1123 01e6 0346     		mov	r3, r0
 1124 01e8 1946     		mov	r1, r3
 1125 01ea 2046     		mov	r0, r4
 1126 01ec FFF7FEFF 		bl	__aeabi_fcmplt
 1127 01f0 0346     		mov	r3, r0
 1128 01f2 002B     		cmp	r3, #0
 1129 01f4 02D1     		bne	.L84
 1130              	.L85:
 189:main.c        ****         /* don’t integrate further into saturation */
 190:main.c        ****     } else {
 191:main.c        ****         pi->i = i_next;
 1131              		.loc 1 191 0
 1132 01f6 FB68     		ldr	r3, [r7, #12]
 1133 01f8 3A6A     		ldr	r2, [r7, #32]	@ float
 1134 01fa 1A60     		str	r2, [r3]	@ float
 1135              	.L84:
 192:main.c        ****     }
 193:main.c        **** 
 194:main.c        ****     pi->u = u;
 1136              		.loc 1 194 0
 1137 01fc FB68     		ldr	r3, [r7, #12]
 1138 01fe BA69     		ldr	r2, [r7, #24]	@ float
 1139 0200 5A60     		str	r2, [r3, #4]	@ float
 195:main.c        ****     return (int)(u + (u>=0?0.5f:-0.5f));
 1140              		.loc 1 195 0
 1141 0202 4FF00001 		mov	r1, #0
 1142 0206 B869     		ldr	r0, [r7, #24]	@ float
 1143 0208 FFF7FEFF 		bl	__aeabi_fcmpge
 1144 020c 0346     		mov	r3, r0
 1145 020e 002B     		cmp	r3, #0
 1146 0210 02D0     		beq	.L92
 1147              		.loc 1 195 0 is_stmt 0 discriminator 1
 1148 0212 4FF07C53 		mov	r3, #1056964608
 1149 0216 01E0     		b	.L89
 1150              	.L92:
 1151              		.loc 1 195 0 discriminator 2
 1152 0218 4FF03F43 		mov	r3, #-1090519040
 1153              	.L89:
 1154              		.loc 1 195 0 discriminator 4
 1155 021c B969     		ldr	r1, [r7, #24]	@ float
 1156 021e 1846     		mov	r0, r3
 1157 0220 FFF7FEFF 		bl	__aeabi_fadd
 1158 0224 0346     		mov	r3, r0
 1159 0226 1846     		mov	r0, r3
 1160 0228 FFF7FEFF 		bl	__aeabi_f2iz
 1161 022c 0346     		mov	r3, r0
 1162              	.L79:
 196:main.c        **** }
 1163              		.loc 1 196 0 is_stmt 1
 1164 022e 1846     		mov	r0, r3
 1165 0230 4437     		adds	r7, r7, #68
 1166              		.cfi_def_cfa_offset 12
 1167 0232 BD46     		mov	sp, r7
 1168              		.cfi_def_cfa_register 13
 1169              		@ sp needed
ARM GAS  C:\Users\ylee818\AppData\Local\Temp\ccqANnic.s 			page 25


 1170 0234 90BD     		pop	{r4, r7, pc}
 1171              	.L94:
 1172 0236 00BF     		.align	2
 1173              	.L93:
 1174 0238 0AD7A33D 		.word	1034147594
 1175 023c 6F12033C 		.word	1006834287
 1176 0240 1F856B3F 		.word	1064011039
 1177 0244 00009041 		.word	1099956224
 1178 0248 000090C1 		.word	-1047527424
 1179 024c 0000F041 		.word	1106247680
 1180 0250 0000F0C1 		.word	-1041235968
 1181 0254 00006041 		.word	1096810496
 1182 0258 F4FD8F41 		.word	1099955700
 1183 025c F4FD8FC1 		.word	-1047527948
 1184              		.cfi_endproc
 1185              	.LFE68:
 1186              		.size	pi_step, .-pi_step
 1187              		.section	.text.main,"ax",%progbits
 1188              		.align	2
 1189              		.global	main
 1190              		.thumb
 1191              		.thumb_func
 1192              		.type	main, %function
 1193              	main:
 1194              	.LFB69:
 197:main.c        **** 
 198:main.c        **** int main(void)
 199:main.c        **** {
 1195              		.loc 1 199 0
 1196              		.cfi_startproc
 1197              		@ args = 0, pretend = 0, frame = 32
 1198              		@ frame_needed = 1, uses_anonymous_args = 0
 1199 0000 80B5     		push	{r7, lr}
 1200              		.cfi_def_cfa_offset 8
 1201              		.cfi_offset 7, -8
 1202              		.cfi_offset 14, -4
 1203 0002 88B0     		sub	sp, sp, #32
 1204              		.cfi_def_cfa_offset 40
 1205 0004 00AF     		add	r7, sp, #0
 1206              		.cfi_def_cfa_register 7
 200:main.c        ****     CyGlobalIntEnable;
 1207              		.loc 1 200 0
 1208              		.syntax unified
 1209              	@ 200 "main.c" 1
 1210 0006 62B6     		CPSIE   i
 1211              	@ 0 "" 2
 201:main.c        **** 
 202:main.c        ****     /* ADC for sensors */
 203:main.c        ****     ADC_Start();
 1212              		.loc 1 203 0
 1213              		.thumb
 1214              		.syntax unified
 1215 0008 FFF7FEFF 		bl	ADC_Start
 204:main.c        **** 
 205:main.c        ****     /* Encoders + 5 ms tick (distance only) */
 206:main.c        ****     Clock_QENC_Start();
 1216              		.loc 1 206 0
ARM GAS  C:\Users\ylee818\AppData\Local\Temp\ccqANnic.s 			page 26


 1217 000c FFF7FEFF 		bl	Clock_QENC_Start
 207:main.c        ****     QuadDec_M1_Start(); QuadDec_M2_Start();
 1218              		.loc 1 207 0
 1219 0010 FFF7FEFF 		bl	QuadDec_M1_Start
 1220 0014 FFF7FEFF 		bl	QuadDec_M2_Start
 208:main.c        ****     QuadDec_M1_SetCounter(0); QuadDec_M2_SetCounter(0);
 1221              		.loc 1 208 0
 1222 0018 0020     		movs	r0, #0
 1223 001a FFF7FEFF 		bl	QuadDec_M1_SetCounter
 1224 001e 0020     		movs	r0, #0
 1225 0020 FFF7FEFF 		bl	QuadDec_M2_SetCounter
 209:main.c        ****     Clock_QD_Start();
 1226              		.loc 1 209 0
 1227 0024 FFF7FEFF 		bl	Clock_QD_Start
 210:main.c        ****     Timer_QD_Start();                  // 5 ms period in TopDesign
 1228              		.loc 1 210 0
 1229 0028 FFF7FEFF 		bl	Timer_QD_Start
 211:main.c        ****     isr_qd_StartEx(isr_qd_Handler);
 1230              		.loc 1 211 0
 1231 002c 5E48     		ldr	r0, .L111
 1232 002e FFF7FEFF 		bl	isr_qd_StartEx
 212:main.c        **** 
 213:main.c        ****     /* PWM & motor driver */
 214:main.c        ****     Clock_PWM_Start();
 1233              		.loc 1 214 0
 1234 0032 FFF7FEFF 		bl	Clock_PWM_Start
 215:main.c        ****     PWM_1_Start(); PWM_2_Start();
 1235              		.loc 1 215 0
 1236 0036 FFF7FEFF 		bl	PWM_1_Start
 1237 003a FFF7FEFF 		bl	PWM_2_Start
 216:main.c        ****     PWM_1_WritePeriod(PWM_PERIOD);
 1238              		.loc 1 216 0
 1239 003e C820     		movs	r0, #200
 1240 0040 FFF7FEFF 		bl	PWM_1_WritePeriod
 217:main.c        ****     PWM_2_WritePeriod(PWM_PERIOD);
 1241              		.loc 1 217 0
 1242 0044 C820     		movs	r0, #200
 1243 0046 FFF7FEFF 		bl	PWM_2_WritePeriod
 218:main.c        ****     motor_enable(0u, 0u);
 1244              		.loc 1 218 0
 1245 004a 0021     		movs	r1, #0
 1246 004c 0020     		movs	r0, #0
 1247 004e FFF7FEFF 		bl	motor_enable
 219:main.c        ****     set_motors_symmetric(0);
 1248              		.loc 1 219 0
 1249 0052 0020     		movs	r0, #0
 1250 0054 FFF7FEFF 		bl	set_motors_symmetric
 220:main.c        **** 
 221:main.c        ****     /* Directions module */
 222:main.c        ****     Directions_Init();
 1251              		.loc 1 222 0
 1252 0058 FFF7FEFF 		bl	Directions_Init
 223:main.c        ****     g_direction = 0u;
 1253              		.loc 1 223 0
 1254 005c 534B     		ldr	r3, .L111+4
 1255 005e 0022     		movs	r2, #0
 1256 0060 1A70     		strb	r2, [r3]
ARM GAS  C:\Users\ylee818\AppData\Local\Temp\ccqANnic.s 			page 27


 224:main.c        **** 
 225:main.c        ****     /* Feed-forward cruise duty (kept) */
 226:main.c        ****     int center_duty_est = (int)((V_CRUISE_MM_S * 100) / VMAX_CONST_MM_S);
 1257              		.loc 1 226 0
 1258 0062 1C23     		movs	r3, #28
 1259 0064 FB61     		str	r3, [r7, #28]
 227:main.c        ****     if (center_duty_est < 0) center_duty_est = 0;
 1260              		.loc 1 227 0
 1261 0066 FB69     		ldr	r3, [r7, #28]
 1262 0068 002B     		cmp	r3, #0
 1263 006a 01DA     		bge	.L96
 1264              		.loc 1 227 0 is_stmt 0 discriminator 1
 1265 006c 0023     		movs	r3, #0
 1266 006e FB61     		str	r3, [r7, #28]
 1267              	.L96:
 228:main.c        ****     if (center_duty_est > 100) center_duty_est = 100;
 1268              		.loc 1 228 0 is_stmt 1
 1269 0070 FB69     		ldr	r3, [r7, #28]
 1270 0072 642B     		cmp	r3, #100
 1271 0074 01DD     		ble	.L97
 1272              		.loc 1 228 0 is_stmt 0 discriminator 1
 1273 0076 6423     		movs	r3, #100
 1274 0078 FB61     		str	r3, [r7, #28]
 1275              	.L97:
 229:main.c        **** 
 230:main.c        ****     /* PI state */
 231:main.c        ****     pi_t pi = { .i = 0.0f, .u = 0.0f, .t_loss = 0.0f };
 1276              		.loc 1 231 0 is_stmt 1
 1277 007a 4FF00003 		mov	r3, #0
 1278 007e FB60     		str	r3, [r7, #12]	@ float
 1279 0080 4FF00003 		mov	r3, #0
 1280 0084 3B61     		str	r3, [r7, #16]	@ float
 1281 0086 4FF00003 		mov	r3, #0
 1282 008a 7B61     		str	r3, [r7, #20]	@ float
 1283              	.L110:
 1284              	.LBB2:
 232:main.c        **** 
 233:main.c        ****     for(;;){
 234:main.c        ****         /* Distance stop */
 235:main.c        ****         g_stop_now = (g_dist_mm >= TARGET_DIST_MM) ? 1u : 0u;
 1285              		.loc 1 235 0
 1286 008c 484B     		ldr	r3, .L111+8
 1287 008e 1B68     		ldr	r3, [r3]
 1288 0090 44F61F62 		movw	r2, #19999
 1289 0094 9342     		cmp	r3, r2
 1290 0096 01DD     		ble	.L98
 1291              		.loc 1 235 0 is_stmt 0 discriminator 1
 1292 0098 0122     		movs	r2, #1
 1293 009a 00E0     		b	.L99
 1294              	.L98:
 1295              		.loc 1 235 0 discriminator 2
 1296 009c 0022     		movs	r2, #0
 1297              	.L99:
 1298              		.loc 1 235 0 discriminator 4
 1299 009e 454B     		ldr	r3, .L111+12
 1300 00a0 1A70     		strb	r2, [r3]
 236:main.c        ****         if (g_stop_now) {
ARM GAS  C:\Users\ylee818\AppData\Local\Temp\ccqANnic.s 			page 28


 1301              		.loc 1 236 0 is_stmt 1 discriminator 4
 1302 00a2 444B     		ldr	r3, .L111+12
 1303 00a4 1B78     		ldrb	r3, [r3]
 1304 00a6 DBB2     		uxtb	r3, r3
 1305 00a8 002B     		cmp	r3, #0
 1306 00aa 0DD0     		beq	.L100
 237:main.c        ****             set_motors_symmetric(0);
 1307              		.loc 1 237 0
 1308 00ac 0020     		movs	r0, #0
 1309 00ae FFF7FEFF 		bl	set_motors_symmetric
 238:main.c        ****             motor_enable(1u, 1u);
 1310              		.loc 1 238 0
 1311 00b2 0121     		movs	r1, #1
 1312 00b4 0120     		movs	r0, #1
 1313 00b6 FFF7FEFF 		bl	motor_enable
 239:main.c        ****             g_direction = 0u;
 1314              		.loc 1 239 0
 1315 00ba 3C4B     		ldr	r3, .L111+4
 1316 00bc 0022     		movs	r2, #0
 1317 00be 1A70     		strb	r2, [r3]
 240:main.c        ****             CyDelay(LOOP_DT_MS);
 1318              		.loc 1 240 0
 1319 00c0 0820     		movs	r0, #8
 1320 00c2 FFF7FEFF 		bl	CyDelay
 241:main.c        ****             continue;
 1321              		.loc 1 241 0
 1322 00c6 6EE0     		b	.L109
 1323              	.L100:
 242:main.c        ****         }
 243:main.c        **** 
 244:main.c        ****         /* Read sensors + maybe request turn */
 245:main.c        ****         uint16_t V4_pp=0, V5_pp=0, V6_pp=0;
 1324              		.loc 1 245 0
 1325 00c8 0023     		movs	r3, #0
 1326 00ca 7B81     		strh	r3, [r7, #10]	@ movhi
 1327 00cc 0023     		movs	r3, #0
 1328 00ce 3B81     		strh	r3, [r7, #8]	@ movhi
 1329 00d0 0023     		movs	r3, #0
 1330 00d2 FB80     		strh	r3, [r7, #6]	@ movhi
 246:main.c        ****         light_sensors_update_and_maybe_request_turn(&V4_pp, &V5_pp, &V6_pp);
 1331              		.loc 1 246 0
 1332 00d4 BA1D     		adds	r2, r7, #6
 1333 00d6 07F10801 		add	r1, r7, #8
 1334 00da 07F10A03 		add	r3, r7, #10
 1335 00de 1846     		mov	r0, r3
 1336 00e0 FFF7FEFF 		bl	light_sensors_update_and_maybe_request_turn
 247:main.c        **** 
 248:main.c        ****         /* ---------------- Turn handling with arming delay (Option A) ---------------- */
 249:main.c        ****         /* Arm once on the first detection (edge 0 -> 1/2) */
 250:main.c        ****         if ((g_direction == 1u || g_direction == 2u) && dir_latched_side == 0){
 1337              		.loc 1 250 0
 1338 00e4 314B     		ldr	r3, .L111+4
 1339 00e6 1B78     		ldrb	r3, [r3]
 1340 00e8 DBB2     		uxtb	r3, r3
 1341 00ea 012B     		cmp	r3, #1
 1342 00ec 04D0     		beq	.L102
 1343              		.loc 1 250 0 is_stmt 0 discriminator 2
ARM GAS  C:\Users\ylee818\AppData\Local\Temp\ccqANnic.s 			page 29


 1344 00ee 2F4B     		ldr	r3, .L111+4
 1345 00f0 1B78     		ldrb	r3, [r3]
 1346 00f2 DBB2     		uxtb	r3, r3
 1347 00f4 022B     		cmp	r3, #2
 1348 00f6 0BD1     		bne	.L103
 1349              	.L102:
 1350              		.loc 1 250 0 discriminator 3
 1351 00f8 2F4B     		ldr	r3, .L111+16
 1352 00fa 1B78     		ldrb	r3, [r3]	@ zero_extendqisi2
 1353 00fc 002B     		cmp	r3, #0
 1354 00fe 07D1     		bne	.L103
 251:main.c        ****             dir_latched_side = g_direction;          /* remember side */
 1355              		.loc 1 251 0 is_stmt 1
 1356 0100 2A4B     		ldr	r3, .L111+4
 1357 0102 1B78     		ldrb	r3, [r3]
 1358 0104 DAB2     		uxtb	r2, r3
 1359 0106 2C4B     		ldr	r3, .L111+16
 1360 0108 1A70     		strb	r2, [r3]
 252:main.c        ****             dir_delay_ticks  = DIR_CALL_DELAY_TICKS; /* start countdown */
 1361              		.loc 1 252 0
 1362 010a 2C4B     		ldr	r3, .L111+20
 1363 010c 0D22     		movs	r2, #13
 1364 010e 1A80     		strh	r2, [r3]	@ movhi
 1365              	.L103:
 253:main.c        ****         }
 254:main.c        ****         /* If request cleared during delay, cancel gracefully */
 255:main.c        ****         if (g_direction == 0u && dir_latched_side != 0){
 1366              		.loc 1 255 0
 1367 0110 264B     		ldr	r3, .L111+4
 1368 0112 1B78     		ldrb	r3, [r3]
 1369 0114 DBB2     		uxtb	r3, r3
 1370 0116 002B     		cmp	r3, #0
 1371 0118 09D1     		bne	.L104
 1372              		.loc 1 255 0 is_stmt 0 discriminator 1
 1373 011a 274B     		ldr	r3, .L111+16
 1374 011c 1B78     		ldrb	r3, [r3]	@ zero_extendqisi2
 1375 011e 002B     		cmp	r3, #0
 1376 0120 05D0     		beq	.L104
 256:main.c        ****             dir_latched_side = 0;
 1377              		.loc 1 256 0 is_stmt 1
 1378 0122 254B     		ldr	r3, .L111+16
 1379 0124 0022     		movs	r2, #0
 1380 0126 1A70     		strb	r2, [r3]
 257:main.c        ****             dir_delay_ticks  = 0;
 1381              		.loc 1 257 0
 1382 0128 244B     		ldr	r3, .L111+20
 1383 012a 0022     		movs	r2, #0
 1384 012c 1A80     		strh	r2, [r3]	@ movhi
 1385              	.L104:
 258:main.c        ****         }
 259:main.c        **** 
 260:main.c        ****         if (g_direction == 1u || g_direction == 2u){
 1386              		.loc 1 260 0
 1387 012e 1F4B     		ldr	r3, .L111+4
 1388 0130 1B78     		ldrb	r3, [r3]
 1389 0132 DBB2     		uxtb	r3, r3
 1390 0134 012B     		cmp	r3, #1
ARM GAS  C:\Users\ylee818\AppData\Local\Temp\ccqANnic.s 			page 30


 1391 0136 04D0     		beq	.L105
 1392              		.loc 1 260 0 is_stmt 0 discriminator 1
 1393 0138 1C4B     		ldr	r3, .L111+4
 1394 013a 1B78     		ldrb	r3, [r3]
 1395 013c DBB2     		uxtb	r3, r3
 1396 013e 022B     		cmp	r3, #2
 1397 0140 22D1     		bne	.L106
 1398              	.L105:
 261:main.c        ****             if (dir_delay_ticks > 0){
 1399              		.loc 1 261 0 is_stmt 1
 1400 0142 1E4B     		ldr	r3, .L111+20
 1401 0144 1B88     		ldrh	r3, [r3]
 1402 0146 002B     		cmp	r3, #0
 1403 0148 06D0     		beq	.L107
 262:main.c        ****                 /* Still delaying: keep doing normal straight PI */
 263:main.c        ****                 dir_delay_ticks--;
 1404              		.loc 1 263 0
 1405 014a 1C4B     		ldr	r3, .L111+20
 1406 014c 1B88     		ldrh	r3, [r3]
 1407 014e 013B     		subs	r3, r3, #1
 1408 0150 9AB2     		uxth	r2, r3
 1409 0152 1A4B     		ldr	r3, .L111+20
 1410 0154 1A80     		strh	r2, [r3]	@ movhi
 1411 0156 17E0     		b	.L106
 1412              	.L107:
 264:main.c        ****             } else {
 265:main.c        ****                 /* Delay elapsed: perform the maneuver */
 266:main.c        ****                 Directions_Handle(&g_direction);
 1413              		.loc 1 266 0
 1414 0158 1448     		ldr	r0, .L111+4
 1415 015a FFF7FEFF 		bl	Directions_Handle
 267:main.c        **** 
 268:main.c        ****                 /* When turn completes, Directions sets g_direction back to 0 */
 269:main.c        ****                 if (g_direction == 0u){
 1416              		.loc 1 269 0
 1417 015e 134B     		ldr	r3, .L111+4
 1418 0160 1B78     		ldrb	r3, [r3]
 1419 0162 DBB2     		uxtb	r3, r3
 1420 0164 002B     		cmp	r3, #0
 1421 0166 0BD1     		bne	.L108
 270:main.c        ****                     pi.i = 0.0f; pi.u = 0.0f; pi.t_loss = 0.0f;  /* clear bias */
 1422              		.loc 1 270 0
 1423 0168 4FF00003 		mov	r3, #0
 1424 016c FB60     		str	r3, [r7, #12]	@ float
 1425 016e 4FF00003 		mov	r3, #0
 1426 0172 3B61     		str	r3, [r7, #16]	@ float
 1427 0174 4FF00003 		mov	r3, #0
 1428 0178 7B61     		str	r3, [r7, #20]	@ float
 271:main.c        ****                     dir_latched_side = 0;                        /* ready next time */
 1429              		.loc 1 271 0
 1430 017a 0F4B     		ldr	r3, .L111+16
 1431 017c 0022     		movs	r2, #0
 1432 017e 1A70     		strb	r2, [r3]
 1433              	.L108:
 272:main.c        ****                 }
 273:main.c        ****                 CyDelay(LOOP_DT_MS);
 1434              		.loc 1 273 0
ARM GAS  C:\Users\ylee818\AppData\Local\Temp\ccqANnic.s 			page 31


 1435 0180 0820     		movs	r0, #8
 1436 0182 FFF7FEFF 		bl	CyDelay
 274:main.c        ****                 continue;  /* skip the rest this tick */
 1437              		.loc 1 274 0
 1438 0186 0EE0     		b	.L109
 1439              	.L106:
 275:main.c        ****             }
 276:main.c        ****         }
 277:main.c        ****         /* ---------------- end turn handling with delay ---------------- */
 278:main.c        **** 
 279:main.c        ****         /* Straight run with PI steering */
 280:main.c        ****         int steer = pi_step(&pi, V4_pp, V5_pp, V6_pp);
 1440              		.loc 1 280 0
 1441 0188 7989     		ldrh	r1, [r7, #10]
 1442 018a 3A89     		ldrh	r2, [r7, #8]
 1443 018c FB88     		ldrh	r3, [r7, #6]
 1444 018e 07F10C00 		add	r0, r7, #12
 1445 0192 FFF7FEFF 		bl	pi_step
 1446 0196 B861     		str	r0, [r7, #24]
 281:main.c        ****         set_motors_with_trim_and_steer(center_duty_est, steer);
 1447              		.loc 1 281 0
 1448 0198 B969     		ldr	r1, [r7, #24]
 1449 019a F869     		ldr	r0, [r7, #28]
 1450 019c FFF7FEFF 		bl	set_motors_with_trim_and_steer
 282:main.c        **** 
 283:main.c        ****         CyDelay(LOOP_DT_MS);
 1451              		.loc 1 283 0
 1452 01a0 0820     		movs	r0, #8
 1453 01a2 FFF7FEFF 		bl	CyDelay
 1454              	.L109:
 1455              	.LBE2:
 284:main.c        ****     }
 1456              		.loc 1 284 0 discriminator 1
 1457 01a6 71E7     		b	.L110
 1458              	.L112:
 1459              		.align	2
 1460              	.L111:
 1461 01a8 00000000 		.word	isr_qd_Handler
 1462 01ac 06000000 		.word	g_direction
 1463 01b0 08000000 		.word	g_dist_mm
 1464 01b4 07000000 		.word	g_stop_now
 1465 01b8 0E000000 		.word	dir_latched_side
 1466 01bc 0C000000 		.word	dir_delay_ticks
 1467              		.cfi_endproc
 1468              	.LFE69:
 1469              		.size	main, .-main
 1470              		.bss
 1471              	s1.8243:
 1472 000f 00       		.space	1
 1473              	s2.8244:
 1474 0010 00       		.space	1
 1475              	clear_cnt.8253:
 1476 0011 00       		.space	1
 1477              	armed.8252:
 1478 0012 00       		.space	1
 1479              	debL.8249:
 1480 0013 00       		.space	1
ARM GAS  C:\Users\ylee818\AppData\Local\Temp\ccqANnic.s 			page 32


 1481              	debR.8250:
 1482 0014 00       		.space	1
 1483              	latched_any.8251:
 1484 0015 00       		.space	1
 1485              		.text
 1486              	.Letext0:
 1487              		.file 2 "c:\\program files (x86)\\cypress\\psoc creator\\4.2\\psoc creator\\import\\gnu\\arm\\5.4.
 1488              		.file 3 "c:\\program files (x86)\\cypress\\psoc creator\\4.2\\psoc creator\\import\\gnu\\arm\\5.4.
 1489              		.file 4 "Generated_Source\\PSoC5/core_cm3.h"