ARM GAS  C:\Users\ylee818\AppData\Local\Temp\ccTMyHIe.s 			page 1


   1              		.syntax unified
   2              		.cpu cortex-m3
   3              		.fpu softvfp
   4              		.eabi_attribute 20, 1
   5              		.eabi_attribute 21, 1
   6              		.eabi_attribute 23, 3
   7              		.eabi_attribute 24, 1
   8              		.eabi_attribute 25, 1
   9              		.eabi_attribute 26, 1
  10              		.eabi_attribute 30, 6
  11              		.eabi_attribute 34, 1
  12              		.eabi_attribute 18, 4
  13              		.thumb
  14              		.syntax unified
  15              		.file	"QuadDec_M1_Cnt16.c"
  16              		.text
  17              	.Ltext0:
  18              		.cfi_sections	.debug_frame
  19              		.global	QuadDec_M1_Cnt16_initVar
  20              		.bss
  21              		.type	QuadDec_M1_Cnt16_initVar, %object
  22              		.size	QuadDec_M1_Cnt16_initVar, 1
  23              	QuadDec_M1_Cnt16_initVar:
  24 0000 00       		.space	1
  25              		.section	.text.QuadDec_M1_Cnt16_Init,"ax",%progbits
  26              		.align	2
  27              		.global	QuadDec_M1_Cnt16_Init
  28              		.thumb
  29              		.thumb_func
  30              		.type	QuadDec_M1_Cnt16_Init, %function
  31              	QuadDec_M1_Cnt16_Init:
  32              	.LFB0:
  33              		.file 1 "Generated_Source\\PSoC5\\QuadDec_M1_Cnt16.c"
   1:Generated_Source\PSoC5/QuadDec_M1_Cnt16.c **** /*******************************************************************************
   2:Generated_Source\PSoC5/QuadDec_M1_Cnt16.c **** * File Name: QuadDec_M1_Cnt16.c  
   3:Generated_Source\PSoC5/QuadDec_M1_Cnt16.c **** * Version 3.0
   4:Generated_Source\PSoC5/QuadDec_M1_Cnt16.c **** *
   5:Generated_Source\PSoC5/QuadDec_M1_Cnt16.c **** *  Description:
   6:Generated_Source\PSoC5/QuadDec_M1_Cnt16.c **** *     The Counter component consists of a 8, 16, 24 or 32-bit counter with
   7:Generated_Source\PSoC5/QuadDec_M1_Cnt16.c **** *     a selectable period between 2 and 2^Width - 1.  
   8:Generated_Source\PSoC5/QuadDec_M1_Cnt16.c **** *
   9:Generated_Source\PSoC5/QuadDec_M1_Cnt16.c **** *   Note:
  10:Generated_Source\PSoC5/QuadDec_M1_Cnt16.c **** *     None
  11:Generated_Source\PSoC5/QuadDec_M1_Cnt16.c **** *
  12:Generated_Source\PSoC5/QuadDec_M1_Cnt16.c **** ********************************************************************************
  13:Generated_Source\PSoC5/QuadDec_M1_Cnt16.c **** * Copyright 2008-2012, Cypress Semiconductor Corporation.  All rights reserved.
  14:Generated_Source\PSoC5/QuadDec_M1_Cnt16.c **** * You may use this file only in accordance with the license, terms, conditions, 
  15:Generated_Source\PSoC5/QuadDec_M1_Cnt16.c **** * disclaimers, and limitations in the end user license agreement accompanying 
  16:Generated_Source\PSoC5/QuadDec_M1_Cnt16.c **** * the software package with which this file was provided.
  17:Generated_Source\PSoC5/QuadDec_M1_Cnt16.c **** *******************************************************************************/
  18:Generated_Source\PSoC5/QuadDec_M1_Cnt16.c **** 
  19:Generated_Source\PSoC5/QuadDec_M1_Cnt16.c **** #include "QuadDec_M1_Cnt16.h"
  20:Generated_Source\PSoC5/QuadDec_M1_Cnt16.c **** 
  21:Generated_Source\PSoC5/QuadDec_M1_Cnt16.c **** uint8 QuadDec_M1_Cnt16_initVar = 0u;
  22:Generated_Source\PSoC5/QuadDec_M1_Cnt16.c **** 
  23:Generated_Source\PSoC5/QuadDec_M1_Cnt16.c **** 
  24:Generated_Source\PSoC5/QuadDec_M1_Cnt16.c **** /*******************************************************************************
ARM GAS  C:\Users\ylee818\AppData\Local\Temp\ccTMyHIe.s 			page 2


  25:Generated_Source\PSoC5/QuadDec_M1_Cnt16.c **** * Function Name: QuadDec_M1_Cnt16_Init
  26:Generated_Source\PSoC5/QuadDec_M1_Cnt16.c **** ********************************************************************************
  27:Generated_Source\PSoC5/QuadDec_M1_Cnt16.c **** * Summary:
  28:Generated_Source\PSoC5/QuadDec_M1_Cnt16.c **** *     Initialize to the schematic state
  29:Generated_Source\PSoC5/QuadDec_M1_Cnt16.c **** * 
  30:Generated_Source\PSoC5/QuadDec_M1_Cnt16.c **** * Parameters:  
  31:Generated_Source\PSoC5/QuadDec_M1_Cnt16.c **** *  void  
  32:Generated_Source\PSoC5/QuadDec_M1_Cnt16.c **** *
  33:Generated_Source\PSoC5/QuadDec_M1_Cnt16.c **** * Return: 
  34:Generated_Source\PSoC5/QuadDec_M1_Cnt16.c **** *  void
  35:Generated_Source\PSoC5/QuadDec_M1_Cnt16.c **** *
  36:Generated_Source\PSoC5/QuadDec_M1_Cnt16.c **** *******************************************************************************/
  37:Generated_Source\PSoC5/QuadDec_M1_Cnt16.c **** void QuadDec_M1_Cnt16_Init(void) 
  38:Generated_Source\PSoC5/QuadDec_M1_Cnt16.c **** {
  34              		.loc 1 38 0
  35              		.cfi_startproc
  36              		@ args = 0, pretend = 0, frame = 8
  37              		@ frame_needed = 1, uses_anonymous_args = 0
  38 0000 80B5     		push	{r7, lr}
  39              		.cfi_def_cfa_offset 8
  40              		.cfi_offset 7, -8
  41              		.cfi_offset 14, -4
  42 0002 82B0     		sub	sp, sp, #8
  43              		.cfi_def_cfa_offset 16
  44 0004 00AF     		add	r7, sp, #0
  45              		.cfi_def_cfa_register 7
  39:Generated_Source\PSoC5/QuadDec_M1_Cnt16.c ****         #if (!QuadDec_M1_Cnt16_UsingFixedFunction && !QuadDec_M1_Cnt16_ControlRegRemoved)
  40:Generated_Source\PSoC5/QuadDec_M1_Cnt16.c ****             uint8 ctrl;
  41:Generated_Source\PSoC5/QuadDec_M1_Cnt16.c ****         #endif /* (!QuadDec_M1_Cnt16_UsingFixedFunction && !QuadDec_M1_Cnt16_ControlRegRemoved) */
  42:Generated_Source\PSoC5/QuadDec_M1_Cnt16.c ****         
  43:Generated_Source\PSoC5/QuadDec_M1_Cnt16.c ****         #if(!QuadDec_M1_Cnt16_UsingFixedFunction) 
  44:Generated_Source\PSoC5/QuadDec_M1_Cnt16.c ****             /* Interrupt State Backup for Critical Region*/
  45:Generated_Source\PSoC5/QuadDec_M1_Cnt16.c ****             uint8 QuadDec_M1_Cnt16_interruptState;
  46:Generated_Source\PSoC5/QuadDec_M1_Cnt16.c ****         #endif /* (!QuadDec_M1_Cnt16_UsingFixedFunction) */
  47:Generated_Source\PSoC5/QuadDec_M1_Cnt16.c ****         
  48:Generated_Source\PSoC5/QuadDec_M1_Cnt16.c ****         #if (QuadDec_M1_Cnt16_UsingFixedFunction)
  49:Generated_Source\PSoC5/QuadDec_M1_Cnt16.c ****             /* Clear all bits but the enable bit (if it's already set for Timer operation */
  50:Generated_Source\PSoC5/QuadDec_M1_Cnt16.c ****             QuadDec_M1_Cnt16_CONTROL &= QuadDec_M1_Cnt16_CTRL_ENABLE;
  51:Generated_Source\PSoC5/QuadDec_M1_Cnt16.c ****             
  52:Generated_Source\PSoC5/QuadDec_M1_Cnt16.c ****             /* Clear the mode bits for continuous run mode */
  53:Generated_Source\PSoC5/QuadDec_M1_Cnt16.c ****             #if (CY_PSOC5A)
  54:Generated_Source\PSoC5/QuadDec_M1_Cnt16.c ****                 QuadDec_M1_Cnt16_CONTROL2 &= ((uint8)(~QuadDec_M1_Cnt16_CTRL_MODE_MASK));
  55:Generated_Source\PSoC5/QuadDec_M1_Cnt16.c ****             #endif /* (CY_PSOC5A) */
  56:Generated_Source\PSoC5/QuadDec_M1_Cnt16.c ****             #if (CY_PSOC3 || CY_PSOC5LP)
  57:Generated_Source\PSoC5/QuadDec_M1_Cnt16.c ****                 QuadDec_M1_Cnt16_CONTROL3 &= ((uint8)(~QuadDec_M1_Cnt16_CTRL_MODE_MASK));          
  58:Generated_Source\PSoC5/QuadDec_M1_Cnt16.c ****             #endif /* (CY_PSOC3 || CY_PSOC5LP) */
  59:Generated_Source\PSoC5/QuadDec_M1_Cnt16.c ****             /* Check if One Shot mode is enabled i.e. RunMode !=0*/
  60:Generated_Source\PSoC5/QuadDec_M1_Cnt16.c ****             #if (QuadDec_M1_Cnt16_RunModeUsed != 0x0u)
  61:Generated_Source\PSoC5/QuadDec_M1_Cnt16.c ****                 /* Set 3rd bit of Control register to enable one shot mode */
  62:Generated_Source\PSoC5/QuadDec_M1_Cnt16.c ****                 QuadDec_M1_Cnt16_CONTROL |= QuadDec_M1_Cnt16_ONESHOT;
  63:Generated_Source\PSoC5/QuadDec_M1_Cnt16.c ****             #endif /* (QuadDec_M1_Cnt16_RunModeUsed != 0x0u) */
  64:Generated_Source\PSoC5/QuadDec_M1_Cnt16.c ****             
  65:Generated_Source\PSoC5/QuadDec_M1_Cnt16.c ****             /* Set the IRQ to use the status register interrupts */
  66:Generated_Source\PSoC5/QuadDec_M1_Cnt16.c ****             QuadDec_M1_Cnt16_CONTROL2 |= QuadDec_M1_Cnt16_CTRL2_IRQ_SEL;
  67:Generated_Source\PSoC5/QuadDec_M1_Cnt16.c ****             
  68:Generated_Source\PSoC5/QuadDec_M1_Cnt16.c ****             /* Clear and Set SYNCTC and SYNCCMP bits of RT1 register */
  69:Generated_Source\PSoC5/QuadDec_M1_Cnt16.c ****             QuadDec_M1_Cnt16_RT1 &= ((uint8)(~QuadDec_M1_Cnt16_RT1_MASK));
ARM GAS  C:\Users\ylee818\AppData\Local\Temp\ccTMyHIe.s 			page 3


  70:Generated_Source\PSoC5/QuadDec_M1_Cnt16.c ****             QuadDec_M1_Cnt16_RT1 |= QuadDec_M1_Cnt16_SYNC;     
  71:Generated_Source\PSoC5/QuadDec_M1_Cnt16.c ****                     
  72:Generated_Source\PSoC5/QuadDec_M1_Cnt16.c ****             /*Enable DSI Sync all all inputs of the Timer*/
  73:Generated_Source\PSoC5/QuadDec_M1_Cnt16.c ****             QuadDec_M1_Cnt16_RT1 &= ((uint8)(~QuadDec_M1_Cnt16_SYNCDSI_MASK));
  74:Generated_Source\PSoC5/QuadDec_M1_Cnt16.c ****             QuadDec_M1_Cnt16_RT1 |= QuadDec_M1_Cnt16_SYNCDSI_EN;
  75:Generated_Source\PSoC5/QuadDec_M1_Cnt16.c **** 
  76:Generated_Source\PSoC5/QuadDec_M1_Cnt16.c ****         #else
  77:Generated_Source\PSoC5/QuadDec_M1_Cnt16.c ****             #if(!QuadDec_M1_Cnt16_ControlRegRemoved)
  78:Generated_Source\PSoC5/QuadDec_M1_Cnt16.c ****             /* Set the default compare mode defined in the parameter */
  79:Generated_Source\PSoC5/QuadDec_M1_Cnt16.c ****             ctrl = QuadDec_M1_Cnt16_CONTROL & ((uint8)(~QuadDec_M1_Cnt16_CTRL_CMPMODE_MASK));
  46              		.loc 1 79 0
  47 0006 1C4B     		ldr	r3, .L2
  48 0008 1B78     		ldrb	r3, [r3]
  49 000a DBB2     		uxtb	r3, r3
  50 000c 23F00703 		bic	r3, r3, #7
  51 0010 FB71     		strb	r3, [r7, #7]
  80:Generated_Source\PSoC5/QuadDec_M1_Cnt16.c ****             QuadDec_M1_Cnt16_CONTROL = ctrl | QuadDec_M1_Cnt16_DEFAULT_COMPARE_MODE;
  52              		.loc 1 80 0
  53 0012 194A     		ldr	r2, .L2
  54 0014 FB79     		ldrb	r3, [r7, #7]
  55 0016 1370     		strb	r3, [r2]
  81:Generated_Source\PSoC5/QuadDec_M1_Cnt16.c ****             
  82:Generated_Source\PSoC5/QuadDec_M1_Cnt16.c ****             /* Set the default capture mode defined in the parameter */
  83:Generated_Source\PSoC5/QuadDec_M1_Cnt16.c ****             ctrl = QuadDec_M1_Cnt16_CONTROL & ((uint8)(~QuadDec_M1_Cnt16_CTRL_CAPMODE_MASK));
  56              		.loc 1 83 0
  57 0018 174B     		ldr	r3, .L2
  58 001a 1B78     		ldrb	r3, [r3]
  59 001c DBB2     		uxtb	r3, r3
  60 001e 23F00303 		bic	r3, r3, #3
  61 0022 FB71     		strb	r3, [r7, #7]
  84:Generated_Source\PSoC5/QuadDec_M1_Cnt16.c ****             
  85:Generated_Source\PSoC5/QuadDec_M1_Cnt16.c ****             #if( 0 != QuadDec_M1_Cnt16_CAPTURE_MODE_CONF)
  86:Generated_Source\PSoC5/QuadDec_M1_Cnt16.c ****                 QuadDec_M1_Cnt16_CONTROL = ctrl | QuadDec_M1_Cnt16_DEFAULT_CAPTURE_MODE;
  87:Generated_Source\PSoC5/QuadDec_M1_Cnt16.c ****             #else
  88:Generated_Source\PSoC5/QuadDec_M1_Cnt16.c ****                 QuadDec_M1_Cnt16_CONTROL = ctrl;
  62              		.loc 1 88 0
  63 0024 144A     		ldr	r2, .L2
  64 0026 FB79     		ldrb	r3, [r7, #7]
  65 0028 1370     		strb	r3, [r2]
  89:Generated_Source\PSoC5/QuadDec_M1_Cnt16.c ****             #endif /* 0 != QuadDec_M1_Cnt16_CAPTURE_MODE */ 
  90:Generated_Source\PSoC5/QuadDec_M1_Cnt16.c ****             
  91:Generated_Source\PSoC5/QuadDec_M1_Cnt16.c ****             #endif /* (!QuadDec_M1_Cnt16_ControlRegRemoved) */
  92:Generated_Source\PSoC5/QuadDec_M1_Cnt16.c ****         #endif /* (QuadDec_M1_Cnt16_UsingFixedFunction) */
  93:Generated_Source\PSoC5/QuadDec_M1_Cnt16.c ****         
  94:Generated_Source\PSoC5/QuadDec_M1_Cnt16.c ****         /* Clear all data in the FIFO's */
  95:Generated_Source\PSoC5/QuadDec_M1_Cnt16.c ****         #if (!QuadDec_M1_Cnt16_UsingFixedFunction)
  96:Generated_Source\PSoC5/QuadDec_M1_Cnt16.c ****             QuadDec_M1_Cnt16_ClearFIFO();
  66              		.loc 1 96 0
  67 002a FFF7FEFF 		bl	QuadDec_M1_Cnt16_ClearFIFO
  97:Generated_Source\PSoC5/QuadDec_M1_Cnt16.c ****         #endif /* (!QuadDec_M1_Cnt16_UsingFixedFunction) */
  98:Generated_Source\PSoC5/QuadDec_M1_Cnt16.c ****         
  99:Generated_Source\PSoC5/QuadDec_M1_Cnt16.c ****         /* Set Initial values from Configuration */
 100:Generated_Source\PSoC5/QuadDec_M1_Cnt16.c ****         QuadDec_M1_Cnt16_WritePeriod(QuadDec_M1_Cnt16_INIT_PERIOD_VALUE);
  68              		.loc 1 100 0
  69 002e 4FF40040 		mov	r0, #32768
  70 0032 FFF7FEFF 		bl	QuadDec_M1_Cnt16_WritePeriod
 101:Generated_Source\PSoC5/QuadDec_M1_Cnt16.c ****         #if (!(QuadDec_M1_Cnt16_UsingFixedFunction && (CY_PSOC5A)))
ARM GAS  C:\Users\ylee818\AppData\Local\Temp\ccTMyHIe.s 			page 4


 102:Generated_Source\PSoC5/QuadDec_M1_Cnt16.c ****             QuadDec_M1_Cnt16_WriteCounter(QuadDec_M1_Cnt16_INIT_COUNTER_VALUE);
  71              		.loc 1 102 0
  72 0036 4FF40040 		mov	r0, #32768
  73 003a FFF7FEFF 		bl	QuadDec_M1_Cnt16_WriteCounter
 103:Generated_Source\PSoC5/QuadDec_M1_Cnt16.c ****         #endif /* (!(QuadDec_M1_Cnt16_UsingFixedFunction && (CY_PSOC5A))) */
 104:Generated_Source\PSoC5/QuadDec_M1_Cnt16.c ****         QuadDec_M1_Cnt16_SetInterruptMode(QuadDec_M1_Cnt16_INIT_INTERRUPTS_MASK);
  74              		.loc 1 104 0
  75 003e 0020     		movs	r0, #0
  76 0040 FFF7FEFF 		bl	QuadDec_M1_Cnt16_SetInterruptMode
 105:Generated_Source\PSoC5/QuadDec_M1_Cnt16.c ****         
 106:Generated_Source\PSoC5/QuadDec_M1_Cnt16.c ****         #if (!QuadDec_M1_Cnt16_UsingFixedFunction)
 107:Generated_Source\PSoC5/QuadDec_M1_Cnt16.c ****             /* Read the status register to clear the unwanted interrupts */
 108:Generated_Source\PSoC5/QuadDec_M1_Cnt16.c ****             (void)QuadDec_M1_Cnt16_ReadStatusRegister();
  77              		.loc 1 108 0
  78 0044 FFF7FEFF 		bl	QuadDec_M1_Cnt16_ReadStatusRegister
 109:Generated_Source\PSoC5/QuadDec_M1_Cnt16.c ****             /* Set the compare value (only available to non-fixed function implementation */
 110:Generated_Source\PSoC5/QuadDec_M1_Cnt16.c ****             QuadDec_M1_Cnt16_WriteCompare(QuadDec_M1_Cnt16_INIT_COMPARE_VALUE);
  79              		.loc 1 110 0
  80 0048 4FF40040 		mov	r0, #32768
  81 004c FFF7FEFF 		bl	QuadDec_M1_Cnt16_WriteCompare
 111:Generated_Source\PSoC5/QuadDec_M1_Cnt16.c ****             /* Use the interrupt output of the status register for IRQ output */
 112:Generated_Source\PSoC5/QuadDec_M1_Cnt16.c ****             
 113:Generated_Source\PSoC5/QuadDec_M1_Cnt16.c ****             /* CyEnterCriticalRegion and CyExitCriticalRegion are used to mark following region cri
 114:Generated_Source\PSoC5/QuadDec_M1_Cnt16.c ****             /* Enter Critical Region*/
 115:Generated_Source\PSoC5/QuadDec_M1_Cnt16.c ****             QuadDec_M1_Cnt16_interruptState = CyEnterCriticalSection();
  82              		.loc 1 115 0
  83 0050 FFF7FEFF 		bl	CyEnterCriticalSection
  84 0054 0346     		mov	r3, r0
  85 0056 BB71     		strb	r3, [r7, #6]
 116:Generated_Source\PSoC5/QuadDec_M1_Cnt16.c ****             
 117:Generated_Source\PSoC5/QuadDec_M1_Cnt16.c ****             QuadDec_M1_Cnt16_STATUS_AUX_CTRL |= QuadDec_M1_Cnt16_STATUS_ACTL_INT_EN_MASK;
  86              		.loc 1 117 0
  87 0058 084A     		ldr	r2, .L2+4
  88 005a 084B     		ldr	r3, .L2+4
  89 005c 1B78     		ldrb	r3, [r3]
  90 005e DBB2     		uxtb	r3, r3
  91 0060 43F01003 		orr	r3, r3, #16
  92 0064 DBB2     		uxtb	r3, r3
  93 0066 1370     		strb	r3, [r2]
 118:Generated_Source\PSoC5/QuadDec_M1_Cnt16.c ****             
 119:Generated_Source\PSoC5/QuadDec_M1_Cnt16.c ****             /* Exit Critical Region*/
 120:Generated_Source\PSoC5/QuadDec_M1_Cnt16.c ****             CyExitCriticalSection(QuadDec_M1_Cnt16_interruptState);
  94              		.loc 1 120 0
  95 0068 BB79     		ldrb	r3, [r7, #6]	@ zero_extendqisi2
  96 006a 1846     		mov	r0, r3
  97 006c FFF7FEFF 		bl	CyExitCriticalSection
 121:Generated_Source\PSoC5/QuadDec_M1_Cnt16.c ****             
 122:Generated_Source\PSoC5/QuadDec_M1_Cnt16.c ****         #endif /* (!QuadDec_M1_Cnt16_UsingFixedFunction) */
 123:Generated_Source\PSoC5/QuadDec_M1_Cnt16.c **** }
  98              		.loc 1 123 0
  99 0070 00BF     		nop
 100 0072 0837     		adds	r7, r7, #8
 101              		.cfi_def_cfa_offset 8
 102 0074 BD46     		mov	sp, r7
 103              		.cfi_def_cfa_register 13
 104              		@ sp needed
 105 0076 80BD     		pop	{r7, pc}
ARM GAS  C:\Users\ylee818\AppData\Local\Temp\ccTMyHIe.s 			page 5


 106              	.L3:
 107              		.align	2
 108              	.L2:
 109 0078 76650040 		.word	1073767798
 110 007c 94640040 		.word	1073767572
 111              		.cfi_endproc
 112              	.LFE0:
 113              		.size	QuadDec_M1_Cnt16_Init, .-QuadDec_M1_Cnt16_Init
 114              		.section	.text.QuadDec_M1_Cnt16_Enable,"ax",%progbits
 115              		.align	2
 116              		.global	QuadDec_M1_Cnt16_Enable
 117              		.thumb
 118              		.thumb_func
 119              		.type	QuadDec_M1_Cnt16_Enable, %function
 120              	QuadDec_M1_Cnt16_Enable:
 121              	.LFB1:
 124:Generated_Source\PSoC5/QuadDec_M1_Cnt16.c **** 
 125:Generated_Source\PSoC5/QuadDec_M1_Cnt16.c **** 
 126:Generated_Source\PSoC5/QuadDec_M1_Cnt16.c **** /*******************************************************************************
 127:Generated_Source\PSoC5/QuadDec_M1_Cnt16.c **** * Function Name: QuadDec_M1_Cnt16_Enable
 128:Generated_Source\PSoC5/QuadDec_M1_Cnt16.c **** ********************************************************************************
 129:Generated_Source\PSoC5/QuadDec_M1_Cnt16.c **** * Summary:
 130:Generated_Source\PSoC5/QuadDec_M1_Cnt16.c **** *     Enable the Counter
 131:Generated_Source\PSoC5/QuadDec_M1_Cnt16.c **** * 
 132:Generated_Source\PSoC5/QuadDec_M1_Cnt16.c **** * Parameters:  
 133:Generated_Source\PSoC5/QuadDec_M1_Cnt16.c **** *  void  
 134:Generated_Source\PSoC5/QuadDec_M1_Cnt16.c **** *
 135:Generated_Source\PSoC5/QuadDec_M1_Cnt16.c **** * Return: 
 136:Generated_Source\PSoC5/QuadDec_M1_Cnt16.c **** *  void
 137:Generated_Source\PSoC5/QuadDec_M1_Cnt16.c **** *
 138:Generated_Source\PSoC5/QuadDec_M1_Cnt16.c **** * Side Effects: 
 139:Generated_Source\PSoC5/QuadDec_M1_Cnt16.c **** *   If the Enable mode is set to Hardware only then this function has no effect 
 140:Generated_Source\PSoC5/QuadDec_M1_Cnt16.c **** *   on the operation of the counter.
 141:Generated_Source\PSoC5/QuadDec_M1_Cnt16.c **** *
 142:Generated_Source\PSoC5/QuadDec_M1_Cnt16.c **** *******************************************************************************/
 143:Generated_Source\PSoC5/QuadDec_M1_Cnt16.c **** void QuadDec_M1_Cnt16_Enable(void) 
 144:Generated_Source\PSoC5/QuadDec_M1_Cnt16.c **** {
 122              		.loc 1 144 0
 123              		.cfi_startproc
 124              		@ args = 0, pretend = 0, frame = 0
 125              		@ frame_needed = 1, uses_anonymous_args = 0
 126              		@ link register save eliminated.
 127 0000 80B4     		push	{r7}
 128              		.cfi_def_cfa_offset 4
 129              		.cfi_offset 7, -4
 130 0002 00AF     		add	r7, sp, #0
 131              		.cfi_def_cfa_register 7
 145:Generated_Source\PSoC5/QuadDec_M1_Cnt16.c ****     /* Globally Enable the Fixed Function Block chosen */
 146:Generated_Source\PSoC5/QuadDec_M1_Cnt16.c ****     #if (QuadDec_M1_Cnt16_UsingFixedFunction)
 147:Generated_Source\PSoC5/QuadDec_M1_Cnt16.c ****         QuadDec_M1_Cnt16_GLOBAL_ENABLE |= QuadDec_M1_Cnt16_BLOCK_EN_MASK;
 148:Generated_Source\PSoC5/QuadDec_M1_Cnt16.c ****         QuadDec_M1_Cnt16_GLOBAL_STBY_ENABLE |= QuadDec_M1_Cnt16_BLOCK_STBY_EN_MASK;
 149:Generated_Source\PSoC5/QuadDec_M1_Cnt16.c ****     #endif /* (QuadDec_M1_Cnt16_UsingFixedFunction) */  
 150:Generated_Source\PSoC5/QuadDec_M1_Cnt16.c ****         
 151:Generated_Source\PSoC5/QuadDec_M1_Cnt16.c ****     /* Enable the counter from the control register  */
 152:Generated_Source\PSoC5/QuadDec_M1_Cnt16.c ****     /* If Fixed Function then make sure Mode is set correctly */
 153:Generated_Source\PSoC5/QuadDec_M1_Cnt16.c ****     /* else make sure reset is clear */
 154:Generated_Source\PSoC5/QuadDec_M1_Cnt16.c ****     #if(!QuadDec_M1_Cnt16_ControlRegRemoved || QuadDec_M1_Cnt16_UsingFixedFunction)
ARM GAS  C:\Users\ylee818\AppData\Local\Temp\ccTMyHIe.s 			page 6


 155:Generated_Source\PSoC5/QuadDec_M1_Cnt16.c ****         QuadDec_M1_Cnt16_CONTROL |= QuadDec_M1_Cnt16_CTRL_ENABLE;                
 132              		.loc 1 155 0
 133 0004 054A     		ldr	r2, .L5
 134 0006 054B     		ldr	r3, .L5
 135 0008 1B78     		ldrb	r3, [r3]
 136 000a DBB2     		uxtb	r3, r3
 137 000c 63F07F03 		orn	r3, r3, #127
 138 0010 DBB2     		uxtb	r3, r3
 139 0012 1370     		strb	r3, [r2]
 156:Generated_Source\PSoC5/QuadDec_M1_Cnt16.c ****     #endif /* (!QuadDec_M1_Cnt16_ControlRegRemoved || QuadDec_M1_Cnt16_UsingFixedFunction) */
 157:Generated_Source\PSoC5/QuadDec_M1_Cnt16.c ****     
 158:Generated_Source\PSoC5/QuadDec_M1_Cnt16.c **** }
 140              		.loc 1 158 0
 141 0014 00BF     		nop
 142 0016 BD46     		mov	sp, r7
 143              		.cfi_def_cfa_register 13
 144              		@ sp needed
 145 0018 80BC     		pop	{r7}
 146              		.cfi_restore 7
 147              		.cfi_def_cfa_offset 0
 148 001a 7047     		bx	lr
 149              	.L6:
 150              		.align	2
 151              	.L5:
 152 001c 76650040 		.word	1073767798
 153              		.cfi_endproc
 154              	.LFE1:
 155              		.size	QuadDec_M1_Cnt16_Enable, .-QuadDec_M1_Cnt16_Enable
 156              		.section	.text.QuadDec_M1_Cnt16_Start,"ax",%progbits
 157              		.align	2
 158              		.global	QuadDec_M1_Cnt16_Start
 159              		.thumb
 160              		.thumb_func
 161              		.type	QuadDec_M1_Cnt16_Start, %function
 162              	QuadDec_M1_Cnt16_Start:
 163              	.LFB2:
 159:Generated_Source\PSoC5/QuadDec_M1_Cnt16.c **** 
 160:Generated_Source\PSoC5/QuadDec_M1_Cnt16.c **** 
 161:Generated_Source\PSoC5/QuadDec_M1_Cnt16.c **** /*******************************************************************************
 162:Generated_Source\PSoC5/QuadDec_M1_Cnt16.c **** * Function Name: QuadDec_M1_Cnt16_Start
 163:Generated_Source\PSoC5/QuadDec_M1_Cnt16.c **** ********************************************************************************
 164:Generated_Source\PSoC5/QuadDec_M1_Cnt16.c **** * Summary:
 165:Generated_Source\PSoC5/QuadDec_M1_Cnt16.c **** *  Enables the counter for operation 
 166:Generated_Source\PSoC5/QuadDec_M1_Cnt16.c **** *
 167:Generated_Source\PSoC5/QuadDec_M1_Cnt16.c **** * Parameters:  
 168:Generated_Source\PSoC5/QuadDec_M1_Cnt16.c **** *  void  
 169:Generated_Source\PSoC5/QuadDec_M1_Cnt16.c **** *
 170:Generated_Source\PSoC5/QuadDec_M1_Cnt16.c **** * Return: 
 171:Generated_Source\PSoC5/QuadDec_M1_Cnt16.c **** *  void
 172:Generated_Source\PSoC5/QuadDec_M1_Cnt16.c **** *
 173:Generated_Source\PSoC5/QuadDec_M1_Cnt16.c **** * Global variables:
 174:Generated_Source\PSoC5/QuadDec_M1_Cnt16.c **** *  QuadDec_M1_Cnt16_initVar: Is modified when this function is called for the  
 175:Generated_Source\PSoC5/QuadDec_M1_Cnt16.c **** *   first time. Is used to ensure that initialization happens only once.
 176:Generated_Source\PSoC5/QuadDec_M1_Cnt16.c **** *
 177:Generated_Source\PSoC5/QuadDec_M1_Cnt16.c **** *******************************************************************************/
 178:Generated_Source\PSoC5/QuadDec_M1_Cnt16.c **** void QuadDec_M1_Cnt16_Start(void) 
 179:Generated_Source\PSoC5/QuadDec_M1_Cnt16.c **** {
ARM GAS  C:\Users\ylee818\AppData\Local\Temp\ccTMyHIe.s 			page 7


 164              		.loc 1 179 0
 165              		.cfi_startproc
 166              		@ args = 0, pretend = 0, frame = 0
 167              		@ frame_needed = 1, uses_anonymous_args = 0
 168 0000 80B5     		push	{r7, lr}
 169              		.cfi_def_cfa_offset 8
 170              		.cfi_offset 7, -8
 171              		.cfi_offset 14, -4
 172 0002 00AF     		add	r7, sp, #0
 173              		.cfi_def_cfa_register 7
 180:Generated_Source\PSoC5/QuadDec_M1_Cnt16.c ****     if(QuadDec_M1_Cnt16_initVar == 0u)
 174              		.loc 1 180 0
 175 0004 064B     		ldr	r3, .L9
 176 0006 1B78     		ldrb	r3, [r3]	@ zero_extendqisi2
 177 0008 002B     		cmp	r3, #0
 178 000a 04D1     		bne	.L8
 181:Generated_Source\PSoC5/QuadDec_M1_Cnt16.c ****     {
 182:Generated_Source\PSoC5/QuadDec_M1_Cnt16.c ****         QuadDec_M1_Cnt16_Init();
 179              		.loc 1 182 0
 180 000c FFF7FEFF 		bl	QuadDec_M1_Cnt16_Init
 183:Generated_Source\PSoC5/QuadDec_M1_Cnt16.c ****         
 184:Generated_Source\PSoC5/QuadDec_M1_Cnt16.c ****         QuadDec_M1_Cnt16_initVar = 1u; /* Clear this bit for Initialization */        
 181              		.loc 1 184 0
 182 0010 034B     		ldr	r3, .L9
 183 0012 0122     		movs	r2, #1
 184 0014 1A70     		strb	r2, [r3]
 185              	.L8:
 185:Generated_Source\PSoC5/QuadDec_M1_Cnt16.c ****     }
 186:Generated_Source\PSoC5/QuadDec_M1_Cnt16.c ****     
 187:Generated_Source\PSoC5/QuadDec_M1_Cnt16.c ****     /* Enable the Counter */
 188:Generated_Source\PSoC5/QuadDec_M1_Cnt16.c ****     QuadDec_M1_Cnt16_Enable();        
 186              		.loc 1 188 0
 187 0016 FFF7FEFF 		bl	QuadDec_M1_Cnt16_Enable
 189:Generated_Source\PSoC5/QuadDec_M1_Cnt16.c **** }
 188              		.loc 1 189 0
 189 001a 00BF     		nop
 190 001c 80BD     		pop	{r7, pc}
 191              	.L10:
 192 001e 00BF     		.align	2
 193              	.L9:
 194 0020 00000000 		.word	QuadDec_M1_Cnt16_initVar
 195              		.cfi_endproc
 196              	.LFE2:
 197              		.size	QuadDec_M1_Cnt16_Start, .-QuadDec_M1_Cnt16_Start
 198              		.section	.text.QuadDec_M1_Cnt16_Stop,"ax",%progbits
 199              		.align	2
 200              		.global	QuadDec_M1_Cnt16_Stop
 201              		.thumb
 202              		.thumb_func
 203              		.type	QuadDec_M1_Cnt16_Stop, %function
 204              	QuadDec_M1_Cnt16_Stop:
 205              	.LFB3:
 190:Generated_Source\PSoC5/QuadDec_M1_Cnt16.c **** 
 191:Generated_Source\PSoC5/QuadDec_M1_Cnt16.c **** 
 192:Generated_Source\PSoC5/QuadDec_M1_Cnt16.c **** /*******************************************************************************
 193:Generated_Source\PSoC5/QuadDec_M1_Cnt16.c **** * Function Name: QuadDec_M1_Cnt16_Stop
 194:Generated_Source\PSoC5/QuadDec_M1_Cnt16.c **** ********************************************************************************
ARM GAS  C:\Users\ylee818\AppData\Local\Temp\ccTMyHIe.s 			page 8


 195:Generated_Source\PSoC5/QuadDec_M1_Cnt16.c **** * Summary:
 196:Generated_Source\PSoC5/QuadDec_M1_Cnt16.c **** * Halts the counter, but does not change any modes or disable interrupts.
 197:Generated_Source\PSoC5/QuadDec_M1_Cnt16.c **** *
 198:Generated_Source\PSoC5/QuadDec_M1_Cnt16.c **** * Parameters:  
 199:Generated_Source\PSoC5/QuadDec_M1_Cnt16.c **** *  void  
 200:Generated_Source\PSoC5/QuadDec_M1_Cnt16.c **** *
 201:Generated_Source\PSoC5/QuadDec_M1_Cnt16.c **** * Return: 
 202:Generated_Source\PSoC5/QuadDec_M1_Cnt16.c **** *  void
 203:Generated_Source\PSoC5/QuadDec_M1_Cnt16.c **** *
 204:Generated_Source\PSoC5/QuadDec_M1_Cnt16.c **** * Side Effects: If the Enable mode is set to Hardware only then this function
 205:Generated_Source\PSoC5/QuadDec_M1_Cnt16.c **** *               has no effect on the operation of the counter.
 206:Generated_Source\PSoC5/QuadDec_M1_Cnt16.c **** *
 207:Generated_Source\PSoC5/QuadDec_M1_Cnt16.c **** *******************************************************************************/
 208:Generated_Source\PSoC5/QuadDec_M1_Cnt16.c **** void QuadDec_M1_Cnt16_Stop(void) 
 209:Generated_Source\PSoC5/QuadDec_M1_Cnt16.c **** {
 206              		.loc 1 209 0
 207              		.cfi_startproc
 208              		@ args = 0, pretend = 0, frame = 0
 209              		@ frame_needed = 1, uses_anonymous_args = 0
 210              		@ link register save eliminated.
 211 0000 80B4     		push	{r7}
 212              		.cfi_def_cfa_offset 4
 213              		.cfi_offset 7, -4
 214 0002 00AF     		add	r7, sp, #0
 215              		.cfi_def_cfa_register 7
 210:Generated_Source\PSoC5/QuadDec_M1_Cnt16.c ****     /* Disable Counter */
 211:Generated_Source\PSoC5/QuadDec_M1_Cnt16.c ****     #if(!QuadDec_M1_Cnt16_ControlRegRemoved || QuadDec_M1_Cnt16_UsingFixedFunction)
 212:Generated_Source\PSoC5/QuadDec_M1_Cnt16.c ****         QuadDec_M1_Cnt16_CONTROL &= ((uint8)(~QuadDec_M1_Cnt16_CTRL_ENABLE));        
 216              		.loc 1 212 0
 217 0004 054A     		ldr	r2, .L12
 218 0006 054B     		ldr	r3, .L12
 219 0008 1B78     		ldrb	r3, [r3]
 220 000a DBB2     		uxtb	r3, r3
 221 000c 03F07F03 		and	r3, r3, #127
 222 0010 DBB2     		uxtb	r3, r3
 223 0012 1370     		strb	r3, [r2]
 213:Generated_Source\PSoC5/QuadDec_M1_Cnt16.c ****     #endif /* (!QuadDec_M1_Cnt16_ControlRegRemoved || QuadDec_M1_Cnt16_UsingFixedFunction) */
 214:Generated_Source\PSoC5/QuadDec_M1_Cnt16.c ****     
 215:Generated_Source\PSoC5/QuadDec_M1_Cnt16.c ****     /* Globally disable the Fixed Function Block chosen */
 216:Generated_Source\PSoC5/QuadDec_M1_Cnt16.c ****     #if (QuadDec_M1_Cnt16_UsingFixedFunction)
 217:Generated_Source\PSoC5/QuadDec_M1_Cnt16.c ****         QuadDec_M1_Cnt16_GLOBAL_ENABLE &= ((uint8)(~QuadDec_M1_Cnt16_BLOCK_EN_MASK));
 218:Generated_Source\PSoC5/QuadDec_M1_Cnt16.c ****         QuadDec_M1_Cnt16_GLOBAL_STBY_ENABLE &= ((uint8)(~QuadDec_M1_Cnt16_BLOCK_STBY_EN_MASK));
 219:Generated_Source\PSoC5/QuadDec_M1_Cnt16.c ****     #endif /* (QuadDec_M1_Cnt16_UsingFixedFunction) */
 220:Generated_Source\PSoC5/QuadDec_M1_Cnt16.c **** }
 224              		.loc 1 220 0
 225 0014 00BF     		nop
 226 0016 BD46     		mov	sp, r7
 227              		.cfi_def_cfa_register 13
 228              		@ sp needed
 229 0018 80BC     		pop	{r7}
 230              		.cfi_restore 7
 231              		.cfi_def_cfa_offset 0
 232 001a 7047     		bx	lr
 233              	.L13:
 234              		.align	2
 235              	.L12:
 236 001c 76650040 		.word	1073767798
ARM GAS  C:\Users\ylee818\AppData\Local\Temp\ccTMyHIe.s 			page 9


 237              		.cfi_endproc
 238              	.LFE3:
 239              		.size	QuadDec_M1_Cnt16_Stop, .-QuadDec_M1_Cnt16_Stop
 240              		.section	.text.QuadDec_M1_Cnt16_SetInterruptMode,"ax",%progbits
 241              		.align	2
 242              		.global	QuadDec_M1_Cnt16_SetInterruptMode
 243              		.thumb
 244              		.thumb_func
 245              		.type	QuadDec_M1_Cnt16_SetInterruptMode, %function
 246              	QuadDec_M1_Cnt16_SetInterruptMode:
 247              	.LFB4:
 221:Generated_Source\PSoC5/QuadDec_M1_Cnt16.c **** 
 222:Generated_Source\PSoC5/QuadDec_M1_Cnt16.c **** 
 223:Generated_Source\PSoC5/QuadDec_M1_Cnt16.c **** /*******************************************************************************
 224:Generated_Source\PSoC5/QuadDec_M1_Cnt16.c **** * Function Name: QuadDec_M1_Cnt16_SetInterruptMode
 225:Generated_Source\PSoC5/QuadDec_M1_Cnt16.c **** ********************************************************************************
 226:Generated_Source\PSoC5/QuadDec_M1_Cnt16.c **** * Summary:
 227:Generated_Source\PSoC5/QuadDec_M1_Cnt16.c **** * Configures which interrupt sources are enabled to generate the final interrupt
 228:Generated_Source\PSoC5/QuadDec_M1_Cnt16.c **** *
 229:Generated_Source\PSoC5/QuadDec_M1_Cnt16.c **** * Parameters:  
 230:Generated_Source\PSoC5/QuadDec_M1_Cnt16.c **** *  InterruptsMask: This parameter is an or'd collection of the status bits
 231:Generated_Source\PSoC5/QuadDec_M1_Cnt16.c **** *                   which will be allowed to generate the counters interrupt.   
 232:Generated_Source\PSoC5/QuadDec_M1_Cnt16.c **** *
 233:Generated_Source\PSoC5/QuadDec_M1_Cnt16.c **** * Return: 
 234:Generated_Source\PSoC5/QuadDec_M1_Cnt16.c **** *  void
 235:Generated_Source\PSoC5/QuadDec_M1_Cnt16.c **** *
 236:Generated_Source\PSoC5/QuadDec_M1_Cnt16.c **** *******************************************************************************/
 237:Generated_Source\PSoC5/QuadDec_M1_Cnt16.c **** void QuadDec_M1_Cnt16_SetInterruptMode(uint8 interruptsMask) 
 238:Generated_Source\PSoC5/QuadDec_M1_Cnt16.c **** {
 248              		.loc 1 238 0
 249              		.cfi_startproc
 250              		@ args = 0, pretend = 0, frame = 8
 251              		@ frame_needed = 1, uses_anonymous_args = 0
 252              		@ link register save eliminated.
 253 0000 80B4     		push	{r7}
 254              		.cfi_def_cfa_offset 4
 255              		.cfi_offset 7, -4
 256 0002 83B0     		sub	sp, sp, #12
 257              		.cfi_def_cfa_offset 16
 258 0004 00AF     		add	r7, sp, #0
 259              		.cfi_def_cfa_register 7
 260 0006 0346     		mov	r3, r0
 261 0008 FB71     		strb	r3, [r7, #7]
 239:Generated_Source\PSoC5/QuadDec_M1_Cnt16.c ****     QuadDec_M1_Cnt16_STATUS_MASK = interruptsMask;
 262              		.loc 1 239 0
 263 000a 044A     		ldr	r2, .L15
 264 000c FB79     		ldrb	r3, [r7, #7]
 265 000e 1370     		strb	r3, [r2]
 240:Generated_Source\PSoC5/QuadDec_M1_Cnt16.c **** }
 266              		.loc 1 240 0
 267 0010 00BF     		nop
 268 0012 0C37     		adds	r7, r7, #12
 269              		.cfi_def_cfa_offset 4
 270 0014 BD46     		mov	sp, r7
 271              		.cfi_def_cfa_register 13
 272              		@ sp needed
 273 0016 80BC     		pop	{r7}
ARM GAS  C:\Users\ylee818\AppData\Local\Temp\ccTMyHIe.s 			page 10


 274              		.cfi_restore 7
 275              		.cfi_def_cfa_offset 0
 276 0018 7047     		bx	lr
 277              	.L16:
 278 001a 00BF     		.align	2
 279              	.L15:
 280 001c 84640040 		.word	1073767556
 281              		.cfi_endproc
 282              	.LFE4:
 283              		.size	QuadDec_M1_Cnt16_SetInterruptMode, .-QuadDec_M1_Cnt16_SetInterruptMode
 284              		.section	.text.QuadDec_M1_Cnt16_ReadStatusRegister,"ax",%progbits
 285              		.align	2
 286              		.global	QuadDec_M1_Cnt16_ReadStatusRegister
 287              		.thumb
 288              		.thumb_func
 289              		.type	QuadDec_M1_Cnt16_ReadStatusRegister, %function
 290              	QuadDec_M1_Cnt16_ReadStatusRegister:
 291              	.LFB5:
 241:Generated_Source\PSoC5/QuadDec_M1_Cnt16.c **** 
 242:Generated_Source\PSoC5/QuadDec_M1_Cnt16.c **** 
 243:Generated_Source\PSoC5/QuadDec_M1_Cnt16.c **** /*******************************************************************************
 244:Generated_Source\PSoC5/QuadDec_M1_Cnt16.c **** * Function Name: QuadDec_M1_Cnt16_ReadStatusRegister
 245:Generated_Source\PSoC5/QuadDec_M1_Cnt16.c **** ********************************************************************************
 246:Generated_Source\PSoC5/QuadDec_M1_Cnt16.c **** * Summary:
 247:Generated_Source\PSoC5/QuadDec_M1_Cnt16.c **** *   Reads the status register and returns it's state. This function should use
 248:Generated_Source\PSoC5/QuadDec_M1_Cnt16.c **** *       defined types for the bit-field information as the bits in this
 249:Generated_Source\PSoC5/QuadDec_M1_Cnt16.c **** *       register may be permuteable.
 250:Generated_Source\PSoC5/QuadDec_M1_Cnt16.c **** *
 251:Generated_Source\PSoC5/QuadDec_M1_Cnt16.c **** * Parameters:  
 252:Generated_Source\PSoC5/QuadDec_M1_Cnt16.c **** *  void
 253:Generated_Source\PSoC5/QuadDec_M1_Cnt16.c **** *
 254:Generated_Source\PSoC5/QuadDec_M1_Cnt16.c **** * Return: 
 255:Generated_Source\PSoC5/QuadDec_M1_Cnt16.c **** *  (uint8) The contents of the status register
 256:Generated_Source\PSoC5/QuadDec_M1_Cnt16.c **** *
 257:Generated_Source\PSoC5/QuadDec_M1_Cnt16.c **** * Side Effects:
 258:Generated_Source\PSoC5/QuadDec_M1_Cnt16.c **** *   Status register bits may be clear on read. 
 259:Generated_Source\PSoC5/QuadDec_M1_Cnt16.c **** *
 260:Generated_Source\PSoC5/QuadDec_M1_Cnt16.c **** *******************************************************************************/
 261:Generated_Source\PSoC5/QuadDec_M1_Cnt16.c **** uint8   QuadDec_M1_Cnt16_ReadStatusRegister(void) 
 262:Generated_Source\PSoC5/QuadDec_M1_Cnt16.c **** {
 292              		.loc 1 262 0
 293              		.cfi_startproc
 294              		@ args = 0, pretend = 0, frame = 0
 295              		@ frame_needed = 1, uses_anonymous_args = 0
 296              		@ link register save eliminated.
 297 0000 80B4     		push	{r7}
 298              		.cfi_def_cfa_offset 4
 299              		.cfi_offset 7, -4
 300 0002 00AF     		add	r7, sp, #0
 301              		.cfi_def_cfa_register 7
 263:Generated_Source\PSoC5/QuadDec_M1_Cnt16.c ****     return QuadDec_M1_Cnt16_STATUS;
 302              		.loc 1 263 0
 303 0004 034B     		ldr	r3, .L19
 304 0006 1B78     		ldrb	r3, [r3]
 305 0008 DBB2     		uxtb	r3, r3
 264:Generated_Source\PSoC5/QuadDec_M1_Cnt16.c **** }
 306              		.loc 1 264 0
ARM GAS  C:\Users\ylee818\AppData\Local\Temp\ccTMyHIe.s 			page 11


 307 000a 1846     		mov	r0, r3
 308 000c BD46     		mov	sp, r7
 309              		.cfi_def_cfa_register 13
 310              		@ sp needed
 311 000e 80BC     		pop	{r7}
 312              		.cfi_restore 7
 313              		.cfi_def_cfa_offset 0
 314 0010 7047     		bx	lr
 315              	.L20:
 316 0012 00BF     		.align	2
 317              	.L19:
 318 0014 64640040 		.word	1073767524
 319              		.cfi_endproc
 320              	.LFE5:
 321              		.size	QuadDec_M1_Cnt16_ReadStatusRegister, .-QuadDec_M1_Cnt16_ReadStatusRegister
 322              		.section	.text.QuadDec_M1_Cnt16_ReadControlRegister,"ax",%progbits
 323              		.align	2
 324              		.global	QuadDec_M1_Cnt16_ReadControlRegister
 325              		.thumb
 326              		.thumb_func
 327              		.type	QuadDec_M1_Cnt16_ReadControlRegister, %function
 328              	QuadDec_M1_Cnt16_ReadControlRegister:
 329              	.LFB6:
 265:Generated_Source\PSoC5/QuadDec_M1_Cnt16.c **** 
 266:Generated_Source\PSoC5/QuadDec_M1_Cnt16.c **** 
 267:Generated_Source\PSoC5/QuadDec_M1_Cnt16.c **** #if(!QuadDec_M1_Cnt16_ControlRegRemoved)
 268:Generated_Source\PSoC5/QuadDec_M1_Cnt16.c **** /*******************************************************************************
 269:Generated_Source\PSoC5/QuadDec_M1_Cnt16.c **** * Function Name: QuadDec_M1_Cnt16_ReadControlRegister
 270:Generated_Source\PSoC5/QuadDec_M1_Cnt16.c **** ********************************************************************************
 271:Generated_Source\PSoC5/QuadDec_M1_Cnt16.c **** * Summary:
 272:Generated_Source\PSoC5/QuadDec_M1_Cnt16.c **** *   Reads the control register and returns it's state. This function should use
 273:Generated_Source\PSoC5/QuadDec_M1_Cnt16.c **** *       defined types for the bit-field information as the bits in this
 274:Generated_Source\PSoC5/QuadDec_M1_Cnt16.c **** *       register may be permuteable.
 275:Generated_Source\PSoC5/QuadDec_M1_Cnt16.c **** *
 276:Generated_Source\PSoC5/QuadDec_M1_Cnt16.c **** * Parameters:  
 277:Generated_Source\PSoC5/QuadDec_M1_Cnt16.c **** *  void
 278:Generated_Source\PSoC5/QuadDec_M1_Cnt16.c **** *
 279:Generated_Source\PSoC5/QuadDec_M1_Cnt16.c **** * Return: 
 280:Generated_Source\PSoC5/QuadDec_M1_Cnt16.c **** *  (uint8) The contents of the control register
 281:Generated_Source\PSoC5/QuadDec_M1_Cnt16.c **** *
 282:Generated_Source\PSoC5/QuadDec_M1_Cnt16.c **** *******************************************************************************/
 283:Generated_Source\PSoC5/QuadDec_M1_Cnt16.c **** uint8   QuadDec_M1_Cnt16_ReadControlRegister(void) 
 284:Generated_Source\PSoC5/QuadDec_M1_Cnt16.c **** {
 330              		.loc 1 284 0
 331              		.cfi_startproc
 332              		@ args = 0, pretend = 0, frame = 0
 333              		@ frame_needed = 1, uses_anonymous_args = 0
 334              		@ link register save eliminated.
 335 0000 80B4     		push	{r7}
 336              		.cfi_def_cfa_offset 4
 337              		.cfi_offset 7, -4
 338 0002 00AF     		add	r7, sp, #0
 339              		.cfi_def_cfa_register 7
 285:Generated_Source\PSoC5/QuadDec_M1_Cnt16.c ****     return QuadDec_M1_Cnt16_CONTROL;
 340              		.loc 1 285 0
 341 0004 034B     		ldr	r3, .L23
 342 0006 1B78     		ldrb	r3, [r3]
ARM GAS  C:\Users\ylee818\AppData\Local\Temp\ccTMyHIe.s 			page 12


 343 0008 DBB2     		uxtb	r3, r3
 286:Generated_Source\PSoC5/QuadDec_M1_Cnt16.c **** }
 344              		.loc 1 286 0
 345 000a 1846     		mov	r0, r3
 346 000c BD46     		mov	sp, r7
 347              		.cfi_def_cfa_register 13
 348              		@ sp needed
 349 000e 80BC     		pop	{r7}
 350              		.cfi_restore 7
 351              		.cfi_def_cfa_offset 0
 352 0010 7047     		bx	lr
 353              	.L24:
 354 0012 00BF     		.align	2
 355              	.L23:
 356 0014 76650040 		.word	1073767798
 357              		.cfi_endproc
 358              	.LFE6:
 359              		.size	QuadDec_M1_Cnt16_ReadControlRegister, .-QuadDec_M1_Cnt16_ReadControlRegister
 360              		.section	.text.QuadDec_M1_Cnt16_WriteControlRegister,"ax",%progbits
 361              		.align	2
 362              		.global	QuadDec_M1_Cnt16_WriteControlRegister
 363              		.thumb
 364              		.thumb_func
 365              		.type	QuadDec_M1_Cnt16_WriteControlRegister, %function
 366              	QuadDec_M1_Cnt16_WriteControlRegister:
 367              	.LFB7:
 287:Generated_Source\PSoC5/QuadDec_M1_Cnt16.c **** 
 288:Generated_Source\PSoC5/QuadDec_M1_Cnt16.c **** 
 289:Generated_Source\PSoC5/QuadDec_M1_Cnt16.c **** /*******************************************************************************
 290:Generated_Source\PSoC5/QuadDec_M1_Cnt16.c **** * Function Name: QuadDec_M1_Cnt16_WriteControlRegister
 291:Generated_Source\PSoC5/QuadDec_M1_Cnt16.c **** ********************************************************************************
 292:Generated_Source\PSoC5/QuadDec_M1_Cnt16.c **** * Summary:
 293:Generated_Source\PSoC5/QuadDec_M1_Cnt16.c **** *   Sets the bit-field of the control register.  This function should use
 294:Generated_Source\PSoC5/QuadDec_M1_Cnt16.c **** *       defined types for the bit-field information as the bits in this
 295:Generated_Source\PSoC5/QuadDec_M1_Cnt16.c **** *       register may be permuteable.
 296:Generated_Source\PSoC5/QuadDec_M1_Cnt16.c **** *
 297:Generated_Source\PSoC5/QuadDec_M1_Cnt16.c **** * Parameters:  
 298:Generated_Source\PSoC5/QuadDec_M1_Cnt16.c **** *  void
 299:Generated_Source\PSoC5/QuadDec_M1_Cnt16.c **** *
 300:Generated_Source\PSoC5/QuadDec_M1_Cnt16.c **** * Return: 
 301:Generated_Source\PSoC5/QuadDec_M1_Cnt16.c **** *  (uint8) The contents of the control register
 302:Generated_Source\PSoC5/QuadDec_M1_Cnt16.c **** *
 303:Generated_Source\PSoC5/QuadDec_M1_Cnt16.c **** *******************************************************************************/
 304:Generated_Source\PSoC5/QuadDec_M1_Cnt16.c **** void    QuadDec_M1_Cnt16_WriteControlRegister(uint8 control) 
 305:Generated_Source\PSoC5/QuadDec_M1_Cnt16.c **** {
 368              		.loc 1 305 0
 369              		.cfi_startproc
 370              		@ args = 0, pretend = 0, frame = 8
 371              		@ frame_needed = 1, uses_anonymous_args = 0
 372              		@ link register save eliminated.
 373 0000 80B4     		push	{r7}
 374              		.cfi_def_cfa_offset 4
 375              		.cfi_offset 7, -4
 376 0002 83B0     		sub	sp, sp, #12
 377              		.cfi_def_cfa_offset 16
 378 0004 00AF     		add	r7, sp, #0
 379              		.cfi_def_cfa_register 7
ARM GAS  C:\Users\ylee818\AppData\Local\Temp\ccTMyHIe.s 			page 13


 380 0006 0346     		mov	r3, r0
 381 0008 FB71     		strb	r3, [r7, #7]
 306:Generated_Source\PSoC5/QuadDec_M1_Cnt16.c ****     QuadDec_M1_Cnt16_CONTROL = control;
 382              		.loc 1 306 0
 383 000a 044A     		ldr	r2, .L26
 384 000c FB79     		ldrb	r3, [r7, #7]
 385 000e 1370     		strb	r3, [r2]
 307:Generated_Source\PSoC5/QuadDec_M1_Cnt16.c **** }
 386              		.loc 1 307 0
 387 0010 00BF     		nop
 388 0012 0C37     		adds	r7, r7, #12
 389              		.cfi_def_cfa_offset 4
 390 0014 BD46     		mov	sp, r7
 391              		.cfi_def_cfa_register 13
 392              		@ sp needed
 393 0016 80BC     		pop	{r7}
 394              		.cfi_restore 7
 395              		.cfi_def_cfa_offset 0
 396 0018 7047     		bx	lr
 397              	.L27:
 398 001a 00BF     		.align	2
 399              	.L26:
 400 001c 76650040 		.word	1073767798
 401              		.cfi_endproc
 402              	.LFE7:
 403              		.size	QuadDec_M1_Cnt16_WriteControlRegister, .-QuadDec_M1_Cnt16_WriteControlRegister
 404              		.section	.text.QuadDec_M1_Cnt16_WriteCounter,"ax",%progbits
 405              		.align	2
 406              		.global	QuadDec_M1_Cnt16_WriteCounter
 407              		.thumb
 408              		.thumb_func
 409              		.type	QuadDec_M1_Cnt16_WriteCounter, %function
 410              	QuadDec_M1_Cnt16_WriteCounter:
 411              	.LFB8:
 308:Generated_Source\PSoC5/QuadDec_M1_Cnt16.c **** 
 309:Generated_Source\PSoC5/QuadDec_M1_Cnt16.c **** #endif  /* (!QuadDec_M1_Cnt16_ControlRegRemoved) */
 310:Generated_Source\PSoC5/QuadDec_M1_Cnt16.c **** 
 311:Generated_Source\PSoC5/QuadDec_M1_Cnt16.c **** 
 312:Generated_Source\PSoC5/QuadDec_M1_Cnt16.c **** #if (!(QuadDec_M1_Cnt16_UsingFixedFunction && (CY_PSOC5A)))
 313:Generated_Source\PSoC5/QuadDec_M1_Cnt16.c **** /*******************************************************************************
 314:Generated_Source\PSoC5/QuadDec_M1_Cnt16.c **** * Function Name: QuadDec_M1_Cnt16_WriteCounter
 315:Generated_Source\PSoC5/QuadDec_M1_Cnt16.c **** ********************************************************************************
 316:Generated_Source\PSoC5/QuadDec_M1_Cnt16.c **** * Summary:
 317:Generated_Source\PSoC5/QuadDec_M1_Cnt16.c **** *   This funtion is used to set the counter to a specific value
 318:Generated_Source\PSoC5/QuadDec_M1_Cnt16.c **** *
 319:Generated_Source\PSoC5/QuadDec_M1_Cnt16.c **** * Parameters:  
 320:Generated_Source\PSoC5/QuadDec_M1_Cnt16.c **** *  counter:  New counter value. 
 321:Generated_Source\PSoC5/QuadDec_M1_Cnt16.c **** *
 322:Generated_Source\PSoC5/QuadDec_M1_Cnt16.c **** * Return: 
 323:Generated_Source\PSoC5/QuadDec_M1_Cnt16.c **** *  void 
 324:Generated_Source\PSoC5/QuadDec_M1_Cnt16.c **** *
 325:Generated_Source\PSoC5/QuadDec_M1_Cnt16.c **** *******************************************************************************/
 326:Generated_Source\PSoC5/QuadDec_M1_Cnt16.c **** void QuadDec_M1_Cnt16_WriteCounter(uint16 counter) \
 327:Generated_Source\PSoC5/QuadDec_M1_Cnt16.c ****                                    
 328:Generated_Source\PSoC5/QuadDec_M1_Cnt16.c **** {
 412              		.loc 1 328 0
 413              		.cfi_startproc
ARM GAS  C:\Users\ylee818\AppData\Local\Temp\ccTMyHIe.s 			page 14


 414              		@ args = 0, pretend = 0, frame = 8
 415              		@ frame_needed = 1, uses_anonymous_args = 0
 416              		@ link register save eliminated.
 417 0000 80B4     		push	{r7}
 418              		.cfi_def_cfa_offset 4
 419              		.cfi_offset 7, -4
 420 0002 83B0     		sub	sp, sp, #12
 421              		.cfi_def_cfa_offset 16
 422 0004 00AF     		add	r7, sp, #0
 423              		.cfi_def_cfa_register 7
 424 0006 0346     		mov	r3, r0
 425 0008 FB80     		strh	r3, [r7, #6]	@ movhi
 329:Generated_Source\PSoC5/QuadDec_M1_Cnt16.c ****     #if(QuadDec_M1_Cnt16_UsingFixedFunction)
 330:Generated_Source\PSoC5/QuadDec_M1_Cnt16.c ****         /* assert if block is already enabled */
 331:Generated_Source\PSoC5/QuadDec_M1_Cnt16.c ****         CYASSERT (0u == (QuadDec_M1_Cnt16_GLOBAL_ENABLE & QuadDec_M1_Cnt16_BLOCK_EN_MASK));
 332:Generated_Source\PSoC5/QuadDec_M1_Cnt16.c ****         /* If block is disabled, enable it and then write the counter */
 333:Generated_Source\PSoC5/QuadDec_M1_Cnt16.c ****         QuadDec_M1_Cnt16_GLOBAL_ENABLE |= QuadDec_M1_Cnt16_BLOCK_EN_MASK;
 334:Generated_Source\PSoC5/QuadDec_M1_Cnt16.c ****         CY_SET_REG16(QuadDec_M1_Cnt16_COUNTER_LSB_PTR, (uint16)counter);
 335:Generated_Source\PSoC5/QuadDec_M1_Cnt16.c ****         QuadDec_M1_Cnt16_GLOBAL_ENABLE &= ((uint8)(~QuadDec_M1_Cnt16_BLOCK_EN_MASK));
 336:Generated_Source\PSoC5/QuadDec_M1_Cnt16.c ****     #else
 337:Generated_Source\PSoC5/QuadDec_M1_Cnt16.c ****         CY_SET_REG16(QuadDec_M1_Cnt16_COUNTER_LSB_PTR, counter);
 426              		.loc 1 337 0
 427 000a 044A     		ldr	r2, .L29
 428 000c FB88     		ldrh	r3, [r7, #6]	@ movhi
 429 000e 1380     		strh	r3, [r2]	@ movhi
 338:Generated_Source\PSoC5/QuadDec_M1_Cnt16.c ****     #endif /* (QuadDec_M1_Cnt16_UsingFixedFunction) */
 339:Generated_Source\PSoC5/QuadDec_M1_Cnt16.c **** }
 430              		.loc 1 339 0
 431 0010 00BF     		nop
 432 0012 0C37     		adds	r7, r7, #12
 433              		.cfi_def_cfa_offset 4
 434 0014 BD46     		mov	sp, r7
 435              		.cfi_def_cfa_register 13
 436              		@ sp needed
 437 0016 80BC     		pop	{r7}
 438              		.cfi_restore 7
 439              		.cfi_def_cfa_offset 0
 440 0018 7047     		bx	lr
 441              	.L30:
 442 001a 00BF     		.align	2
 443              	.L29:
 444 001c 0C680040 		.word	1073768460
 445              		.cfi_endproc
 446              	.LFE8:
 447              		.size	QuadDec_M1_Cnt16_WriteCounter, .-QuadDec_M1_Cnt16_WriteCounter
 448              		.section	.text.QuadDec_M1_Cnt16_ReadCounter,"ax",%progbits
 449              		.align	2
 450              		.global	QuadDec_M1_Cnt16_ReadCounter
 451              		.thumb
 452              		.thumb_func
 453              		.type	QuadDec_M1_Cnt16_ReadCounter, %function
 454              	QuadDec_M1_Cnt16_ReadCounter:
 455              	.LFB9:
 340:Generated_Source\PSoC5/QuadDec_M1_Cnt16.c **** #endif /* (!(QuadDec_M1_Cnt16_UsingFixedFunction && (CY_PSOC5A))) */
 341:Generated_Source\PSoC5/QuadDec_M1_Cnt16.c **** 
 342:Generated_Source\PSoC5/QuadDec_M1_Cnt16.c **** 
 343:Generated_Source\PSoC5/QuadDec_M1_Cnt16.c **** /*******************************************************************************
ARM GAS  C:\Users\ylee818\AppData\Local\Temp\ccTMyHIe.s 			page 15


 344:Generated_Source\PSoC5/QuadDec_M1_Cnt16.c **** * Function Name: QuadDec_M1_Cnt16_ReadCounter
 345:Generated_Source\PSoC5/QuadDec_M1_Cnt16.c **** ********************************************************************************
 346:Generated_Source\PSoC5/QuadDec_M1_Cnt16.c **** * Summary:
 347:Generated_Source\PSoC5/QuadDec_M1_Cnt16.c **** * Returns the current value of the counter.  It doesn't matter
 348:Generated_Source\PSoC5/QuadDec_M1_Cnt16.c **** * if the counter is enabled or running.
 349:Generated_Source\PSoC5/QuadDec_M1_Cnt16.c **** *
 350:Generated_Source\PSoC5/QuadDec_M1_Cnt16.c **** * Parameters:  
 351:Generated_Source\PSoC5/QuadDec_M1_Cnt16.c **** *  void:  
 352:Generated_Source\PSoC5/QuadDec_M1_Cnt16.c **** *
 353:Generated_Source\PSoC5/QuadDec_M1_Cnt16.c **** * Return: 
 354:Generated_Source\PSoC5/QuadDec_M1_Cnt16.c **** *  (uint16) The present value of the counter.
 355:Generated_Source\PSoC5/QuadDec_M1_Cnt16.c **** *
 356:Generated_Source\PSoC5/QuadDec_M1_Cnt16.c **** *******************************************************************************/
 357:Generated_Source\PSoC5/QuadDec_M1_Cnt16.c **** uint16 QuadDec_M1_Cnt16_ReadCounter(void) 
 358:Generated_Source\PSoC5/QuadDec_M1_Cnt16.c **** {
 456              		.loc 1 358 0
 457              		.cfi_startproc
 458              		@ args = 0, pretend = 0, frame = 0
 459              		@ frame_needed = 1, uses_anonymous_args = 0
 460              		@ link register save eliminated.
 461 0000 80B4     		push	{r7}
 462              		.cfi_def_cfa_offset 4
 463              		.cfi_offset 7, -4
 464 0002 00AF     		add	r7, sp, #0
 465              		.cfi_def_cfa_register 7
 359:Generated_Source\PSoC5/QuadDec_M1_Cnt16.c ****     /* Force capture by reading Accumulator */
 360:Generated_Source\PSoC5/QuadDec_M1_Cnt16.c ****     /* Must first do a software capture to be able to read the counter */
 361:Generated_Source\PSoC5/QuadDec_M1_Cnt16.c ****     /* It is up to the user code to make sure there isn't already captured data in the FIFO */
 362:Generated_Source\PSoC5/QuadDec_M1_Cnt16.c ****     #if(QuadDec_M1_Cnt16_UsingFixedFunction)
 363:Generated_Source\PSoC5/QuadDec_M1_Cnt16.c **** 		(void)CY_GET_REG16(QuadDec_M1_Cnt16_COUNTER_LSB_PTR);
 364:Generated_Source\PSoC5/QuadDec_M1_Cnt16.c **** 	#else
 365:Generated_Source\PSoC5/QuadDec_M1_Cnt16.c **** 		(void)CY_GET_REG8(QuadDec_M1_Cnt16_COUNTER_LSB_PTR_8BIT);
 466              		.loc 1 365 0
 467 0004 044B     		ldr	r3, .L33
 468 0006 1B78     		ldrb	r3, [r3]
 366:Generated_Source\PSoC5/QuadDec_M1_Cnt16.c **** 	#endif/* (QuadDec_M1_Cnt16_UsingFixedFunction) */
 367:Generated_Source\PSoC5/QuadDec_M1_Cnt16.c ****     
 368:Generated_Source\PSoC5/QuadDec_M1_Cnt16.c ****     /* Read the data from the FIFO (or capture register for Fixed Function)*/
 369:Generated_Source\PSoC5/QuadDec_M1_Cnt16.c ****     #if(QuadDec_M1_Cnt16_UsingFixedFunction)
 370:Generated_Source\PSoC5/QuadDec_M1_Cnt16.c ****         return ((uint16)CY_GET_REG16(QuadDec_M1_Cnt16_STATICCOUNT_LSB_PTR));
 371:Generated_Source\PSoC5/QuadDec_M1_Cnt16.c ****     #else
 372:Generated_Source\PSoC5/QuadDec_M1_Cnt16.c ****         return (CY_GET_REG16(QuadDec_M1_Cnt16_STATICCOUNT_LSB_PTR));
 469              		.loc 1 372 0
 470 0008 044B     		ldr	r3, .L33+4
 471 000a 1B88     		ldrh	r3, [r3]	@ movhi
 472 000c 9BB2     		uxth	r3, r3
 373:Generated_Source\PSoC5/QuadDec_M1_Cnt16.c ****     #endif /* (QuadDec_M1_Cnt16_UsingFixedFunction) */
 374:Generated_Source\PSoC5/QuadDec_M1_Cnt16.c **** }
 473              		.loc 1 374 0
 474 000e 1846     		mov	r0, r3
 475 0010 BD46     		mov	sp, r7
 476              		.cfi_def_cfa_register 13
 477              		@ sp needed
 478 0012 80BC     		pop	{r7}
 479              		.cfi_restore 7
 480              		.cfi_def_cfa_offset 0
 481 0014 7047     		bx	lr
ARM GAS  C:\Users\ylee818\AppData\Local\Temp\ccTMyHIe.s 			page 16


 482              	.L34:
 483 0016 00BF     		.align	2
 484              	.L33:
 485 0018 06640040 		.word	1073767430
 486 001c 8C680040 		.word	1073768588
 487              		.cfi_endproc
 488              	.LFE9:
 489              		.size	QuadDec_M1_Cnt16_ReadCounter, .-QuadDec_M1_Cnt16_ReadCounter
 490              		.section	.text.QuadDec_M1_Cnt16_ReadCapture,"ax",%progbits
 491              		.align	2
 492              		.global	QuadDec_M1_Cnt16_ReadCapture
 493              		.thumb
 494              		.thumb_func
 495              		.type	QuadDec_M1_Cnt16_ReadCapture, %function
 496              	QuadDec_M1_Cnt16_ReadCapture:
 497              	.LFB10:
 375:Generated_Source\PSoC5/QuadDec_M1_Cnt16.c **** 
 376:Generated_Source\PSoC5/QuadDec_M1_Cnt16.c **** 
 377:Generated_Source\PSoC5/QuadDec_M1_Cnt16.c **** /*******************************************************************************
 378:Generated_Source\PSoC5/QuadDec_M1_Cnt16.c **** * Function Name: QuadDec_M1_Cnt16_ReadCapture
 379:Generated_Source\PSoC5/QuadDec_M1_Cnt16.c **** ********************************************************************************
 380:Generated_Source\PSoC5/QuadDec_M1_Cnt16.c **** * Summary:
 381:Generated_Source\PSoC5/QuadDec_M1_Cnt16.c **** *   This function returns the last value captured.
 382:Generated_Source\PSoC5/QuadDec_M1_Cnt16.c **** *
 383:Generated_Source\PSoC5/QuadDec_M1_Cnt16.c **** * Parameters:  
 384:Generated_Source\PSoC5/QuadDec_M1_Cnt16.c **** *  void
 385:Generated_Source\PSoC5/QuadDec_M1_Cnt16.c **** *
 386:Generated_Source\PSoC5/QuadDec_M1_Cnt16.c **** * Return: 
 387:Generated_Source\PSoC5/QuadDec_M1_Cnt16.c **** *  (uint16) Present Capture value.
 388:Generated_Source\PSoC5/QuadDec_M1_Cnt16.c **** *
 389:Generated_Source\PSoC5/QuadDec_M1_Cnt16.c **** *******************************************************************************/
 390:Generated_Source\PSoC5/QuadDec_M1_Cnt16.c **** uint16 QuadDec_M1_Cnt16_ReadCapture(void) 
 391:Generated_Source\PSoC5/QuadDec_M1_Cnt16.c **** {
 498              		.loc 1 391 0
 499              		.cfi_startproc
 500              		@ args = 0, pretend = 0, frame = 0
 501              		@ frame_needed = 1, uses_anonymous_args = 0
 502              		@ link register save eliminated.
 503 0000 80B4     		push	{r7}
 504              		.cfi_def_cfa_offset 4
 505              		.cfi_offset 7, -4
 506 0002 00AF     		add	r7, sp, #0
 507              		.cfi_def_cfa_register 7
 392:Generated_Source\PSoC5/QuadDec_M1_Cnt16.c ****     #if(QuadDec_M1_Cnt16_UsingFixedFunction)
 393:Generated_Source\PSoC5/QuadDec_M1_Cnt16.c ****         return ((uint16)CY_GET_REG16(QuadDec_M1_Cnt16_STATICCOUNT_LSB_PTR));
 394:Generated_Source\PSoC5/QuadDec_M1_Cnt16.c ****     #else
 395:Generated_Source\PSoC5/QuadDec_M1_Cnt16.c ****         return (CY_GET_REG16(QuadDec_M1_Cnt16_STATICCOUNT_LSB_PTR));
 508              		.loc 1 395 0
 509 0004 034B     		ldr	r3, .L37
 510 0006 1B88     		ldrh	r3, [r3]	@ movhi
 511 0008 9BB2     		uxth	r3, r3
 396:Generated_Source\PSoC5/QuadDec_M1_Cnt16.c ****     #endif /* (QuadDec_M1_Cnt16_UsingFixedFunction) */
 397:Generated_Source\PSoC5/QuadDec_M1_Cnt16.c **** }
 512              		.loc 1 397 0
 513 000a 1846     		mov	r0, r3
 514 000c BD46     		mov	sp, r7
 515              		.cfi_def_cfa_register 13
ARM GAS  C:\Users\ylee818\AppData\Local\Temp\ccTMyHIe.s 			page 17


 516              		@ sp needed
 517 000e 80BC     		pop	{r7}
 518              		.cfi_restore 7
 519              		.cfi_def_cfa_offset 0
 520 0010 7047     		bx	lr
 521              	.L38:
 522 0012 00BF     		.align	2
 523              	.L37:
 524 0014 8C680040 		.word	1073768588
 525              		.cfi_endproc
 526              	.LFE10:
 527              		.size	QuadDec_M1_Cnt16_ReadCapture, .-QuadDec_M1_Cnt16_ReadCapture
 528              		.section	.text.QuadDec_M1_Cnt16_WritePeriod,"ax",%progbits
 529              		.align	2
 530              		.global	QuadDec_M1_Cnt16_WritePeriod
 531              		.thumb
 532              		.thumb_func
 533              		.type	QuadDec_M1_Cnt16_WritePeriod, %function
 534              	QuadDec_M1_Cnt16_WritePeriod:
 535              	.LFB11:
 398:Generated_Source\PSoC5/QuadDec_M1_Cnt16.c **** 
 399:Generated_Source\PSoC5/QuadDec_M1_Cnt16.c **** 
 400:Generated_Source\PSoC5/QuadDec_M1_Cnt16.c **** /*******************************************************************************
 401:Generated_Source\PSoC5/QuadDec_M1_Cnt16.c **** * Function Name: QuadDec_M1_Cnt16_WritePeriod
 402:Generated_Source\PSoC5/QuadDec_M1_Cnt16.c **** ********************************************************************************
 403:Generated_Source\PSoC5/QuadDec_M1_Cnt16.c **** * Summary:
 404:Generated_Source\PSoC5/QuadDec_M1_Cnt16.c **** * Changes the period of the counter.  The new period 
 405:Generated_Source\PSoC5/QuadDec_M1_Cnt16.c **** * will be loaded the next time terminal count is detected.
 406:Generated_Source\PSoC5/QuadDec_M1_Cnt16.c **** *
 407:Generated_Source\PSoC5/QuadDec_M1_Cnt16.c **** * Parameters:  
 408:Generated_Source\PSoC5/QuadDec_M1_Cnt16.c **** *  period: (uint16) A value of 0 will result in
 409:Generated_Source\PSoC5/QuadDec_M1_Cnt16.c **** *         the counter remaining at zero.  
 410:Generated_Source\PSoC5/QuadDec_M1_Cnt16.c **** *
 411:Generated_Source\PSoC5/QuadDec_M1_Cnt16.c **** * Return: 
 412:Generated_Source\PSoC5/QuadDec_M1_Cnt16.c **** *  void
 413:Generated_Source\PSoC5/QuadDec_M1_Cnt16.c **** *
 414:Generated_Source\PSoC5/QuadDec_M1_Cnt16.c **** *******************************************************************************/
 415:Generated_Source\PSoC5/QuadDec_M1_Cnt16.c **** void QuadDec_M1_Cnt16_WritePeriod(uint16 period) 
 416:Generated_Source\PSoC5/QuadDec_M1_Cnt16.c **** {
 536              		.loc 1 416 0
 537              		.cfi_startproc
 538              		@ args = 0, pretend = 0, frame = 8
 539              		@ frame_needed = 1, uses_anonymous_args = 0
 540              		@ link register save eliminated.
 541 0000 80B4     		push	{r7}
 542              		.cfi_def_cfa_offset 4
 543              		.cfi_offset 7, -4
 544 0002 83B0     		sub	sp, sp, #12
 545              		.cfi_def_cfa_offset 16
 546 0004 00AF     		add	r7, sp, #0
 547              		.cfi_def_cfa_register 7
 548 0006 0346     		mov	r3, r0
 549 0008 FB80     		strh	r3, [r7, #6]	@ movhi
 417:Generated_Source\PSoC5/QuadDec_M1_Cnt16.c ****     #if(QuadDec_M1_Cnt16_UsingFixedFunction)
 418:Generated_Source\PSoC5/QuadDec_M1_Cnt16.c ****         CY_SET_REG16(QuadDec_M1_Cnt16_PERIOD_LSB_PTR,(uint16)period);
 419:Generated_Source\PSoC5/QuadDec_M1_Cnt16.c ****     #else
 420:Generated_Source\PSoC5/QuadDec_M1_Cnt16.c ****         CY_SET_REG16(QuadDec_M1_Cnt16_PERIOD_LSB_PTR, period);
ARM GAS  C:\Users\ylee818\AppData\Local\Temp\ccTMyHIe.s 			page 18


 550              		.loc 1 420 0
 551 000a 044A     		ldr	r2, .L40
 552 000c FB88     		ldrh	r3, [r7, #6]	@ movhi
 553 000e 1380     		strh	r3, [r2]	@ movhi
 421:Generated_Source\PSoC5/QuadDec_M1_Cnt16.c ****     #endif /* (QuadDec_M1_Cnt16_UsingFixedFunction) */
 422:Generated_Source\PSoC5/QuadDec_M1_Cnt16.c **** }
 554              		.loc 1 422 0
 555 0010 00BF     		nop
 556 0012 0C37     		adds	r7, r7, #12
 557              		.cfi_def_cfa_offset 4
 558 0014 BD46     		mov	sp, r7
 559              		.cfi_def_cfa_register 13
 560              		@ sp needed
 561 0016 80BC     		pop	{r7}
 562              		.cfi_restore 7
 563              		.cfi_def_cfa_offset 0
 564 0018 7047     		bx	lr
 565              	.L41:
 566 001a 00BF     		.align	2
 567              	.L40:
 568 001c 4C680040 		.word	1073768524
 569              		.cfi_endproc
 570              	.LFE11:
 571              		.size	QuadDec_M1_Cnt16_WritePeriod, .-QuadDec_M1_Cnt16_WritePeriod
 572              		.section	.text.QuadDec_M1_Cnt16_ReadPeriod,"ax",%progbits
 573              		.align	2
 574              		.global	QuadDec_M1_Cnt16_ReadPeriod
 575              		.thumb
 576              		.thumb_func
 577              		.type	QuadDec_M1_Cnt16_ReadPeriod, %function
 578              	QuadDec_M1_Cnt16_ReadPeriod:
 579              	.LFB12:
 423:Generated_Source\PSoC5/QuadDec_M1_Cnt16.c **** 
 424:Generated_Source\PSoC5/QuadDec_M1_Cnt16.c **** 
 425:Generated_Source\PSoC5/QuadDec_M1_Cnt16.c **** /*******************************************************************************
 426:Generated_Source\PSoC5/QuadDec_M1_Cnt16.c **** * Function Name: QuadDec_M1_Cnt16_ReadPeriod
 427:Generated_Source\PSoC5/QuadDec_M1_Cnt16.c **** ********************************************************************************
 428:Generated_Source\PSoC5/QuadDec_M1_Cnt16.c **** * Summary:
 429:Generated_Source\PSoC5/QuadDec_M1_Cnt16.c **** * Reads the current period value without affecting counter operation.
 430:Generated_Source\PSoC5/QuadDec_M1_Cnt16.c **** *
 431:Generated_Source\PSoC5/QuadDec_M1_Cnt16.c **** * Parameters:  
 432:Generated_Source\PSoC5/QuadDec_M1_Cnt16.c **** *  void:  
 433:Generated_Source\PSoC5/QuadDec_M1_Cnt16.c **** *
 434:Generated_Source\PSoC5/QuadDec_M1_Cnt16.c **** * Return: 
 435:Generated_Source\PSoC5/QuadDec_M1_Cnt16.c **** *  (uint16) Present period value.
 436:Generated_Source\PSoC5/QuadDec_M1_Cnt16.c **** *
 437:Generated_Source\PSoC5/QuadDec_M1_Cnt16.c **** *******************************************************************************/
 438:Generated_Source\PSoC5/QuadDec_M1_Cnt16.c **** uint16 QuadDec_M1_Cnt16_ReadPeriod(void) 
 439:Generated_Source\PSoC5/QuadDec_M1_Cnt16.c **** {
 580              		.loc 1 439 0
 581              		.cfi_startproc
 582              		@ args = 0, pretend = 0, frame = 0
 583              		@ frame_needed = 1, uses_anonymous_args = 0
 584              		@ link register save eliminated.
 585 0000 80B4     		push	{r7}
 586              		.cfi_def_cfa_offset 4
 587              		.cfi_offset 7, -4
ARM GAS  C:\Users\ylee818\AppData\Local\Temp\ccTMyHIe.s 			page 19


 588 0002 00AF     		add	r7, sp, #0
 589              		.cfi_def_cfa_register 7
 440:Generated_Source\PSoC5/QuadDec_M1_Cnt16.c ****     #if(QuadDec_M1_Cnt16_UsingFixedFunction)
 441:Generated_Source\PSoC5/QuadDec_M1_Cnt16.c ****         return ((uint16)CY_GET_REG16(QuadDec_M1_Cnt16_PERIOD_LSB_PTR));
 442:Generated_Source\PSoC5/QuadDec_M1_Cnt16.c ****     #else
 443:Generated_Source\PSoC5/QuadDec_M1_Cnt16.c ****         return (CY_GET_REG16(QuadDec_M1_Cnt16_PERIOD_LSB_PTR));
 590              		.loc 1 443 0
 591 0004 034B     		ldr	r3, .L44
 592 0006 1B88     		ldrh	r3, [r3]	@ movhi
 593 0008 9BB2     		uxth	r3, r3
 444:Generated_Source\PSoC5/QuadDec_M1_Cnt16.c ****     #endif /* (QuadDec_M1_Cnt16_UsingFixedFunction) */
 445:Generated_Source\PSoC5/QuadDec_M1_Cnt16.c **** }
 594              		.loc 1 445 0
 595 000a 1846     		mov	r0, r3
 596 000c BD46     		mov	sp, r7
 597              		.cfi_def_cfa_register 13
 598              		@ sp needed
 599 000e 80BC     		pop	{r7}
 600              		.cfi_restore 7
 601              		.cfi_def_cfa_offset 0
 602 0010 7047     		bx	lr
 603              	.L45:
 604 0012 00BF     		.align	2
 605              	.L44:
 606 0014 4C680040 		.word	1073768524
 607              		.cfi_endproc
 608              	.LFE12:
 609              		.size	QuadDec_M1_Cnt16_ReadPeriod, .-QuadDec_M1_Cnt16_ReadPeriod
 610              		.section	.text.QuadDec_M1_Cnt16_WriteCompare,"ax",%progbits
 611              		.align	2
 612              		.global	QuadDec_M1_Cnt16_WriteCompare
 613              		.thumb
 614              		.thumb_func
 615              		.type	QuadDec_M1_Cnt16_WriteCompare, %function
 616              	QuadDec_M1_Cnt16_WriteCompare:
 617              	.LFB13:
 446:Generated_Source\PSoC5/QuadDec_M1_Cnt16.c **** 
 447:Generated_Source\PSoC5/QuadDec_M1_Cnt16.c **** 
 448:Generated_Source\PSoC5/QuadDec_M1_Cnt16.c **** #if (!QuadDec_M1_Cnt16_UsingFixedFunction)
 449:Generated_Source\PSoC5/QuadDec_M1_Cnt16.c **** /*******************************************************************************
 450:Generated_Source\PSoC5/QuadDec_M1_Cnt16.c **** * Function Name: QuadDec_M1_Cnt16_WriteCompare
 451:Generated_Source\PSoC5/QuadDec_M1_Cnt16.c **** ********************************************************************************
 452:Generated_Source\PSoC5/QuadDec_M1_Cnt16.c **** * Summary:
 453:Generated_Source\PSoC5/QuadDec_M1_Cnt16.c **** * Changes the compare value.  The compare output will 
 454:Generated_Source\PSoC5/QuadDec_M1_Cnt16.c **** * reflect the new value on the next UDB clock.  The compare output will be 
 455:Generated_Source\PSoC5/QuadDec_M1_Cnt16.c **** * driven high when the present counter value compares true based on the 
 456:Generated_Source\PSoC5/QuadDec_M1_Cnt16.c **** * configured compare mode setting. 
 457:Generated_Source\PSoC5/QuadDec_M1_Cnt16.c **** *
 458:Generated_Source\PSoC5/QuadDec_M1_Cnt16.c **** * Parameters:  
 459:Generated_Source\PSoC5/QuadDec_M1_Cnt16.c **** *  Compare:  New compare value. 
 460:Generated_Source\PSoC5/QuadDec_M1_Cnt16.c **** *
 461:Generated_Source\PSoC5/QuadDec_M1_Cnt16.c **** * Return: 
 462:Generated_Source\PSoC5/QuadDec_M1_Cnt16.c **** *  void
 463:Generated_Source\PSoC5/QuadDec_M1_Cnt16.c **** *
 464:Generated_Source\PSoC5/QuadDec_M1_Cnt16.c **** *******************************************************************************/
 465:Generated_Source\PSoC5/QuadDec_M1_Cnt16.c **** void QuadDec_M1_Cnt16_WriteCompare(uint16 compare) \
 466:Generated_Source\PSoC5/QuadDec_M1_Cnt16.c ****                                    
ARM GAS  C:\Users\ylee818\AppData\Local\Temp\ccTMyHIe.s 			page 20


 467:Generated_Source\PSoC5/QuadDec_M1_Cnt16.c **** {
 618              		.loc 1 467 0
 619              		.cfi_startproc
 620              		@ args = 0, pretend = 0, frame = 8
 621              		@ frame_needed = 1, uses_anonymous_args = 0
 622              		@ link register save eliminated.
 623 0000 80B4     		push	{r7}
 624              		.cfi_def_cfa_offset 4
 625              		.cfi_offset 7, -4
 626 0002 83B0     		sub	sp, sp, #12
 627              		.cfi_def_cfa_offset 16
 628 0004 00AF     		add	r7, sp, #0
 629              		.cfi_def_cfa_register 7
 630 0006 0346     		mov	r3, r0
 631 0008 FB80     		strh	r3, [r7, #6]	@ movhi
 468:Generated_Source\PSoC5/QuadDec_M1_Cnt16.c ****     #if(QuadDec_M1_Cnt16_UsingFixedFunction)
 469:Generated_Source\PSoC5/QuadDec_M1_Cnt16.c ****         CY_SET_REG16(QuadDec_M1_Cnt16_COMPARE_LSB_PTR, (uint16)compare);
 470:Generated_Source\PSoC5/QuadDec_M1_Cnt16.c ****     #else
 471:Generated_Source\PSoC5/QuadDec_M1_Cnt16.c ****         CY_SET_REG16(QuadDec_M1_Cnt16_COMPARE_LSB_PTR, compare);
 632              		.loc 1 471 0
 633 000a 044A     		ldr	r2, .L47
 634 000c FB88     		ldrh	r3, [r7, #6]	@ movhi
 635 000e 1380     		strh	r3, [r2]	@ movhi
 472:Generated_Source\PSoC5/QuadDec_M1_Cnt16.c ****     #endif /* (QuadDec_M1_Cnt16_UsingFixedFunction) */
 473:Generated_Source\PSoC5/QuadDec_M1_Cnt16.c **** }
 636              		.loc 1 473 0
 637 0010 00BF     		nop
 638 0012 0C37     		adds	r7, r7, #12
 639              		.cfi_def_cfa_offset 4
 640 0014 BD46     		mov	sp, r7
 641              		.cfi_def_cfa_register 13
 642              		@ sp needed
 643 0016 80BC     		pop	{r7}
 644              		.cfi_restore 7
 645              		.cfi_def_cfa_offset 0
 646 0018 7047     		bx	lr
 647              	.L48:
 648 001a 00BF     		.align	2
 649              	.L47:
 650 001c 6C680040 		.word	1073768556
 651              		.cfi_endproc
 652              	.LFE13:
 653              		.size	QuadDec_M1_Cnt16_WriteCompare, .-QuadDec_M1_Cnt16_WriteCompare
 654              		.section	.text.QuadDec_M1_Cnt16_ReadCompare,"ax",%progbits
 655              		.align	2
 656              		.global	QuadDec_M1_Cnt16_ReadCompare
 657              		.thumb
 658              		.thumb_func
 659              		.type	QuadDec_M1_Cnt16_ReadCompare, %function
 660              	QuadDec_M1_Cnt16_ReadCompare:
 661              	.LFB14:
 474:Generated_Source\PSoC5/QuadDec_M1_Cnt16.c **** 
 475:Generated_Source\PSoC5/QuadDec_M1_Cnt16.c **** 
 476:Generated_Source\PSoC5/QuadDec_M1_Cnt16.c **** /*******************************************************************************
 477:Generated_Source\PSoC5/QuadDec_M1_Cnt16.c **** * Function Name: QuadDec_M1_Cnt16_ReadCompare
 478:Generated_Source\PSoC5/QuadDec_M1_Cnt16.c **** ********************************************************************************
 479:Generated_Source\PSoC5/QuadDec_M1_Cnt16.c **** * Summary:
ARM GAS  C:\Users\ylee818\AppData\Local\Temp\ccTMyHIe.s 			page 21


 480:Generated_Source\PSoC5/QuadDec_M1_Cnt16.c **** * Returns the compare value.
 481:Generated_Source\PSoC5/QuadDec_M1_Cnt16.c **** *
 482:Generated_Source\PSoC5/QuadDec_M1_Cnt16.c **** * Parameters:  
 483:Generated_Source\PSoC5/QuadDec_M1_Cnt16.c **** *  void:
 484:Generated_Source\PSoC5/QuadDec_M1_Cnt16.c **** *
 485:Generated_Source\PSoC5/QuadDec_M1_Cnt16.c **** * Return: 
 486:Generated_Source\PSoC5/QuadDec_M1_Cnt16.c **** *  (uint16) Present compare value.
 487:Generated_Source\PSoC5/QuadDec_M1_Cnt16.c **** *
 488:Generated_Source\PSoC5/QuadDec_M1_Cnt16.c **** *******************************************************************************/
 489:Generated_Source\PSoC5/QuadDec_M1_Cnt16.c **** uint16 QuadDec_M1_Cnt16_ReadCompare(void) 
 490:Generated_Source\PSoC5/QuadDec_M1_Cnt16.c **** {
 662              		.loc 1 490 0
 663              		.cfi_startproc
 664              		@ args = 0, pretend = 0, frame = 0
 665              		@ frame_needed = 1, uses_anonymous_args = 0
 666              		@ link register save eliminated.
 667 0000 80B4     		push	{r7}
 668              		.cfi_def_cfa_offset 4
 669              		.cfi_offset 7, -4
 670 0002 00AF     		add	r7, sp, #0
 671              		.cfi_def_cfa_register 7
 491:Generated_Source\PSoC5/QuadDec_M1_Cnt16.c ****     return (CY_GET_REG16(QuadDec_M1_Cnt16_COMPARE_LSB_PTR));
 672              		.loc 1 491 0
 673 0004 034B     		ldr	r3, .L51
 674 0006 1B88     		ldrh	r3, [r3]	@ movhi
 675 0008 9BB2     		uxth	r3, r3
 492:Generated_Source\PSoC5/QuadDec_M1_Cnt16.c **** }
 676              		.loc 1 492 0
 677 000a 1846     		mov	r0, r3
 678 000c BD46     		mov	sp, r7
 679              		.cfi_def_cfa_register 13
 680              		@ sp needed
 681 000e 80BC     		pop	{r7}
 682              		.cfi_restore 7
 683              		.cfi_def_cfa_offset 0
 684 0010 7047     		bx	lr
 685              	.L52:
 686 0012 00BF     		.align	2
 687              	.L51:
 688 0014 6C680040 		.word	1073768556
 689              		.cfi_endproc
 690              	.LFE14:
 691              		.size	QuadDec_M1_Cnt16_ReadCompare, .-QuadDec_M1_Cnt16_ReadCompare
 692              		.section	.text.QuadDec_M1_Cnt16_ClearFIFO,"ax",%progbits
 693              		.align	2
 694              		.global	QuadDec_M1_Cnt16_ClearFIFO
 695              		.thumb
 696              		.thumb_func
 697              		.type	QuadDec_M1_Cnt16_ClearFIFO, %function
 698              	QuadDec_M1_Cnt16_ClearFIFO:
 699              	.LFB15:
 493:Generated_Source\PSoC5/QuadDec_M1_Cnt16.c **** 
 494:Generated_Source\PSoC5/QuadDec_M1_Cnt16.c **** 
 495:Generated_Source\PSoC5/QuadDec_M1_Cnt16.c **** #if (QuadDec_M1_Cnt16_COMPARE_MODE_SOFTWARE)
 496:Generated_Source\PSoC5/QuadDec_M1_Cnt16.c **** /*******************************************************************************
 497:Generated_Source\PSoC5/QuadDec_M1_Cnt16.c **** * Function Name: QuadDec_M1_Cnt16_SetCompareMode
 498:Generated_Source\PSoC5/QuadDec_M1_Cnt16.c **** ********************************************************************************
ARM GAS  C:\Users\ylee818\AppData\Local\Temp\ccTMyHIe.s 			page 22


 499:Generated_Source\PSoC5/QuadDec_M1_Cnt16.c **** * Summary:
 500:Generated_Source\PSoC5/QuadDec_M1_Cnt16.c **** *  Sets the software controlled Compare Mode.
 501:Generated_Source\PSoC5/QuadDec_M1_Cnt16.c **** *
 502:Generated_Source\PSoC5/QuadDec_M1_Cnt16.c **** * Parameters:
 503:Generated_Source\PSoC5/QuadDec_M1_Cnt16.c **** *  compareMode:  Compare Mode Enumerated Type.
 504:Generated_Source\PSoC5/QuadDec_M1_Cnt16.c **** *
 505:Generated_Source\PSoC5/QuadDec_M1_Cnt16.c **** * Return:
 506:Generated_Source\PSoC5/QuadDec_M1_Cnt16.c **** *  void
 507:Generated_Source\PSoC5/QuadDec_M1_Cnt16.c **** *
 508:Generated_Source\PSoC5/QuadDec_M1_Cnt16.c **** *******************************************************************************/
 509:Generated_Source\PSoC5/QuadDec_M1_Cnt16.c **** void QuadDec_M1_Cnt16_SetCompareMode(uint8 compareMode) 
 510:Generated_Source\PSoC5/QuadDec_M1_Cnt16.c **** {
 511:Generated_Source\PSoC5/QuadDec_M1_Cnt16.c ****     /* Clear the compare mode bits in the control register */
 512:Generated_Source\PSoC5/QuadDec_M1_Cnt16.c ****     QuadDec_M1_Cnt16_CONTROL &= ((uint8)(~QuadDec_M1_Cnt16_CTRL_CMPMODE_MASK));
 513:Generated_Source\PSoC5/QuadDec_M1_Cnt16.c ****     
 514:Generated_Source\PSoC5/QuadDec_M1_Cnt16.c ****     /* Write the new setting */
 515:Generated_Source\PSoC5/QuadDec_M1_Cnt16.c ****     QuadDec_M1_Cnt16_CONTROL |= compareMode;
 516:Generated_Source\PSoC5/QuadDec_M1_Cnt16.c **** }
 517:Generated_Source\PSoC5/QuadDec_M1_Cnt16.c **** #endif  /* (QuadDec_M1_Cnt16_COMPARE_MODE_SOFTWARE) */
 518:Generated_Source\PSoC5/QuadDec_M1_Cnt16.c **** 
 519:Generated_Source\PSoC5/QuadDec_M1_Cnt16.c **** 
 520:Generated_Source\PSoC5/QuadDec_M1_Cnt16.c **** #if (QuadDec_M1_Cnt16_CAPTURE_MODE_SOFTWARE)
 521:Generated_Source\PSoC5/QuadDec_M1_Cnt16.c **** /*******************************************************************************
 522:Generated_Source\PSoC5/QuadDec_M1_Cnt16.c **** * Function Name: QuadDec_M1_Cnt16_SetCaptureMode
 523:Generated_Source\PSoC5/QuadDec_M1_Cnt16.c **** ********************************************************************************
 524:Generated_Source\PSoC5/QuadDec_M1_Cnt16.c **** * Summary:
 525:Generated_Source\PSoC5/QuadDec_M1_Cnt16.c **** *  Sets the software controlled Capture Mode.
 526:Generated_Source\PSoC5/QuadDec_M1_Cnt16.c **** *
 527:Generated_Source\PSoC5/QuadDec_M1_Cnt16.c **** * Parameters:
 528:Generated_Source\PSoC5/QuadDec_M1_Cnt16.c **** *  captureMode:  Capture Mode Enumerated Type.
 529:Generated_Source\PSoC5/QuadDec_M1_Cnt16.c **** *
 530:Generated_Source\PSoC5/QuadDec_M1_Cnt16.c **** * Return:
 531:Generated_Source\PSoC5/QuadDec_M1_Cnt16.c **** *  void
 532:Generated_Source\PSoC5/QuadDec_M1_Cnt16.c **** *
 533:Generated_Source\PSoC5/QuadDec_M1_Cnt16.c **** *******************************************************************************/
 534:Generated_Source\PSoC5/QuadDec_M1_Cnt16.c **** void QuadDec_M1_Cnt16_SetCaptureMode(uint8 captureMode) 
 535:Generated_Source\PSoC5/QuadDec_M1_Cnt16.c **** {
 536:Generated_Source\PSoC5/QuadDec_M1_Cnt16.c ****     /* Clear the capture mode bits in the control register */
 537:Generated_Source\PSoC5/QuadDec_M1_Cnt16.c ****     QuadDec_M1_Cnt16_CONTROL &= ((uint8)(~QuadDec_M1_Cnt16_CTRL_CAPMODE_MASK));
 538:Generated_Source\PSoC5/QuadDec_M1_Cnt16.c ****     
 539:Generated_Source\PSoC5/QuadDec_M1_Cnt16.c ****     /* Write the new setting */
 540:Generated_Source\PSoC5/QuadDec_M1_Cnt16.c ****     QuadDec_M1_Cnt16_CONTROL |= ((uint8)((uint8)captureMode << QuadDec_M1_Cnt16_CTRL_CAPMODE0_SHIFT
 541:Generated_Source\PSoC5/QuadDec_M1_Cnt16.c **** }
 542:Generated_Source\PSoC5/QuadDec_M1_Cnt16.c **** #endif  /* (QuadDec_M1_Cnt16_CAPTURE_MODE_SOFTWARE) */
 543:Generated_Source\PSoC5/QuadDec_M1_Cnt16.c **** 
 544:Generated_Source\PSoC5/QuadDec_M1_Cnt16.c **** 
 545:Generated_Source\PSoC5/QuadDec_M1_Cnt16.c **** /*******************************************************************************
 546:Generated_Source\PSoC5/QuadDec_M1_Cnt16.c **** * Function Name: QuadDec_M1_Cnt16_ClearFIFO
 547:Generated_Source\PSoC5/QuadDec_M1_Cnt16.c **** ********************************************************************************
 548:Generated_Source\PSoC5/QuadDec_M1_Cnt16.c **** * Summary:
 549:Generated_Source\PSoC5/QuadDec_M1_Cnt16.c **** *   This function clears all capture data from the capture FIFO
 550:Generated_Source\PSoC5/QuadDec_M1_Cnt16.c **** *
 551:Generated_Source\PSoC5/QuadDec_M1_Cnt16.c **** * Parameters:  
 552:Generated_Source\PSoC5/QuadDec_M1_Cnt16.c **** *  void:
 553:Generated_Source\PSoC5/QuadDec_M1_Cnt16.c **** *
 554:Generated_Source\PSoC5/QuadDec_M1_Cnt16.c **** * Return: 
 555:Generated_Source\PSoC5/QuadDec_M1_Cnt16.c **** *  None
ARM GAS  C:\Users\ylee818\AppData\Local\Temp\ccTMyHIe.s 			page 23


 556:Generated_Source\PSoC5/QuadDec_M1_Cnt16.c **** *
 557:Generated_Source\PSoC5/QuadDec_M1_Cnt16.c **** *******************************************************************************/
 558:Generated_Source\PSoC5/QuadDec_M1_Cnt16.c **** void QuadDec_M1_Cnt16_ClearFIFO(void) 
 559:Generated_Source\PSoC5/QuadDec_M1_Cnt16.c **** {
 700              		.loc 1 559 0
 701              		.cfi_startproc
 702              		@ args = 0, pretend = 0, frame = 0
 703              		@ frame_needed = 1, uses_anonymous_args = 0
 704 0000 80B5     		push	{r7, lr}
 705              		.cfi_def_cfa_offset 8
 706              		.cfi_offset 7, -8
 707              		.cfi_offset 14, -4
 708 0002 00AF     		add	r7, sp, #0
 709              		.cfi_def_cfa_register 7
 560:Generated_Source\PSoC5/QuadDec_M1_Cnt16.c **** 
 561:Generated_Source\PSoC5/QuadDec_M1_Cnt16.c ****     while(0u != (QuadDec_M1_Cnt16_ReadStatusRegister() & QuadDec_M1_Cnt16_STATUS_FIFONEMP))
 710              		.loc 1 561 0
 711 0004 01E0     		b	.L54
 712              	.L55:
 562:Generated_Source\PSoC5/QuadDec_M1_Cnt16.c ****     {
 563:Generated_Source\PSoC5/QuadDec_M1_Cnt16.c ****         (void)QuadDec_M1_Cnt16_ReadCapture();
 713              		.loc 1 563 0
 714 0006 FFF7FEFF 		bl	QuadDec_M1_Cnt16_ReadCapture
 715              	.L54:
 561:Generated_Source\PSoC5/QuadDec_M1_Cnt16.c ****     {
 716              		.loc 1 561 0
 717 000a FFF7FEFF 		bl	QuadDec_M1_Cnt16_ReadStatusRegister
 718 000e 0346     		mov	r3, r0
 719 0010 03F04003 		and	r3, r3, #64
 720 0014 002B     		cmp	r3, #0
 721 0016 F6D1     		bne	.L55
 564:Generated_Source\PSoC5/QuadDec_M1_Cnt16.c ****     }
 565:Generated_Source\PSoC5/QuadDec_M1_Cnt16.c **** 
 566:Generated_Source\PSoC5/QuadDec_M1_Cnt16.c **** }
 722              		.loc 1 566 0
 723 0018 00BF     		nop
 724 001a 80BD     		pop	{r7, pc}
 725              		.cfi_endproc
 726              	.LFE15:
 727              		.size	QuadDec_M1_Cnt16_ClearFIFO, .-QuadDec_M1_Cnt16_ClearFIFO
 728              		.text
 729              	.Letext0:
 730              		.file 2 "Generated_Source\\PSoC5\\cytypes.h"