ARM GAS  C:\Users\ylee818\AppData\Local\Temp\cc49iKAA.s 			page 1


   1              		.syntax unified
   2              		.cpu cortex-m3
   3              		.fpu softvfp
   4              		.eabi_attribute 20, 1
   5              		.eabi_attribute 21, 1
   6              		.eabi_attribute 23, 3
   7              		.eabi_attribute 24, 1
   8              		.eabi_attribute 25, 1
   9              		.eabi_attribute 26, 1
  10              		.eabi_attribute 30, 6
  11              		.eabi_attribute 34, 1
  12              		.eabi_attribute 18, 4
  13              		.thumb
  14              		.syntax unified
  15              		.file	"sensors.c"
  16              		.text
  17              	.Ltext0:
  18              		.cfi_sections	.debug_frame
  19              		.section	.text.Sensor_ComputePeakToPeak,"ax",%progbits
  20              		.align	2
  21              		.global	Sensor_ComputePeakToPeak
  22              		.thumb
  23              		.thumb_func
  24              		.type	Sensor_ComputePeakToPeak, %function
  25              	Sensor_ComputePeakToPeak:
  26              	.LFB64:
  27              		.file 1 "sensors.c"
   1:sensors.c     **** #include <project.h> 
   2:sensors.c     **** #include <sensors.h>
   3:sensors.c     **** #include <stdint.h> 
   4:sensors.c     **** #include <stdlib.h>
   5:sensors.c     **** #include <stdio.h>
   6:sensors.c     **** 
   7:sensors.c     **** // Computes the peak-peak value (max - min) of N_SAMPLES from ADC 
   8:sensors.c     **** // for the selected channel (eg channel 0 = A0) 
   9:sensors.c     **** uint16_t Sensor_ComputePeakToPeak(uint8_t channel) {
  28              		.loc 1 9 0
  29              		.cfi_startproc
  30              		@ args = 0, pretend = 0, frame = 24
  31              		@ frame_needed = 1, uses_anonymous_args = 0
  32 0000 80B5     		push	{r7, lr}
  33              		.cfi_def_cfa_offset 8
  34              		.cfi_offset 7, -8
  35              		.cfi_offset 14, -4
  36 0002 86B0     		sub	sp, sp, #24
  37              		.cfi_def_cfa_offset 32
  38 0004 00AF     		add	r7, sp, #0
  39              		.cfi_def_cfa_register 7
  40 0006 0346     		mov	r3, r0
  41 0008 FB71     		strb	r3, [r7, #7]
  10:sensors.c     ****     
  11:sensors.c     **** uint16_t min_val = 4095; // start with max possible 
  42              		.loc 1 11 0
  43 000a 40F6FF73 		movw	r3, #4095
  44 000e FB82     		strh	r3, [r7, #22]	@ movhi
  12:sensors.c     **** uint16_t max_val = 0; // start with min possible 
  45              		.loc 1 12 0
ARM GAS  C:\Users\ylee818\AppData\Local\Temp\cc49iKAA.s 			page 2


  46 0010 0023     		movs	r3, #0
  47 0012 BB82     		strh	r3, [r7, #20]	@ movhi
  13:sensors.c     ****     
  14:sensors.c     ****   ADC_StartConvert();
  48              		.loc 1 14 0
  49 0014 FFF7FEFF 		bl	ADC_StartConvert
  50              	.LBB2:
  15:sensors.c     **** 
  16:sensors.c     ****   // collect N_SAMPLES from ADC 
  17:sensors.c     ****   for (int i = 0; i < N_SAMPLES; i++){
  51              		.loc 1 17 0
  52 0018 0023     		movs	r3, #0
  53 001a 3B61     		str	r3, [r7, #16]
  54 001c 15E0     		b	.L2
  55              	.L5:
  56              	.LBB3:
  18:sensors.c     ****     // Read the result from the given ADC channel (0-7 for A0-A7) 
  19:sensors.c     ****     uint16_t sample = ADC_GetResult16(channel); 
  57              		.loc 1 19 0
  58 001e FB79     		ldrb	r3, [r7, #7]	@ zero_extendqisi2
  59 0020 9BB2     		uxth	r3, r3
  60 0022 1846     		mov	r0, r3
  61 0024 FFF7FEFF 		bl	ADC_GetResult16
  62 0028 0346     		mov	r3, r0
  63 002a FB81     		strh	r3, [r7, #14]	@ movhi
  20:sensors.c     ****     // wait until ADC conversion for current channel is done 
  21:sensors.c     **** 
  22:sensors.c     ****     // Update max and min trackers
  23:sensors.c     ****     if(sample < min_val) {
  64              		.loc 1 23 0
  65 002c FA89     		ldrh	r2, [r7, #14]
  66 002e FB8A     		ldrh	r3, [r7, #22]
  67 0030 9A42     		cmp	r2, r3
  68 0032 01D2     		bcs	.L3
  24:sensors.c     ****         min_val = sample;
  69              		.loc 1 24 0
  70 0034 FB89     		ldrh	r3, [r7, #14]	@ movhi
  71 0036 FB82     		strh	r3, [r7, #22]	@ movhi
  72              	.L3:
  25:sensors.c     ****     }
  26:sensors.c     ****     if(sample > max_val) {
  73              		.loc 1 26 0
  74 0038 FA89     		ldrh	r2, [r7, #14]
  75 003a BB8A     		ldrh	r3, [r7, #20]
  76 003c 9A42     		cmp	r2, r3
  77 003e 01D9     		bls	.L4
  27:sensors.c     ****         max_val = sample; 
  78              		.loc 1 27 0
  79 0040 FB89     		ldrh	r3, [r7, #14]	@ movhi
  80 0042 BB82     		strh	r3, [r7, #20]	@ movhi
  81              	.L4:
  82              	.LBE3:
  17:sensors.c     ****     // Read the result from the given ADC channel (0-7 for A0-A7) 
  83              		.loc 1 17 0 discriminator 2
  84 0044 3B69     		ldr	r3, [r7, #16]
  85 0046 0133     		adds	r3, r3, #1
  86 0048 3B61     		str	r3, [r7, #16]
ARM GAS  C:\Users\ylee818\AppData\Local\Temp\cc49iKAA.s 			page 3


  87              	.L2:
  17:sensors.c     ****     // Read the result from the given ADC channel (0-7 for A0-A7) 
  88              		.loc 1 17 0 is_stmt 0 discriminator 1
  89 004a 3B69     		ldr	r3, [r7, #16]
  90 004c 40F2A362 		movw	r2, #1699
  91 0050 9342     		cmp	r3, r2
  92 0052 E4DD     		ble	.L5
  93              	.LBE2:
  28:sensors.c     ****     }
  29:sensors.c     **** } 
  30:sensors.c     ****   ADC_StopConvert();
  94              		.loc 1 30 0 is_stmt 1
  95 0054 FFF7FEFF 		bl	ADC_StopConvert
  31:sensors.c     **** 
  32:sensors.c     ****   // return peak to peak voltage in ADC counts 
  33:sensors.c     ****  return (max_val - min_val);
  96              		.loc 1 33 0
  97 0058 BA8A     		ldrh	r2, [r7, #20]	@ movhi
  98 005a FB8A     		ldrh	r3, [r7, #22]	@ movhi
  99 005c D31A     		subs	r3, r2, r3
 100 005e 9BB2     		uxth	r3, r3
  34:sensors.c     **** 
  35:sensors.c     **** }...
 101              		.loc 1 35 0
 102 0060 1846     		mov	r0, r3
 103 0062 1837     		adds	r7, r7, #24
 104              		.cfi_def_cfa_offset 8
 105 0064 BD46     		mov	sp, r7
 106              		.cfi_def_cfa_register 13
 107              		@ sp needed
 108 0066 80BD     		pop	{r7, pc}
 109              		.cfi_endproc
 110              	.LFE64:
 111              		.size	Sensor_ComputePeakToPeak, .-Sensor_ComputePeakToPeak
 112              		.text
 113              	.Letext0:
 114              		.file 2 "c:\\program files (x86)\\cypress\\psoc creator\\4.2\\psoc creator\\import\\gnu\\arm\\5.4.
 115              		.file 3 "c:\\program files (x86)\\cypress\\psoc creator\\4.2\\psoc creator\\import\\gnu\\arm\\5.4.
 116              		.file 4 "Generated_Source\\PSoC5/core_cm3.h"