ARM GAS  C:\Users\ylee818\AppData\Local\Temp\ccV6WdWf.s 			page 1


   1              		.syntax unified
   2              		.cpu cortex-m3
   3              		.fpu softvfp
   4              		.eabi_attribute 20, 1
   5              		.eabi_attribute 21, 1
   6              		.eabi_attribute 23, 3
   7              		.eabi_attribute 24, 1
   8              		.eabi_attribute 25, 1
   9              		.eabi_attribute 26, 1
  10              		.eabi_attribute 30, 6
  11              		.eabi_attribute 34, 1
  12              		.eabi_attribute 18, 4
  13              		.thumb
  14              		.syntax unified
  15              		.file	"ADC_PM.c"
  16              		.text
  17              	.Ltext0:
  18              		.cfi_sections	.debug_frame
  19              		.section	.text.ADC_Sleep,"ax",%progbits
  20              		.align	2
  21              		.global	ADC_Sleep
  22              		.thumb
  23              		.thumb_func
  24              		.type	ADC_Sleep, %function
  25              	ADC_Sleep:
  26              	.LFB0:
  27              		.file 1 "Generated_Source\\PSoC5\\ADC_PM.c"
   1:Generated_Source\PSoC5/ADC_PM.c **** /*******************************************************************************
   2:Generated_Source\PSoC5/ADC_PM.c **** * File Name: ADC_PM.c
   3:Generated_Source\PSoC5/ADC_PM.c **** * Version 2.10
   4:Generated_Source\PSoC5/ADC_PM.c **** *
   5:Generated_Source\PSoC5/ADC_PM.c **** * Description:
   6:Generated_Source\PSoC5/ADC_PM.c **** *  This file contains the setup, control and status commands to support
   7:Generated_Source\PSoC5/ADC_PM.c **** *  component operations in low power mode.
   8:Generated_Source\PSoC5/ADC_PM.c **** *
   9:Generated_Source\PSoC5/ADC_PM.c **** * Note:
  10:Generated_Source\PSoC5/ADC_PM.c **** *
  11:Generated_Source\PSoC5/ADC_PM.c **** ********************************************************************************
  12:Generated_Source\PSoC5/ADC_PM.c **** * Copyright 2012-2015, Cypress Semiconductor Corporation.  All rights reserved.
  13:Generated_Source\PSoC5/ADC_PM.c **** * You may use this file only in accordance with the license, terms, conditions,
  14:Generated_Source\PSoC5/ADC_PM.c **** * disclaimers, and limitations in the end user license agreement accompanying
  15:Generated_Source\PSoC5/ADC_PM.c **** * the software package with which this file was provided.
  16:Generated_Source\PSoC5/ADC_PM.c **** *******************************************************************************/
  17:Generated_Source\PSoC5/ADC_PM.c **** 
  18:Generated_Source\PSoC5/ADC_PM.c **** #include "ADC.h"
  19:Generated_Source\PSoC5/ADC_PM.c **** #include "ADC_SAR.h"
  20:Generated_Source\PSoC5/ADC_PM.c **** #if(ADC_CLOCK_SOURCE == ADC_CLOCK_INTERNAL)
  21:Generated_Source\PSoC5/ADC_PM.c ****     #include "ADC_IntClock.h"
  22:Generated_Source\PSoC5/ADC_PM.c **** #endif   /* ADC_CLOCK_SOURCE == ADC_CLOCK_INTERNAL */
  23:Generated_Source\PSoC5/ADC_PM.c **** 
  24:Generated_Source\PSoC5/ADC_PM.c **** 
  25:Generated_Source\PSoC5/ADC_PM.c **** /*******************************************************************************
  26:Generated_Source\PSoC5/ADC_PM.c **** * Function Name: ADC_Sleep
  27:Generated_Source\PSoC5/ADC_PM.c **** ********************************************************************************
  28:Generated_Source\PSoC5/ADC_PM.c **** *
  29:Generated_Source\PSoC5/ADC_PM.c **** * Summary:
  30:Generated_Source\PSoC5/ADC_PM.c **** *  Stops the ADC operation and saves the configuration registers and component
ARM GAS  C:\Users\ylee818\AppData\Local\Temp\ccV6WdWf.s 			page 2


  31:Generated_Source\PSoC5/ADC_PM.c **** *  enable state. Should be called just prior to entering sleep
  32:Generated_Source\PSoC5/ADC_PM.c **** *
  33:Generated_Source\PSoC5/ADC_PM.c **** * Parameters:
  34:Generated_Source\PSoC5/ADC_PM.c **** *  None.
  35:Generated_Source\PSoC5/ADC_PM.c **** *
  36:Generated_Source\PSoC5/ADC_PM.c **** * Return:
  37:Generated_Source\PSoC5/ADC_PM.c **** *  None.
  38:Generated_Source\PSoC5/ADC_PM.c **** *
  39:Generated_Source\PSoC5/ADC_PM.c **** * Side Effects:
  40:Generated_Source\PSoC5/ADC_PM.c **** *  None.
  41:Generated_Source\PSoC5/ADC_PM.c **** *
  42:Generated_Source\PSoC5/ADC_PM.c **** * Reentrant:
  43:Generated_Source\PSoC5/ADC_PM.c **** *  No.
  44:Generated_Source\PSoC5/ADC_PM.c **** *
  45:Generated_Source\PSoC5/ADC_PM.c **** *******************************************************************************/
  46:Generated_Source\PSoC5/ADC_PM.c **** void ADC_Sleep(void)
  47:Generated_Source\PSoC5/ADC_PM.c **** {
  28              		.loc 1 47 0
  29              		.cfi_startproc
  30              		@ args = 0, pretend = 0, frame = 0
  31              		@ frame_needed = 1, uses_anonymous_args = 0
  32 0000 80B5     		push	{r7, lr}
  33              		.cfi_def_cfa_offset 8
  34              		.cfi_offset 7, -8
  35              		.cfi_offset 14, -4
  36 0002 00AF     		add	r7, sp, #0
  37              		.cfi_def_cfa_register 7
  48:Generated_Source\PSoC5/ADC_PM.c ****     ADC_SAR_Stop();
  38              		.loc 1 48 0
  39 0004 FFF7FEFF 		bl	ADC_SAR_Stop
  49:Generated_Source\PSoC5/ADC_PM.c ****     ADC_SAR_Sleep();
  40              		.loc 1 49 0
  41 0008 FFF7FEFF 		bl	ADC_SAR_Sleep
  50:Generated_Source\PSoC5/ADC_PM.c ****     ADC_Disable();
  42              		.loc 1 50 0
  43 000c FFF7FEFF 		bl	ADC_Disable
  51:Generated_Source\PSoC5/ADC_PM.c **** 
  52:Generated_Source\PSoC5/ADC_PM.c ****     #if(ADC_CLOCK_SOURCE == ADC_CLOCK_INTERNAL)
  53:Generated_Source\PSoC5/ADC_PM.c ****         ADC_IntClock_Stop();
  44              		.loc 1 53 0
  45 0010 FFF7FEFF 		bl	ADC_IntClock_Stop
  54:Generated_Source\PSoC5/ADC_PM.c ****     #endif   /* ADC_CLOCK_SOURCE == ADC_CLOCK_INTERNAL */
  55:Generated_Source\PSoC5/ADC_PM.c **** }
  46              		.loc 1 55 0
  47 0014 00BF     		nop
  48 0016 80BD     		pop	{r7, pc}
  49              		.cfi_endproc
  50              	.LFE0:
  51              		.size	ADC_Sleep, .-ADC_Sleep
  52              		.section	.text.ADC_Wakeup,"ax",%progbits
  53              		.align	2
  54              		.global	ADC_Wakeup
  55              		.thumb
  56              		.thumb_func
  57              		.type	ADC_Wakeup, %function
  58              	ADC_Wakeup:
  59              	.LFB1:
ARM GAS  C:\Users\ylee818\AppData\Local\Temp\ccV6WdWf.s 			page 3


  56:Generated_Source\PSoC5/ADC_PM.c **** 
  57:Generated_Source\PSoC5/ADC_PM.c **** 
  58:Generated_Source\PSoC5/ADC_PM.c **** /*******************************************************************************
  59:Generated_Source\PSoC5/ADC_PM.c **** * Function Name: ADC_Wakeup
  60:Generated_Source\PSoC5/ADC_PM.c **** ********************************************************************************
  61:Generated_Source\PSoC5/ADC_PM.c **** *
  62:Generated_Source\PSoC5/ADC_PM.c **** * Summary:
  63:Generated_Source\PSoC5/ADC_PM.c **** *  Restores the component enable state and configuration registers. This should
  64:Generated_Source\PSoC5/ADC_PM.c **** *  be called just after awaking from sleep mode
  65:Generated_Source\PSoC5/ADC_PM.c **** *
  66:Generated_Source\PSoC5/ADC_PM.c **** * Parameters:
  67:Generated_Source\PSoC5/ADC_PM.c **** *  None.
  68:Generated_Source\PSoC5/ADC_PM.c **** *
  69:Generated_Source\PSoC5/ADC_PM.c **** * Return:
  70:Generated_Source\PSoC5/ADC_PM.c **** *  None.
  71:Generated_Source\PSoC5/ADC_PM.c **** *
  72:Generated_Source\PSoC5/ADC_PM.c **** * Side Effects:
  73:Generated_Source\PSoC5/ADC_PM.c **** *  None.
  74:Generated_Source\PSoC5/ADC_PM.c **** *
  75:Generated_Source\PSoC5/ADC_PM.c **** * Reentrant:
  76:Generated_Source\PSoC5/ADC_PM.c **** *  No.
  77:Generated_Source\PSoC5/ADC_PM.c **** *
  78:Generated_Source\PSoC5/ADC_PM.c **** *******************************************************************************/
  79:Generated_Source\PSoC5/ADC_PM.c **** void ADC_Wakeup(void)
  80:Generated_Source\PSoC5/ADC_PM.c **** {
  60              		.loc 1 80 0
  61              		.cfi_startproc
  62              		@ args = 0, pretend = 0, frame = 0
  63              		@ frame_needed = 1, uses_anonymous_args = 0
  64 0000 80B5     		push	{r7, lr}
  65              		.cfi_def_cfa_offset 8
  66              		.cfi_offset 7, -8
  67              		.cfi_offset 14, -4
  68 0002 00AF     		add	r7, sp, #0
  69              		.cfi_def_cfa_register 7
  81:Generated_Source\PSoC5/ADC_PM.c ****     ADC_SAR_Wakeup();
  70              		.loc 1 81 0
  71 0004 FFF7FEFF 		bl	ADC_SAR_Wakeup
  82:Generated_Source\PSoC5/ADC_PM.c ****     ADC_SAR_Enable();
  72              		.loc 1 82 0
  73 0008 FFF7FEFF 		bl	ADC_SAR_Enable
  83:Generated_Source\PSoC5/ADC_PM.c **** 
  84:Generated_Source\PSoC5/ADC_PM.c ****     #if(ADC_CLOCK_SOURCE == ADC_CLOCK_INTERNAL)
  85:Generated_Source\PSoC5/ADC_PM.c ****         ADC_IntClock_Start();
  74              		.loc 1 85 0
  75 000c FFF7FEFF 		bl	ADC_IntClock_Start
  86:Generated_Source\PSoC5/ADC_PM.c ****     #endif   /* ADC_CLOCK_SOURCE == ADC_CLOCK_INTERNAL */
  87:Generated_Source\PSoC5/ADC_PM.c **** 
  88:Generated_Source\PSoC5/ADC_PM.c ****     /* The block is ready to use 10 us after the SAR enable signal is set high. */
  89:Generated_Source\PSoC5/ADC_PM.c ****     CyDelayUs(10u);
  76              		.loc 1 89 0
  77 0010 0A20     		movs	r0, #10
  78 0012 FFF7FEFF 		bl	CyDelayUs
  90:Generated_Source\PSoC5/ADC_PM.c ****     
  91:Generated_Source\PSoC5/ADC_PM.c ****     ADC_Enable();
  79              		.loc 1 91 0
  80 0016 FFF7FEFF 		bl	ADC_Enable
ARM GAS  C:\Users\ylee818\AppData\Local\Temp\ccV6WdWf.s 			page 4


  92:Generated_Source\PSoC5/ADC_PM.c **** 
  93:Generated_Source\PSoC5/ADC_PM.c ****     #if(ADC_SAMPLE_MODE == ADC_SAMPLE_MODE_FREE_RUNNING)
  94:Generated_Source\PSoC5/ADC_PM.c ****         ADC_SAR_StartConvert();
  81              		.loc 1 94 0
  82 001a FFF7FEFF 		bl	ADC_SAR_StartConvert
  95:Generated_Source\PSoC5/ADC_PM.c ****     #endif /* (ADC_SAMPLE_MODE == ADC_SAMPLE_MODE_FREE_RUNNING) */
  96:Generated_Source\PSoC5/ADC_PM.c **** 
  97:Generated_Source\PSoC5/ADC_PM.c ****     (void) CY_GET_REG8(ADC_STATUS_PTR);
  83              		.loc 1 97 0
  84 001e 024B     		ldr	r3, .L3
  85 0020 1B78     		ldrb	r3, [r3]
  98:Generated_Source\PSoC5/ADC_PM.c **** }
  86              		.loc 1 98 0
  87 0022 00BF     		nop
  88 0024 80BD     		pop	{r7, pc}
  89              	.L4:
  90 0026 00BF     		.align	2
  91              	.L3:
  92 0028 6F640040 		.word	1073767535
  93              		.cfi_endproc
  94              	.LFE1:
  95              		.size	ADC_Wakeup, .-ADC_Wakeup
  96              		.section	.text.ADC_SaveConfig,"ax",%progbits
  97              		.align	2
  98              		.global	ADC_SaveConfig
  99              		.thumb
 100              		.thumb_func
 101              		.type	ADC_SaveConfig, %function
 102              	ADC_SaveConfig:
 103              	.LFB2:
  99:Generated_Source\PSoC5/ADC_PM.c **** 
 100:Generated_Source\PSoC5/ADC_PM.c **** 
 101:Generated_Source\PSoC5/ADC_PM.c **** /*******************************************************************************
 102:Generated_Source\PSoC5/ADC_PM.c **** * Function Name: ADC_SaveConfig
 103:Generated_Source\PSoC5/ADC_PM.c **** ********************************************************************************
 104:Generated_Source\PSoC5/ADC_PM.c **** *
 105:Generated_Source\PSoC5/ADC_PM.c **** * Summary:
 106:Generated_Source\PSoC5/ADC_PM.c **** *  Save the current configuration of ADC non-retention registers
 107:Generated_Source\PSoC5/ADC_PM.c **** *
 108:Generated_Source\PSoC5/ADC_PM.c **** * Parameters:
 109:Generated_Source\PSoC5/ADC_PM.c **** *  None.
 110:Generated_Source\PSoC5/ADC_PM.c **** *
 111:Generated_Source\PSoC5/ADC_PM.c **** * Return:
 112:Generated_Source\PSoC5/ADC_PM.c **** *  None.
 113:Generated_Source\PSoC5/ADC_PM.c **** *
 114:Generated_Source\PSoC5/ADC_PM.c **** * Side Effects:
 115:Generated_Source\PSoC5/ADC_PM.c **** *  None.
 116:Generated_Source\PSoC5/ADC_PM.c **** *
 117:Generated_Source\PSoC5/ADC_PM.c **** * Reentrant:
 118:Generated_Source\PSoC5/ADC_PM.c **** *  No.
 119:Generated_Source\PSoC5/ADC_PM.c **** *
 120:Generated_Source\PSoC5/ADC_PM.c **** *******************************************************************************/
 121:Generated_Source\PSoC5/ADC_PM.c **** void ADC_SaveConfig(void)
 122:Generated_Source\PSoC5/ADC_PM.c **** {
 104              		.loc 1 122 0
 105              		.cfi_startproc
 106              		@ args = 0, pretend = 0, frame = 0
ARM GAS  C:\Users\ylee818\AppData\Local\Temp\ccV6WdWf.s 			page 5


 107              		@ frame_needed = 1, uses_anonymous_args = 0
 108              		@ link register save eliminated.
 109 0000 80B4     		push	{r7}
 110              		.cfi_def_cfa_offset 4
 111              		.cfi_offset 7, -4
 112 0002 00AF     		add	r7, sp, #0
 113              		.cfi_def_cfa_register 7
 123:Generated_Source\PSoC5/ADC_PM.c **** 
 124:Generated_Source\PSoC5/ADC_PM.c **** }
 114              		.loc 1 124 0
 115 0004 00BF     		nop
 116 0006 BD46     		mov	sp, r7
 117              		.cfi_def_cfa_register 13
 118              		@ sp needed
 119 0008 80BC     		pop	{r7}
 120              		.cfi_restore 7
 121              		.cfi_def_cfa_offset 0
 122 000a 7047     		bx	lr
 123              		.cfi_endproc
 124              	.LFE2:
 125              		.size	ADC_SaveConfig, .-ADC_SaveConfig
 126              		.section	.text.ADC_RestoreConfig,"ax",%progbits
 127              		.align	2
 128              		.global	ADC_RestoreConfig
 129              		.thumb
 130              		.thumb_func
 131              		.type	ADC_RestoreConfig, %function
 132              	ADC_RestoreConfig:
 133              	.LFB3:
 125:Generated_Source\PSoC5/ADC_PM.c **** 
 126:Generated_Source\PSoC5/ADC_PM.c **** 
 127:Generated_Source\PSoC5/ADC_PM.c **** /*******************************************************************************
 128:Generated_Source\PSoC5/ADC_PM.c **** * Function Name: ADC_RestoreConfig
 129:Generated_Source\PSoC5/ADC_PM.c **** ********************************************************************************
 130:Generated_Source\PSoC5/ADC_PM.c **** *
 131:Generated_Source\PSoC5/ADC_PM.c **** * Summary:
 132:Generated_Source\PSoC5/ADC_PM.c **** *  Restores the configuration of ADC non-retention registers
 133:Generated_Source\PSoC5/ADC_PM.c **** *
 134:Generated_Source\PSoC5/ADC_PM.c **** * Parameters:
 135:Generated_Source\PSoC5/ADC_PM.c **** *  None.
 136:Generated_Source\PSoC5/ADC_PM.c **** *
 137:Generated_Source\PSoC5/ADC_PM.c **** * Return:
 138:Generated_Source\PSoC5/ADC_PM.c **** *  None.
 139:Generated_Source\PSoC5/ADC_PM.c **** *
 140:Generated_Source\PSoC5/ADC_PM.c **** * Side Effects:
 141:Generated_Source\PSoC5/ADC_PM.c **** *  None.
 142:Generated_Source\PSoC5/ADC_PM.c **** *
 143:Generated_Source\PSoC5/ADC_PM.c **** * Reentrant:
 144:Generated_Source\PSoC5/ADC_PM.c **** *  No.
 145:Generated_Source\PSoC5/ADC_PM.c **** *
 146:Generated_Source\PSoC5/ADC_PM.c **** *******************************************************************************/
 147:Generated_Source\PSoC5/ADC_PM.c **** void ADC_RestoreConfig(void)
 148:Generated_Source\PSoC5/ADC_PM.c **** {
 134              		.loc 1 148 0
 135              		.cfi_startproc
 136              		@ args = 0, pretend = 0, frame = 0
 137              		@ frame_needed = 1, uses_anonymous_args = 0
ARM GAS  C:\Users\ylee818\AppData\Local\Temp\ccV6WdWf.s 			page 6


 138              		@ link register save eliminated.
 139 0000 80B4     		push	{r7}
 140              		.cfi_def_cfa_offset 4
 141              		.cfi_offset 7, -4
 142 0002 00AF     		add	r7, sp, #0
 143              		.cfi_def_cfa_register 7
 149:Generated_Source\PSoC5/ADC_PM.c **** 
 150:Generated_Source\PSoC5/ADC_PM.c **** }
 144              		.loc 1 150 0
 145 0004 00BF     		nop
 146 0006 BD46     		mov	sp, r7
 147              		.cfi_def_cfa_register 13
 148              		@ sp needed
 149 0008 80BC     		pop	{r7}
 150              		.cfi_restore 7
 151              		.cfi_def_cfa_offset 0
 152 000a 7047     		bx	lr
 153              		.cfi_endproc
 154              	.LFE3:
 155              		.size	ADC_RestoreConfig, .-ADC_RestoreConfig
 156              		.text
 157              	.Letext0:
 158              		.file 2 "Generated_Source\\PSoC5\\cytypes.h"