ARM GAS  C:\Users\ylee818\AppData\Local\Temp\ccxWhEST.s 			page 1


   1              		.syntax unified
   2              		.cpu cortex-m3
   3              		.fpu softvfp
   4              		.eabi_attribute 20, 1
   5              		.eabi_attribute 21, 1
   6              		.eabi_attribute 23, 3
   7              		.eabi_attribute 24, 1
   8              		.eabi_attribute 25, 1
   9              		.eabi_attribute 26, 1
  10              		.eabi_attribute 30, 6
  11              		.eabi_attribute 34, 1
  12              		.eabi_attribute 18, 4
  13              		.thumb
  14              		.syntax unified
  15              		.file	"isr_TS.c"
  16              		.text
  17              	.Ltext0:
  18              		.cfi_sections	.debug_frame
  19              		.section	.text.isr_TS_Start,"ax",%progbits
  20              		.align	2
  21              		.global	isr_TS_Start
  22              		.thumb
  23              		.thumb_func
  24              		.type	isr_TS_Start, %function
  25              	isr_TS_Start:
  26              	.LFB0:
  27              		.file 1 "Generated_Source\\PSoC5\\isr_TS.c"
   1:Generated_Source\PSoC5/isr_TS.c **** /*******************************************************************************
   2:Generated_Source\PSoC5/isr_TS.c **** * File Name: isr_TS.c  
   3:Generated_Source\PSoC5/isr_TS.c **** * Version 1.71
   4:Generated_Source\PSoC5/isr_TS.c **** *
   5:Generated_Source\PSoC5/isr_TS.c **** *  Description:
   6:Generated_Source\PSoC5/isr_TS.c **** *   API for controlling the state of an interrupt.
   7:Generated_Source\PSoC5/isr_TS.c **** *
   8:Generated_Source\PSoC5/isr_TS.c **** *
   9:Generated_Source\PSoC5/isr_TS.c **** *  Note:
  10:Generated_Source\PSoC5/isr_TS.c **** *
  11:Generated_Source\PSoC5/isr_TS.c **** ********************************************************************************
  12:Generated_Source\PSoC5/isr_TS.c **** * Copyright 2008-2015, Cypress Semiconductor Corporation.  All rights reserved.
  13:Generated_Source\PSoC5/isr_TS.c **** * You may use this file only in accordance with the license, terms, conditions, 
  14:Generated_Source\PSoC5/isr_TS.c **** * disclaimers, and limitations in the end user license agreement accompanying 
  15:Generated_Source\PSoC5/isr_TS.c **** * the software package with which this file was provided.
  16:Generated_Source\PSoC5/isr_TS.c **** *******************************************************************************/
  17:Generated_Source\PSoC5/isr_TS.c **** 
  18:Generated_Source\PSoC5/isr_TS.c **** 
  19:Generated_Source\PSoC5/isr_TS.c **** #include <cydevice_trm.h>
  20:Generated_Source\PSoC5/isr_TS.c **** #include <CyLib.h>
  21:Generated_Source\PSoC5/isr_TS.c **** #include <isr_TS.h>
  22:Generated_Source\PSoC5/isr_TS.c **** 
  23:Generated_Source\PSoC5/isr_TS.c **** 
  24:Generated_Source\PSoC5/isr_TS.c **** #if !defined(isr_TS__REMOVED) /* Check for removal by optimization */
  25:Generated_Source\PSoC5/isr_TS.c **** 
  26:Generated_Source\PSoC5/isr_TS.c **** /*******************************************************************************
  27:Generated_Source\PSoC5/isr_TS.c **** *  Place your includes, defines and code here 
  28:Generated_Source\PSoC5/isr_TS.c **** ********************************************************************************/
  29:Generated_Source\PSoC5/isr_TS.c **** /* `#START isr_TS_intc` */
  30:Generated_Source\PSoC5/isr_TS.c **** extern uint8 ts;
ARM GAS  C:\Users\ylee818\AppData\Local\Temp\ccxWhEST.s 			page 2


  31:Generated_Source\PSoC5/isr_TS.c **** /* `#END` */
  32:Generated_Source\PSoC5/isr_TS.c **** 
  33:Generated_Source\PSoC5/isr_TS.c **** #ifndef CYINT_IRQ_BASE
  34:Generated_Source\PSoC5/isr_TS.c **** #define CYINT_IRQ_BASE      16
  35:Generated_Source\PSoC5/isr_TS.c **** #endif /* CYINT_IRQ_BASE */
  36:Generated_Source\PSoC5/isr_TS.c **** #ifndef CYINT_VECT_TABLE
  37:Generated_Source\PSoC5/isr_TS.c **** #define CYINT_VECT_TABLE    ((cyisraddress **) CYREG_NVIC_VECT_OFFSET)
  38:Generated_Source\PSoC5/isr_TS.c **** #endif /* CYINT_VECT_TABLE */
  39:Generated_Source\PSoC5/isr_TS.c **** 
  40:Generated_Source\PSoC5/isr_TS.c **** /* Declared in startup, used to set unused interrupts to. */
  41:Generated_Source\PSoC5/isr_TS.c **** CY_ISR_PROTO(IntDefaultHandler);
  42:Generated_Source\PSoC5/isr_TS.c **** 
  43:Generated_Source\PSoC5/isr_TS.c **** 
  44:Generated_Source\PSoC5/isr_TS.c **** /*******************************************************************************
  45:Generated_Source\PSoC5/isr_TS.c **** * Function Name: isr_TS_Start
  46:Generated_Source\PSoC5/isr_TS.c **** ********************************************************************************
  47:Generated_Source\PSoC5/isr_TS.c **** *
  48:Generated_Source\PSoC5/isr_TS.c **** * Summary:
  49:Generated_Source\PSoC5/isr_TS.c **** *  Set up the interrupt and enable it. This function disables the interrupt, 
  50:Generated_Source\PSoC5/isr_TS.c **** *  sets the default interrupt vector, sets the priority from the value in the
  51:Generated_Source\PSoC5/isr_TS.c **** *  Design Wide Resources Interrupt Editor, then enables the interrupt to the 
  52:Generated_Source\PSoC5/isr_TS.c **** *  interrupt controller.
  53:Generated_Source\PSoC5/isr_TS.c **** *
  54:Generated_Source\PSoC5/isr_TS.c **** * Parameters:  
  55:Generated_Source\PSoC5/isr_TS.c **** *   None
  56:Generated_Source\PSoC5/isr_TS.c **** *
  57:Generated_Source\PSoC5/isr_TS.c **** * Return:
  58:Generated_Source\PSoC5/isr_TS.c **** *   None
  59:Generated_Source\PSoC5/isr_TS.c **** *
  60:Generated_Source\PSoC5/isr_TS.c **** *******************************************************************************/
  61:Generated_Source\PSoC5/isr_TS.c **** void isr_TS_Start(void)
  62:Generated_Source\PSoC5/isr_TS.c **** {
  28              		.loc 1 62 0
  29              		.cfi_startproc
  30              		@ args = 0, pretend = 0, frame = 0
  31              		@ frame_needed = 1, uses_anonymous_args = 0
  32 0000 80B5     		push	{r7, lr}
  33              		.cfi_def_cfa_offset 8
  34              		.cfi_offset 7, -8
  35              		.cfi_offset 14, -4
  36 0002 00AF     		add	r7, sp, #0
  37              		.cfi_def_cfa_register 7
  63:Generated_Source\PSoC5/isr_TS.c ****     /* For all we know the interrupt is active. */
  64:Generated_Source\PSoC5/isr_TS.c ****     isr_TS_Disable();
  38              		.loc 1 64 0
  39 0004 FFF7FEFF 		bl	isr_TS_Disable
  65:Generated_Source\PSoC5/isr_TS.c **** 
  66:Generated_Source\PSoC5/isr_TS.c ****     /* Set the ISR to point to the isr_TS Interrupt. */
  67:Generated_Source\PSoC5/isr_TS.c ****     isr_TS_SetVector(&isr_TS_Interrupt);
  40              		.loc 1 67 0
  41 0008 0448     		ldr	r0, .L2
  42 000a FFF7FEFF 		bl	isr_TS_SetVector
  68:Generated_Source\PSoC5/isr_TS.c **** 
  69:Generated_Source\PSoC5/isr_TS.c ****     /* Set the priority. */
  70:Generated_Source\PSoC5/isr_TS.c ****     isr_TS_SetPriority((uint8)isr_TS_INTC_PRIOR_NUMBER);
  43              		.loc 1 70 0
  44 000e 0720     		movs	r0, #7
ARM GAS  C:\Users\ylee818\AppData\Local\Temp\ccxWhEST.s 			page 3


  45 0010 FFF7FEFF 		bl	isr_TS_SetPriority
  71:Generated_Source\PSoC5/isr_TS.c **** 
  72:Generated_Source\PSoC5/isr_TS.c ****     /* Enable it. */
  73:Generated_Source\PSoC5/isr_TS.c ****     isr_TS_Enable();
  46              		.loc 1 73 0
  47 0014 FFF7FEFF 		bl	isr_TS_Enable
  74:Generated_Source\PSoC5/isr_TS.c **** }
  48              		.loc 1 74 0
  49 0018 00BF     		nop
  50 001a 80BD     		pop	{r7, pc}
  51              	.L3:
  52              		.align	2
  53              	.L2:
  54 001c 00000000 		.word	isr_TS_Interrupt
  55              		.cfi_endproc
  56              	.LFE0:
  57              		.size	isr_TS_Start, .-isr_TS_Start
  58              		.section	.text.isr_TS_StartEx,"ax",%progbits
  59              		.align	2
  60              		.global	isr_TS_StartEx
  61              		.thumb
  62              		.thumb_func
  63              		.type	isr_TS_StartEx, %function
  64              	isr_TS_StartEx:
  65              	.LFB1:
  75:Generated_Source\PSoC5/isr_TS.c **** 
  76:Generated_Source\PSoC5/isr_TS.c **** 
  77:Generated_Source\PSoC5/isr_TS.c **** /*******************************************************************************
  78:Generated_Source\PSoC5/isr_TS.c **** * Function Name: isr_TS_StartEx
  79:Generated_Source\PSoC5/isr_TS.c **** ********************************************************************************
  80:Generated_Source\PSoC5/isr_TS.c **** *
  81:Generated_Source\PSoC5/isr_TS.c **** * Summary:
  82:Generated_Source\PSoC5/isr_TS.c **** *  Sets up the interrupt and enables it. This function disables the interrupt,
  83:Generated_Source\PSoC5/isr_TS.c **** *  sets the interrupt vector based on the address passed in, sets the priority 
  84:Generated_Source\PSoC5/isr_TS.c **** *  from the value in the Design Wide Resources Interrupt Editor, then enables 
  85:Generated_Source\PSoC5/isr_TS.c **** *  the interrupt to the interrupt controller.
  86:Generated_Source\PSoC5/isr_TS.c **** *  
  87:Generated_Source\PSoC5/isr_TS.c **** *  When defining ISR functions, the CY_ISR and CY_ISR_PROTO macros should be 
  88:Generated_Source\PSoC5/isr_TS.c **** *  used to provide consistent definition across compilers:
  89:Generated_Source\PSoC5/isr_TS.c **** *  
  90:Generated_Source\PSoC5/isr_TS.c **** *  Function definition example:
  91:Generated_Source\PSoC5/isr_TS.c **** *   CY_ISR(MyISR)
  92:Generated_Source\PSoC5/isr_TS.c **** *   {
  93:Generated_Source\PSoC5/isr_TS.c **** *   }
  94:Generated_Source\PSoC5/isr_TS.c **** *   Function prototype example:
  95:Generated_Source\PSoC5/isr_TS.c **** *   CY_ISR_PROTO(MyISR);
  96:Generated_Source\PSoC5/isr_TS.c **** *
  97:Generated_Source\PSoC5/isr_TS.c **** * Parameters:  
  98:Generated_Source\PSoC5/isr_TS.c **** *   address: Address of the ISR to set in the interrupt vector table.
  99:Generated_Source\PSoC5/isr_TS.c **** *
 100:Generated_Source\PSoC5/isr_TS.c **** * Return:
 101:Generated_Source\PSoC5/isr_TS.c **** *   None
 102:Generated_Source\PSoC5/isr_TS.c **** *
 103:Generated_Source\PSoC5/isr_TS.c **** *******************************************************************************/
 104:Generated_Source\PSoC5/isr_TS.c **** void isr_TS_StartEx(cyisraddress address)
 105:Generated_Source\PSoC5/isr_TS.c **** {
  66              		.loc 1 105 0
ARM GAS  C:\Users\ylee818\AppData\Local\Temp\ccxWhEST.s 			page 4


  67              		.cfi_startproc
  68              		@ args = 0, pretend = 0, frame = 8
  69              		@ frame_needed = 1, uses_anonymous_args = 0
  70 0000 80B5     		push	{r7, lr}
  71              		.cfi_def_cfa_offset 8
  72              		.cfi_offset 7, -8
  73              		.cfi_offset 14, -4
  74 0002 82B0     		sub	sp, sp, #8
  75              		.cfi_def_cfa_offset 16
  76 0004 00AF     		add	r7, sp, #0
  77              		.cfi_def_cfa_register 7
  78 0006 7860     		str	r0, [r7, #4]
 106:Generated_Source\PSoC5/isr_TS.c ****     /* For all we know the interrupt is active. */
 107:Generated_Source\PSoC5/isr_TS.c ****     isr_TS_Disable();
  79              		.loc 1 107 0
  80 0008 FFF7FEFF 		bl	isr_TS_Disable
 108:Generated_Source\PSoC5/isr_TS.c **** 
 109:Generated_Source\PSoC5/isr_TS.c ****     /* Set the ISR to point to the isr_TS Interrupt. */
 110:Generated_Source\PSoC5/isr_TS.c ****     isr_TS_SetVector(address);
  81              		.loc 1 110 0
  82 000c 7868     		ldr	r0, [r7, #4]
  83 000e FFF7FEFF 		bl	isr_TS_SetVector
 111:Generated_Source\PSoC5/isr_TS.c **** 
 112:Generated_Source\PSoC5/isr_TS.c ****     /* Set the priority. */
 113:Generated_Source\PSoC5/isr_TS.c ****     isr_TS_SetPriority((uint8)isr_TS_INTC_PRIOR_NUMBER);
  84              		.loc 1 113 0
  85 0012 0720     		movs	r0, #7
  86 0014 FFF7FEFF 		bl	isr_TS_SetPriority
 114:Generated_Source\PSoC5/isr_TS.c **** 
 115:Generated_Source\PSoC5/isr_TS.c ****     /* Enable it. */
 116:Generated_Source\PSoC5/isr_TS.c ****     isr_TS_Enable();
  87              		.loc 1 116 0
  88 0018 FFF7FEFF 		bl	isr_TS_Enable
 117:Generated_Source\PSoC5/isr_TS.c **** }
  89              		.loc 1 117 0
  90 001c 00BF     		nop
  91 001e 0837     		adds	r7, r7, #8
  92              		.cfi_def_cfa_offset 8
  93 0020 BD46     		mov	sp, r7
  94              		.cfi_def_cfa_register 13
  95              		@ sp needed
  96 0022 80BD     		pop	{r7, pc}
  97              		.cfi_endproc
  98              	.LFE1:
  99              		.size	isr_TS_StartEx, .-isr_TS_StartEx
 100              		.section	.text.isr_TS_Stop,"ax",%progbits
 101              		.align	2
 102              		.global	isr_TS_Stop
 103              		.thumb
 104              		.thumb_func
 105              		.type	isr_TS_Stop, %function
 106              	isr_TS_Stop:
 107              	.LFB2:
 118:Generated_Source\PSoC5/isr_TS.c **** 
 119:Generated_Source\PSoC5/isr_TS.c **** 
 120:Generated_Source\PSoC5/isr_TS.c **** /*******************************************************************************
 121:Generated_Source\PSoC5/isr_TS.c **** * Function Name: isr_TS_Stop
ARM GAS  C:\Users\ylee818\AppData\Local\Temp\ccxWhEST.s 			page 5


 122:Generated_Source\PSoC5/isr_TS.c **** ********************************************************************************
 123:Generated_Source\PSoC5/isr_TS.c **** *
 124:Generated_Source\PSoC5/isr_TS.c **** * Summary:
 125:Generated_Source\PSoC5/isr_TS.c **** *   Disables and removes the interrupt.
 126:Generated_Source\PSoC5/isr_TS.c **** *
 127:Generated_Source\PSoC5/isr_TS.c **** * Parameters:  
 128:Generated_Source\PSoC5/isr_TS.c **** *   None
 129:Generated_Source\PSoC5/isr_TS.c **** *
 130:Generated_Source\PSoC5/isr_TS.c **** * Return:
 131:Generated_Source\PSoC5/isr_TS.c **** *   None
 132:Generated_Source\PSoC5/isr_TS.c **** *
 133:Generated_Source\PSoC5/isr_TS.c **** *******************************************************************************/
 134:Generated_Source\PSoC5/isr_TS.c **** void isr_TS_Stop(void)
 135:Generated_Source\PSoC5/isr_TS.c **** {
 108              		.loc 1 135 0
 109              		.cfi_startproc
 110              		@ args = 0, pretend = 0, frame = 0
 111              		@ frame_needed = 1, uses_anonymous_args = 0
 112 0000 80B5     		push	{r7, lr}
 113              		.cfi_def_cfa_offset 8
 114              		.cfi_offset 7, -8
 115              		.cfi_offset 14, -4
 116 0002 00AF     		add	r7, sp, #0
 117              		.cfi_def_cfa_register 7
 136:Generated_Source\PSoC5/isr_TS.c ****     /* Disable this interrupt. */
 137:Generated_Source\PSoC5/isr_TS.c ****     isr_TS_Disable();
 118              		.loc 1 137 0
 119 0004 FFF7FEFF 		bl	isr_TS_Disable
 138:Generated_Source\PSoC5/isr_TS.c **** 
 139:Generated_Source\PSoC5/isr_TS.c ****     /* Set the ISR to point to the passive one. */
 140:Generated_Source\PSoC5/isr_TS.c ****     isr_TS_SetVector(&IntDefaultHandler);
 120              		.loc 1 140 0
 121 0008 0248     		ldr	r0, .L6
 122 000a FFF7FEFF 		bl	isr_TS_SetVector
 141:Generated_Source\PSoC5/isr_TS.c **** }
 123              		.loc 1 141 0
 124 000e 00BF     		nop
 125 0010 80BD     		pop	{r7, pc}
 126              	.L7:
 127 0012 00BF     		.align	2
 128              	.L6:
 129 0014 00000000 		.word	IntDefaultHandler
 130              		.cfi_endproc
 131              	.LFE2:
 132              		.size	isr_TS_Stop, .-isr_TS_Stop
 133              		.section	.text.isr_TS_Interrupt,"ax",%progbits
 134              		.align	2
 135              		.global	isr_TS_Interrupt
 136              		.thumb
 137              		.thumb_func
 138              		.type	isr_TS_Interrupt, %function
 139              	isr_TS_Interrupt:
 140              	.LFB3:
 142:Generated_Source\PSoC5/isr_TS.c **** 
 143:Generated_Source\PSoC5/isr_TS.c **** 
 144:Generated_Source\PSoC5/isr_TS.c **** /*******************************************************************************
 145:Generated_Source\PSoC5/isr_TS.c **** * Function Name: isr_TS_Interrupt
ARM GAS  C:\Users\ylee818\AppData\Local\Temp\ccxWhEST.s 			page 6


 146:Generated_Source\PSoC5/isr_TS.c **** ********************************************************************************
 147:Generated_Source\PSoC5/isr_TS.c **** *
 148:Generated_Source\PSoC5/isr_TS.c **** * Summary:
 149:Generated_Source\PSoC5/isr_TS.c **** *   The default Interrupt Service Routine for isr_TS.
 150:Generated_Source\PSoC5/isr_TS.c **** *
 151:Generated_Source\PSoC5/isr_TS.c **** *   Add custom code between the coments to keep the next version of this file
 152:Generated_Source\PSoC5/isr_TS.c **** *   from over writting your code.
 153:Generated_Source\PSoC5/isr_TS.c **** *
 154:Generated_Source\PSoC5/isr_TS.c **** * Parameters:  
 155:Generated_Source\PSoC5/isr_TS.c **** *
 156:Generated_Source\PSoC5/isr_TS.c **** * Return:
 157:Generated_Source\PSoC5/isr_TS.c **** *   None
 158:Generated_Source\PSoC5/isr_TS.c **** *
 159:Generated_Source\PSoC5/isr_TS.c **** *******************************************************************************/
 160:Generated_Source\PSoC5/isr_TS.c **** CY_ISR(isr_TS_Interrupt)
 161:Generated_Source\PSoC5/isr_TS.c **** {
 141              		.loc 1 161 0
 142              		.cfi_startproc
 143              		@ args = 0, pretend = 0, frame = 0
 144              		@ frame_needed = 1, uses_anonymous_args = 0
 145              		@ link register save eliminated.
 146 0000 80B4     		push	{r7}
 147              		.cfi_def_cfa_offset 4
 148              		.cfi_offset 7, -4
 149 0002 00AF     		add	r7, sp, #0
 150              		.cfi_def_cfa_register 7
 162:Generated_Source\PSoC5/isr_TS.c ****     #ifdef isr_TS_INTERRUPT_INTERRUPT_CALLBACK
 163:Generated_Source\PSoC5/isr_TS.c ****         isr_TS_Interrupt_InterruptCallback();
 164:Generated_Source\PSoC5/isr_TS.c ****     #endif /* isr_TS_INTERRUPT_INTERRUPT_CALLBACK */ 
 165:Generated_Source\PSoC5/isr_TS.c **** 
 166:Generated_Source\PSoC5/isr_TS.c ****     /*  Place your Interrupt code here. */
 167:Generated_Source\PSoC5/isr_TS.c ****     /* `#START isr_TS_Interrupt` */
 168:Generated_Source\PSoC5/isr_TS.c ****     ts++;
 151              		.loc 1 168 0
 152 0004 044B     		ldr	r3, .L9
 153 0006 1B78     		ldrb	r3, [r3]	@ zero_extendqisi2
 154 0008 0133     		adds	r3, r3, #1
 155 000a DAB2     		uxtb	r2, r3
 156 000c 024B     		ldr	r3, .L9
 157 000e 1A70     		strb	r2, [r3]
 169:Generated_Source\PSoC5/isr_TS.c ****     /* `#END` */
 170:Generated_Source\PSoC5/isr_TS.c **** }
 158              		.loc 1 170 0
 159 0010 00BF     		nop
 160 0012 BD46     		mov	sp, r7
 161              		.cfi_def_cfa_register 13
 162              		@ sp needed
 163 0014 80BC     		pop	{r7}
 164              		.cfi_restore 7
 165              		.cfi_def_cfa_offset 0
 166 0016 7047     		bx	lr
 167              	.L10:
 168              		.align	2
 169              	.L9:
 170 0018 00000000 		.word	ts
 171              		.cfi_endproc
 172              	.LFE3:
ARM GAS  C:\Users\ylee818\AppData\Local\Temp\ccxWhEST.s 			page 7


 173              		.size	isr_TS_Interrupt, .-isr_TS_Interrupt
 174              		.section	.text.isr_TS_SetVector,"ax",%progbits
 175              		.align	2
 176              		.global	isr_TS_SetVector
 177              		.thumb
 178              		.thumb_func
 179              		.type	isr_TS_SetVector, %function
 180              	isr_TS_SetVector:
 181              	.LFB4:
 171:Generated_Source\PSoC5/isr_TS.c **** 
 172:Generated_Source\PSoC5/isr_TS.c **** 
 173:Generated_Source\PSoC5/isr_TS.c **** /*******************************************************************************
 174:Generated_Source\PSoC5/isr_TS.c **** * Function Name: isr_TS_SetVector
 175:Generated_Source\PSoC5/isr_TS.c **** ********************************************************************************
 176:Generated_Source\PSoC5/isr_TS.c **** *
 177:Generated_Source\PSoC5/isr_TS.c **** * Summary:
 178:Generated_Source\PSoC5/isr_TS.c **** *   Change the ISR vector for the Interrupt. Note calling isr_TS_Start
 179:Generated_Source\PSoC5/isr_TS.c **** *   will override any effect this method would have had. To set the vector 
 180:Generated_Source\PSoC5/isr_TS.c **** *   before the component has been started use isr_TS_StartEx instead.
 181:Generated_Source\PSoC5/isr_TS.c **** * 
 182:Generated_Source\PSoC5/isr_TS.c **** *   When defining ISR functions, the CY_ISR and CY_ISR_PROTO macros should be 
 183:Generated_Source\PSoC5/isr_TS.c **** *   used to provide consistent definition across compilers:
 184:Generated_Source\PSoC5/isr_TS.c **** *
 185:Generated_Source\PSoC5/isr_TS.c **** *   Function definition example:
 186:Generated_Source\PSoC5/isr_TS.c **** *   CY_ISR(MyISR)
 187:Generated_Source\PSoC5/isr_TS.c **** *   {
 188:Generated_Source\PSoC5/isr_TS.c **** *   }
 189:Generated_Source\PSoC5/isr_TS.c **** *
 190:Generated_Source\PSoC5/isr_TS.c **** *   Function prototype example:
 191:Generated_Source\PSoC5/isr_TS.c **** *     CY_ISR_PROTO(MyISR);
 192:Generated_Source\PSoC5/isr_TS.c **** *
 193:Generated_Source\PSoC5/isr_TS.c **** * Parameters:
 194:Generated_Source\PSoC5/isr_TS.c **** *   address: Address of the ISR to set in the interrupt vector table.
 195:Generated_Source\PSoC5/isr_TS.c **** *
 196:Generated_Source\PSoC5/isr_TS.c **** * Return:
 197:Generated_Source\PSoC5/isr_TS.c **** *   None
 198:Generated_Source\PSoC5/isr_TS.c **** *
 199:Generated_Source\PSoC5/isr_TS.c **** *******************************************************************************/
 200:Generated_Source\PSoC5/isr_TS.c **** void isr_TS_SetVector(cyisraddress address)
 201:Generated_Source\PSoC5/isr_TS.c **** {
 182              		.loc 1 201 0
 183              		.cfi_startproc
 184              		@ args = 0, pretend = 0, frame = 16
 185              		@ frame_needed = 1, uses_anonymous_args = 0
 186              		@ link register save eliminated.
 187 0000 80B4     		push	{r7}
 188              		.cfi_def_cfa_offset 4
 189              		.cfi_offset 7, -4
 190 0002 85B0     		sub	sp, sp, #20
 191              		.cfi_def_cfa_offset 24
 192 0004 00AF     		add	r7, sp, #0
 193              		.cfi_def_cfa_register 7
 194 0006 7860     		str	r0, [r7, #4]
 202:Generated_Source\PSoC5/isr_TS.c ****     cyisraddress * ramVectorTable;
 203:Generated_Source\PSoC5/isr_TS.c **** 
 204:Generated_Source\PSoC5/isr_TS.c ****     ramVectorTable = (cyisraddress *) *CYINT_VECT_TABLE;
 195              		.loc 1 204 0
ARM GAS  C:\Users\ylee818\AppData\Local\Temp\ccxWhEST.s 			page 8


 196 0008 054B     		ldr	r3, .L12
 197 000a 1B68     		ldr	r3, [r3]
 198 000c FB60     		str	r3, [r7, #12]
 205:Generated_Source\PSoC5/isr_TS.c **** 
 206:Generated_Source\PSoC5/isr_TS.c ****     ramVectorTable[CYINT_IRQ_BASE + (uint32)isr_TS__INTC_NUMBER] = address;
 199              		.loc 1 206 0
 200 000e FB68     		ldr	r3, [r7, #12]
 201 0010 5833     		adds	r3, r3, #88
 202 0012 7A68     		ldr	r2, [r7, #4]
 203 0014 1A60     		str	r2, [r3]
 207:Generated_Source\PSoC5/isr_TS.c **** }
 204              		.loc 1 207 0
 205 0016 00BF     		nop
 206 0018 1437     		adds	r7, r7, #20
 207              		.cfi_def_cfa_offset 4
 208 001a BD46     		mov	sp, r7
 209              		.cfi_def_cfa_register 13
 210              		@ sp needed
 211 001c 80BC     		pop	{r7}
 212              		.cfi_restore 7
 213              		.cfi_def_cfa_offset 0
 214 001e 7047     		bx	lr
 215              	.L13:
 216              		.align	2
 217              	.L12:
 218 0020 08ED00E0 		.word	-536810232
 219              		.cfi_endproc
 220              	.LFE4:
 221              		.size	isr_TS_SetVector, .-isr_TS_SetVector
 222              		.section	.text.isr_TS_GetVector,"ax",%progbits
 223              		.align	2
 224              		.global	isr_TS_GetVector
 225              		.thumb
 226              		.thumb_func
 227              		.type	isr_TS_GetVector, %function
 228              	isr_TS_GetVector:
 229              	.LFB5:
 208:Generated_Source\PSoC5/isr_TS.c **** 
 209:Generated_Source\PSoC5/isr_TS.c **** 
 210:Generated_Source\PSoC5/isr_TS.c **** /*******************************************************************************
 211:Generated_Source\PSoC5/isr_TS.c **** * Function Name: isr_TS_GetVector
 212:Generated_Source\PSoC5/isr_TS.c **** ********************************************************************************
 213:Generated_Source\PSoC5/isr_TS.c **** *
 214:Generated_Source\PSoC5/isr_TS.c **** * Summary:
 215:Generated_Source\PSoC5/isr_TS.c **** *   Gets the "address" of the current ISR vector for the Interrupt.
 216:Generated_Source\PSoC5/isr_TS.c **** *
 217:Generated_Source\PSoC5/isr_TS.c **** * Parameters:
 218:Generated_Source\PSoC5/isr_TS.c **** *   None
 219:Generated_Source\PSoC5/isr_TS.c **** *
 220:Generated_Source\PSoC5/isr_TS.c **** * Return:
 221:Generated_Source\PSoC5/isr_TS.c **** *   Address of the ISR in the interrupt vector table.
 222:Generated_Source\PSoC5/isr_TS.c **** *
 223:Generated_Source\PSoC5/isr_TS.c **** *******************************************************************************/
 224:Generated_Source\PSoC5/isr_TS.c **** cyisraddress isr_TS_GetVector(void)
 225:Generated_Source\PSoC5/isr_TS.c **** {
 230              		.loc 1 225 0
 231              		.cfi_startproc
ARM GAS  C:\Users\ylee818\AppData\Local\Temp\ccxWhEST.s 			page 9


 232              		@ args = 0, pretend = 0, frame = 8
 233              		@ frame_needed = 1, uses_anonymous_args = 0
 234              		@ link register save eliminated.
 235 0000 80B4     		push	{r7}
 236              		.cfi_def_cfa_offset 4
 237              		.cfi_offset 7, -4
 238 0002 83B0     		sub	sp, sp, #12
 239              		.cfi_def_cfa_offset 16
 240 0004 00AF     		add	r7, sp, #0
 241              		.cfi_def_cfa_register 7
 226:Generated_Source\PSoC5/isr_TS.c ****     cyisraddress * ramVectorTable;
 227:Generated_Source\PSoC5/isr_TS.c **** 
 228:Generated_Source\PSoC5/isr_TS.c ****     ramVectorTable = (cyisraddress *) *CYINT_VECT_TABLE;
 242              		.loc 1 228 0
 243 0006 054B     		ldr	r3, .L16
 244 0008 1B68     		ldr	r3, [r3]
 245 000a 7B60     		str	r3, [r7, #4]
 229:Generated_Source\PSoC5/isr_TS.c **** 
 230:Generated_Source\PSoC5/isr_TS.c ****     return ramVectorTable[CYINT_IRQ_BASE + (uint32)isr_TS__INTC_NUMBER];
 246              		.loc 1 230 0
 247 000c 7B68     		ldr	r3, [r7, #4]
 248 000e 9B6D     		ldr	r3, [r3, #88]
 231:Generated_Source\PSoC5/isr_TS.c **** }
 249              		.loc 1 231 0
 250 0010 1846     		mov	r0, r3
 251 0012 0C37     		adds	r7, r7, #12
 252              		.cfi_def_cfa_offset 4
 253 0014 BD46     		mov	sp, r7
 254              		.cfi_def_cfa_register 13
 255              		@ sp needed
 256 0016 80BC     		pop	{r7}
 257              		.cfi_restore 7
 258              		.cfi_def_cfa_offset 0
 259 0018 7047     		bx	lr
 260              	.L17:
 261 001a 00BF     		.align	2
 262              	.L16:
 263 001c 08ED00E0 		.word	-536810232
 264              		.cfi_endproc
 265              	.LFE5:
 266              		.size	isr_TS_GetVector, .-isr_TS_GetVector
 267              		.section	.text.isr_TS_SetPriority,"ax",%progbits
 268              		.align	2
 269              		.global	isr_TS_SetPriority
 270              		.thumb
 271              		.thumb_func
 272              		.type	isr_TS_SetPriority, %function
 273              	isr_TS_SetPriority:
 274              	.LFB6:
 232:Generated_Source\PSoC5/isr_TS.c **** 
 233:Generated_Source\PSoC5/isr_TS.c **** 
 234:Generated_Source\PSoC5/isr_TS.c **** /*******************************************************************************
 235:Generated_Source\PSoC5/isr_TS.c **** * Function Name: isr_TS_SetPriority
 236:Generated_Source\PSoC5/isr_TS.c **** ********************************************************************************
 237:Generated_Source\PSoC5/isr_TS.c **** *
 238:Generated_Source\PSoC5/isr_TS.c **** * Summary:
 239:Generated_Source\PSoC5/isr_TS.c **** *   Sets the Priority of the Interrupt. 
ARM GAS  C:\Users\ylee818\AppData\Local\Temp\ccxWhEST.s 			page 10


 240:Generated_Source\PSoC5/isr_TS.c **** *
 241:Generated_Source\PSoC5/isr_TS.c **** *   Note calling isr_TS_Start or isr_TS_StartEx will 
 242:Generated_Source\PSoC5/isr_TS.c **** *   override any effect this API would have had. This API should only be called
 243:Generated_Source\PSoC5/isr_TS.c **** *   after isr_TS_Start or isr_TS_StartEx has been called. 
 244:Generated_Source\PSoC5/isr_TS.c **** *   To set the initial priority for the component, use the Design-Wide Resources
 245:Generated_Source\PSoC5/isr_TS.c **** *   Interrupt Editor.
 246:Generated_Source\PSoC5/isr_TS.c **** *
 247:Generated_Source\PSoC5/isr_TS.c **** *   Note This API has no effect on Non-maskable interrupt NMI).
 248:Generated_Source\PSoC5/isr_TS.c **** *
 249:Generated_Source\PSoC5/isr_TS.c **** * Parameters:
 250:Generated_Source\PSoC5/isr_TS.c **** *   priority: Priority of the interrupt, 0 being the highest priority
 251:Generated_Source\PSoC5/isr_TS.c **** *             PSoC 3 and PSoC 5LP: Priority is from 0 to 7.
 252:Generated_Source\PSoC5/isr_TS.c **** *             PSoC 4: Priority is from 0 to 3.
 253:Generated_Source\PSoC5/isr_TS.c **** *
 254:Generated_Source\PSoC5/isr_TS.c **** * Return:
 255:Generated_Source\PSoC5/isr_TS.c **** *   None
 256:Generated_Source\PSoC5/isr_TS.c **** *
 257:Generated_Source\PSoC5/isr_TS.c **** *******************************************************************************/
 258:Generated_Source\PSoC5/isr_TS.c **** void isr_TS_SetPriority(uint8 priority)
 259:Generated_Source\PSoC5/isr_TS.c **** {
 275              		.loc 1 259 0
 276              		.cfi_startproc
 277              		@ args = 0, pretend = 0, frame = 8
 278              		@ frame_needed = 1, uses_anonymous_args = 0
 279              		@ link register save eliminated.
 280 0000 80B4     		push	{r7}
 281              		.cfi_def_cfa_offset 4
 282              		.cfi_offset 7, -4
 283 0002 83B0     		sub	sp, sp, #12
 284              		.cfi_def_cfa_offset 16
 285 0004 00AF     		add	r7, sp, #0
 286              		.cfi_def_cfa_register 7
 287 0006 0346     		mov	r3, r0
 288 0008 FB71     		strb	r3, [r7, #7]
 260:Generated_Source\PSoC5/isr_TS.c ****     *isr_TS_INTC_PRIOR = priority << 5;
 289              		.loc 1 260 0
 290 000a 054A     		ldr	r2, .L19
 291 000c FB79     		ldrb	r3, [r7, #7]
 292 000e 5B01     		lsls	r3, r3, #5
 293 0010 DBB2     		uxtb	r3, r3
 294 0012 1370     		strb	r3, [r2]
 261:Generated_Source\PSoC5/isr_TS.c **** }
 295              		.loc 1 261 0
 296 0014 00BF     		nop
 297 0016 0C37     		adds	r7, r7, #12
 298              		.cfi_def_cfa_offset 4
 299 0018 BD46     		mov	sp, r7
 300              		.cfi_def_cfa_register 13
 301              		@ sp needed
 302 001a 80BC     		pop	{r7}
 303              		.cfi_restore 7
 304              		.cfi_def_cfa_offset 0
 305 001c 7047     		bx	lr
 306              	.L20:
 307 001e 00BF     		.align	2
 308              	.L19:
 309 0020 06E400E0 		.word	-536812538
ARM GAS  C:\Users\ylee818\AppData\Local\Temp\ccxWhEST.s 			page 11


 310              		.cfi_endproc
 311              	.LFE6:
 312              		.size	isr_TS_SetPriority, .-isr_TS_SetPriority
 313              		.section	.text.isr_TS_GetPriority,"ax",%progbits
 314              		.align	2
 315              		.global	isr_TS_GetPriority
 316              		.thumb
 317              		.thumb_func
 318              		.type	isr_TS_GetPriority, %function
 319              	isr_TS_GetPriority:
 320              	.LFB7:
 262:Generated_Source\PSoC5/isr_TS.c **** 
 263:Generated_Source\PSoC5/isr_TS.c **** 
 264:Generated_Source\PSoC5/isr_TS.c **** /*******************************************************************************
 265:Generated_Source\PSoC5/isr_TS.c **** * Function Name: isr_TS_GetPriority
 266:Generated_Source\PSoC5/isr_TS.c **** ********************************************************************************
 267:Generated_Source\PSoC5/isr_TS.c **** *
 268:Generated_Source\PSoC5/isr_TS.c **** * Summary:
 269:Generated_Source\PSoC5/isr_TS.c **** *   Gets the Priority of the Interrupt.
 270:Generated_Source\PSoC5/isr_TS.c **** *
 271:Generated_Source\PSoC5/isr_TS.c **** * Parameters:
 272:Generated_Source\PSoC5/isr_TS.c **** *   None
 273:Generated_Source\PSoC5/isr_TS.c **** *
 274:Generated_Source\PSoC5/isr_TS.c **** * Return:
 275:Generated_Source\PSoC5/isr_TS.c **** *   Priority of the interrupt, 0 being the highest priority
 276:Generated_Source\PSoC5/isr_TS.c **** *    PSoC 3 and PSoC 5LP: Priority is from 0 to 7.
 277:Generated_Source\PSoC5/isr_TS.c **** *    PSoC 4: Priority is from 0 to 3.
 278:Generated_Source\PSoC5/isr_TS.c **** *
 279:Generated_Source\PSoC5/isr_TS.c **** *******************************************************************************/
 280:Generated_Source\PSoC5/isr_TS.c **** uint8 isr_TS_GetPriority(void)
 281:Generated_Source\PSoC5/isr_TS.c **** {
 321              		.loc 1 281 0
 322              		.cfi_startproc
 323              		@ args = 0, pretend = 0, frame = 8
 324              		@ frame_needed = 1, uses_anonymous_args = 0
 325              		@ link register save eliminated.
 326 0000 80B4     		push	{r7}
 327              		.cfi_def_cfa_offset 4
 328              		.cfi_offset 7, -4
 329 0002 83B0     		sub	sp, sp, #12
 330              		.cfi_def_cfa_offset 16
 331 0004 00AF     		add	r7, sp, #0
 332              		.cfi_def_cfa_register 7
 282:Generated_Source\PSoC5/isr_TS.c ****     uint8 priority;
 283:Generated_Source\PSoC5/isr_TS.c **** 
 284:Generated_Source\PSoC5/isr_TS.c **** 
 285:Generated_Source\PSoC5/isr_TS.c ****     priority = *isr_TS_INTC_PRIOR >> 5;
 333              		.loc 1 285 0
 334 0006 054B     		ldr	r3, .L23
 335 0008 1B78     		ldrb	r3, [r3]
 336 000a DBB2     		uxtb	r3, r3
 337 000c 5B09     		lsrs	r3, r3, #5
 338 000e FB71     		strb	r3, [r7, #7]
 286:Generated_Source\PSoC5/isr_TS.c **** 
 287:Generated_Source\PSoC5/isr_TS.c ****     return priority;
 339              		.loc 1 287 0
 340 0010 FB79     		ldrb	r3, [r7, #7]	@ zero_extendqisi2
ARM GAS  C:\Users\ylee818\AppData\Local\Temp\ccxWhEST.s 			page 12


 288:Generated_Source\PSoC5/isr_TS.c **** }
 341              		.loc 1 288 0
 342 0012 1846     		mov	r0, r3
 343 0014 0C37     		adds	r7, r7, #12
 344              		.cfi_def_cfa_offset 4
 345 0016 BD46     		mov	sp, r7
 346              		.cfi_def_cfa_register 13
 347              		@ sp needed
 348 0018 80BC     		pop	{r7}
 349              		.cfi_restore 7
 350              		.cfi_def_cfa_offset 0
 351 001a 7047     		bx	lr
 352              	.L24:
 353              		.align	2
 354              	.L23:
 355 001c 06E400E0 		.word	-536812538
 356              		.cfi_endproc
 357              	.LFE7:
 358              		.size	isr_TS_GetPriority, .-isr_TS_GetPriority
 359              		.section	.text.isr_TS_Enable,"ax",%progbits
 360              		.align	2
 361              		.global	isr_TS_Enable
 362              		.thumb
 363              		.thumb_func
 364              		.type	isr_TS_Enable, %function
 365              	isr_TS_Enable:
 366              	.LFB8:
 289:Generated_Source\PSoC5/isr_TS.c **** 
 290:Generated_Source\PSoC5/isr_TS.c **** 
 291:Generated_Source\PSoC5/isr_TS.c **** /*******************************************************************************
 292:Generated_Source\PSoC5/isr_TS.c **** * Function Name: isr_TS_Enable
 293:Generated_Source\PSoC5/isr_TS.c **** ********************************************************************************
 294:Generated_Source\PSoC5/isr_TS.c **** *
 295:Generated_Source\PSoC5/isr_TS.c **** * Summary:
 296:Generated_Source\PSoC5/isr_TS.c **** *   Enables the interrupt to the interrupt controller. Do not call this function
 297:Generated_Source\PSoC5/isr_TS.c **** *   unless ISR_Start() has been called or the functionality of the ISR_Start() 
 298:Generated_Source\PSoC5/isr_TS.c **** *   function, which sets the vector and the priority, has been called.
 299:Generated_Source\PSoC5/isr_TS.c **** *
 300:Generated_Source\PSoC5/isr_TS.c **** * Parameters:
 301:Generated_Source\PSoC5/isr_TS.c **** *   None
 302:Generated_Source\PSoC5/isr_TS.c **** *
 303:Generated_Source\PSoC5/isr_TS.c **** * Return:
 304:Generated_Source\PSoC5/isr_TS.c **** *   None
 305:Generated_Source\PSoC5/isr_TS.c **** *
 306:Generated_Source\PSoC5/isr_TS.c **** *******************************************************************************/
 307:Generated_Source\PSoC5/isr_TS.c **** void isr_TS_Enable(void)
 308:Generated_Source\PSoC5/isr_TS.c **** {
 367              		.loc 1 308 0
 368              		.cfi_startproc
 369              		@ args = 0, pretend = 0, frame = 0
 370              		@ frame_needed = 1, uses_anonymous_args = 0
 371              		@ link register save eliminated.
 372 0000 80B4     		push	{r7}
 373              		.cfi_def_cfa_offset 4
 374              		.cfi_offset 7, -4
 375 0002 00AF     		add	r7, sp, #0
 376              		.cfi_def_cfa_register 7
ARM GAS  C:\Users\ylee818\AppData\Local\Temp\ccxWhEST.s 			page 13


 309:Generated_Source\PSoC5/isr_TS.c ****     /* Enable the general interrupt. */
 310:Generated_Source\PSoC5/isr_TS.c ****     *isr_TS_INTC_SET_EN = isr_TS__INTC_MASK;
 377              		.loc 1 310 0
 378 0004 034B     		ldr	r3, .L26
 379 0006 4022     		movs	r2, #64
 380 0008 1A60     		str	r2, [r3]
 311:Generated_Source\PSoC5/isr_TS.c **** }
 381              		.loc 1 311 0
 382 000a 00BF     		nop
 383 000c BD46     		mov	sp, r7
 384              		.cfi_def_cfa_register 13
 385              		@ sp needed
 386 000e 80BC     		pop	{r7}
 387              		.cfi_restore 7
 388              		.cfi_def_cfa_offset 0
 389 0010 7047     		bx	lr
 390              	.L27:
 391 0012 00BF     		.align	2
 392              	.L26:
 393 0014 00E100E0 		.word	-536813312
 394              		.cfi_endproc
 395              	.LFE8:
 396              		.size	isr_TS_Enable, .-isr_TS_Enable
 397              		.section	.text.isr_TS_GetState,"ax",%progbits
 398              		.align	2
 399              		.global	isr_TS_GetState
 400              		.thumb
 401              		.thumb_func
 402              		.type	isr_TS_GetState, %function
 403              	isr_TS_GetState:
 404              	.LFB9:
 312:Generated_Source\PSoC5/isr_TS.c **** 
 313:Generated_Source\PSoC5/isr_TS.c **** 
 314:Generated_Source\PSoC5/isr_TS.c **** /*******************************************************************************
 315:Generated_Source\PSoC5/isr_TS.c **** * Function Name: isr_TS_GetState
 316:Generated_Source\PSoC5/isr_TS.c **** ********************************************************************************
 317:Generated_Source\PSoC5/isr_TS.c **** *
 318:Generated_Source\PSoC5/isr_TS.c **** * Summary:
 319:Generated_Source\PSoC5/isr_TS.c **** *   Gets the state (enabled, disabled) of the Interrupt.
 320:Generated_Source\PSoC5/isr_TS.c **** *
 321:Generated_Source\PSoC5/isr_TS.c **** * Parameters:
 322:Generated_Source\PSoC5/isr_TS.c **** *   None
 323:Generated_Source\PSoC5/isr_TS.c **** *
 324:Generated_Source\PSoC5/isr_TS.c **** * Return:
 325:Generated_Source\PSoC5/isr_TS.c **** *   1 if enabled, 0 if disabled.
 326:Generated_Source\PSoC5/isr_TS.c **** *
 327:Generated_Source\PSoC5/isr_TS.c **** *******************************************************************************/
 328:Generated_Source\PSoC5/isr_TS.c **** uint8 isr_TS_GetState(void)
 329:Generated_Source\PSoC5/isr_TS.c **** {
 405              		.loc 1 329 0
 406              		.cfi_startproc
 407              		@ args = 0, pretend = 0, frame = 0
 408              		@ frame_needed = 1, uses_anonymous_args = 0
 409              		@ link register save eliminated.
 410 0000 80B4     		push	{r7}
 411              		.cfi_def_cfa_offset 4
 412              		.cfi_offset 7, -4
ARM GAS  C:\Users\ylee818\AppData\Local\Temp\ccxWhEST.s 			page 14


 413 0002 00AF     		add	r7, sp, #0
 414              		.cfi_def_cfa_register 7
 330:Generated_Source\PSoC5/isr_TS.c ****     /* Get the state of the general interrupt. */
 331:Generated_Source\PSoC5/isr_TS.c ****     return ((*isr_TS_INTC_SET_EN & (uint32)isr_TS__INTC_MASK) != 0u) ? 1u:0u;
 415              		.loc 1 331 0
 416 0004 064B     		ldr	r3, .L32
 417 0006 1B68     		ldr	r3, [r3]
 418 0008 03F04003 		and	r3, r3, #64
 419 000c 002B     		cmp	r3, #0
 420 000e 01D0     		beq	.L29
 421              		.loc 1 331 0 is_stmt 0 discriminator 1
 422 0010 0123     		movs	r3, #1
 423 0012 00E0     		b	.L30
 424              	.L29:
 425              		.loc 1 331 0 discriminator 2
 426 0014 0023     		movs	r3, #0
 427              	.L30:
 332:Generated_Source\PSoC5/isr_TS.c **** }
 428              		.loc 1 332 0 is_stmt 1 discriminator 4
 429 0016 1846     		mov	r0, r3
 430 0018 BD46     		mov	sp, r7
 431              		.cfi_def_cfa_register 13
 432              		@ sp needed
 433 001a 80BC     		pop	{r7}
 434              		.cfi_restore 7
 435              		.cfi_def_cfa_offset 0
 436 001c 7047     		bx	lr
 437              	.L33:
 438 001e 00BF     		.align	2
 439              	.L32:
 440 0020 00E100E0 		.word	-536813312
 441              		.cfi_endproc
 442              	.LFE9:
 443              		.size	isr_TS_GetState, .-isr_TS_GetState
 444              		.section	.text.isr_TS_Disable,"ax",%progbits
 445              		.align	2
 446              		.global	isr_TS_Disable
 447              		.thumb
 448              		.thumb_func
 449              		.type	isr_TS_Disable, %function
 450              	isr_TS_Disable:
 451              	.LFB10:
 333:Generated_Source\PSoC5/isr_TS.c **** 
 334:Generated_Source\PSoC5/isr_TS.c **** 
 335:Generated_Source\PSoC5/isr_TS.c **** /*******************************************************************************
 336:Generated_Source\PSoC5/isr_TS.c **** * Function Name: isr_TS_Disable
 337:Generated_Source\PSoC5/isr_TS.c **** ********************************************************************************
 338:Generated_Source\PSoC5/isr_TS.c **** *
 339:Generated_Source\PSoC5/isr_TS.c **** * Summary:
 340:Generated_Source\PSoC5/isr_TS.c **** *   Disables the Interrupt in the interrupt controller.
 341:Generated_Source\PSoC5/isr_TS.c **** *
 342:Generated_Source\PSoC5/isr_TS.c **** * Parameters:
 343:Generated_Source\PSoC5/isr_TS.c **** *   None
 344:Generated_Source\PSoC5/isr_TS.c **** *
 345:Generated_Source\PSoC5/isr_TS.c **** * Return:
 346:Generated_Source\PSoC5/isr_TS.c **** *   None
 347:Generated_Source\PSoC5/isr_TS.c **** *
ARM GAS  C:\Users\ylee818\AppData\Local\Temp\ccxWhEST.s 			page 15


 348:Generated_Source\PSoC5/isr_TS.c **** *******************************************************************************/
 349:Generated_Source\PSoC5/isr_TS.c **** void isr_TS_Disable(void)
 350:Generated_Source\PSoC5/isr_TS.c **** {
 452              		.loc 1 350 0
 453              		.cfi_startproc
 454              		@ args = 0, pretend = 0, frame = 0
 455              		@ frame_needed = 1, uses_anonymous_args = 0
 456              		@ link register save eliminated.
 457 0000 80B4     		push	{r7}
 458              		.cfi_def_cfa_offset 4
 459              		.cfi_offset 7, -4
 460 0002 00AF     		add	r7, sp, #0
 461              		.cfi_def_cfa_register 7
 351:Generated_Source\PSoC5/isr_TS.c ****     /* Disable the general interrupt. */
 352:Generated_Source\PSoC5/isr_TS.c ****     *isr_TS_INTC_CLR_EN = isr_TS__INTC_MASK;
 462              		.loc 1 352 0
 463 0004 034B     		ldr	r3, .L35
 464 0006 4022     		movs	r2, #64
 465 0008 1A60     		str	r2, [r3]
 353:Generated_Source\PSoC5/isr_TS.c **** }
 466              		.loc 1 353 0
 467 000a 00BF     		nop
 468 000c BD46     		mov	sp, r7
 469              		.cfi_def_cfa_register 13
 470              		@ sp needed
 471 000e 80BC     		pop	{r7}
 472              		.cfi_restore 7
 473              		.cfi_def_cfa_offset 0
 474 0010 7047     		bx	lr
 475              	.L36:
 476 0012 00BF     		.align	2
 477              	.L35:
 478 0014 80E100E0 		.word	-536813184
 479              		.cfi_endproc
 480              	.LFE10:
 481              		.size	isr_TS_Disable, .-isr_TS_Disable
 482              		.section	.text.isr_TS_SetPending,"ax",%progbits
 483              		.align	2
 484              		.global	isr_TS_SetPending
 485              		.thumb
 486              		.thumb_func
 487              		.type	isr_TS_SetPending, %function
 488              	isr_TS_SetPending:
 489              	.LFB11:
 354:Generated_Source\PSoC5/isr_TS.c **** 
 355:Generated_Source\PSoC5/isr_TS.c **** 
 356:Generated_Source\PSoC5/isr_TS.c **** /*******************************************************************************
 357:Generated_Source\PSoC5/isr_TS.c **** * Function Name: isr_TS_SetPending
 358:Generated_Source\PSoC5/isr_TS.c **** ********************************************************************************
 359:Generated_Source\PSoC5/isr_TS.c **** *
 360:Generated_Source\PSoC5/isr_TS.c **** * Summary:
 361:Generated_Source\PSoC5/isr_TS.c **** *   Causes the Interrupt to enter the pending state, a software method of
 362:Generated_Source\PSoC5/isr_TS.c **** *   generating the interrupt.
 363:Generated_Source\PSoC5/isr_TS.c **** *
 364:Generated_Source\PSoC5/isr_TS.c **** * Parameters:
 365:Generated_Source\PSoC5/isr_TS.c **** *   None
 366:Generated_Source\PSoC5/isr_TS.c **** *
ARM GAS  C:\Users\ylee818\AppData\Local\Temp\ccxWhEST.s 			page 16


 367:Generated_Source\PSoC5/isr_TS.c **** * Return:
 368:Generated_Source\PSoC5/isr_TS.c **** *   None
 369:Generated_Source\PSoC5/isr_TS.c **** *
 370:Generated_Source\PSoC5/isr_TS.c **** * Side Effects:
 371:Generated_Source\PSoC5/isr_TS.c **** *   If interrupts are enabled and the interrupt is set up properly, the ISR is
 372:Generated_Source\PSoC5/isr_TS.c **** *   entered (depending on the priority of this interrupt and other pending 
 373:Generated_Source\PSoC5/isr_TS.c **** *   interrupts).
 374:Generated_Source\PSoC5/isr_TS.c **** *
 375:Generated_Source\PSoC5/isr_TS.c **** *******************************************************************************/
 376:Generated_Source\PSoC5/isr_TS.c **** void isr_TS_SetPending(void)
 377:Generated_Source\PSoC5/isr_TS.c **** {
 490              		.loc 1 377 0
 491              		.cfi_startproc
 492              		@ args = 0, pretend = 0, frame = 0
 493              		@ frame_needed = 1, uses_anonymous_args = 0
 494              		@ link register save eliminated.
 495 0000 80B4     		push	{r7}
 496              		.cfi_def_cfa_offset 4
 497              		.cfi_offset 7, -4
 498 0002 00AF     		add	r7, sp, #0
 499              		.cfi_def_cfa_register 7
 378:Generated_Source\PSoC5/isr_TS.c ****     *isr_TS_INTC_SET_PD = isr_TS__INTC_MASK;
 500              		.loc 1 378 0
 501 0004 034B     		ldr	r3, .L38
 502 0006 4022     		movs	r2, #64
 503 0008 1A60     		str	r2, [r3]
 379:Generated_Source\PSoC5/isr_TS.c **** }
 504              		.loc 1 379 0
 505 000a 00BF     		nop
 506 000c BD46     		mov	sp, r7
 507              		.cfi_def_cfa_register 13
 508              		@ sp needed
 509 000e 80BC     		pop	{r7}
 510              		.cfi_restore 7
 511              		.cfi_def_cfa_offset 0
 512 0010 7047     		bx	lr
 513              	.L39:
 514 0012 00BF     		.align	2
 515              	.L38:
 516 0014 00E200E0 		.word	-536813056
 517              		.cfi_endproc
 518              	.LFE11:
 519              		.size	isr_TS_SetPending, .-isr_TS_SetPending
 520              		.section	.text.isr_TS_ClearPending,"ax",%progbits
 521              		.align	2
 522              		.global	isr_TS_ClearPending
 523              		.thumb
 524              		.thumb_func
 525              		.type	isr_TS_ClearPending, %function
 526              	isr_TS_ClearPending:
 527              	.LFB12:
 380:Generated_Source\PSoC5/isr_TS.c **** 
 381:Generated_Source\PSoC5/isr_TS.c **** 
 382:Generated_Source\PSoC5/isr_TS.c **** /*******************************************************************************
 383:Generated_Source\PSoC5/isr_TS.c **** * Function Name: isr_TS_ClearPending
 384:Generated_Source\PSoC5/isr_TS.c **** ********************************************************************************
 385:Generated_Source\PSoC5/isr_TS.c **** *
ARM GAS  C:\Users\ylee818\AppData\Local\Temp\ccxWhEST.s 			page 17


 386:Generated_Source\PSoC5/isr_TS.c **** * Summary:
 387:Generated_Source\PSoC5/isr_TS.c **** *   Clears a pending interrupt in the interrupt controller.
 388:Generated_Source\PSoC5/isr_TS.c **** *
 389:Generated_Source\PSoC5/isr_TS.c **** *   Note Some interrupt sources are clear-on-read and require the block 
 390:Generated_Source\PSoC5/isr_TS.c **** *   interrupt/status register to be read/cleared with the appropriate block API 
 391:Generated_Source\PSoC5/isr_TS.c **** *   (GPIO, UART, and so on). Otherwise the ISR will continue to remain in 
 392:Generated_Source\PSoC5/isr_TS.c **** *   pending state even though the interrupt itself is cleared using this API.
 393:Generated_Source\PSoC5/isr_TS.c **** *
 394:Generated_Source\PSoC5/isr_TS.c **** * Parameters:
 395:Generated_Source\PSoC5/isr_TS.c **** *   None
 396:Generated_Source\PSoC5/isr_TS.c **** *
 397:Generated_Source\PSoC5/isr_TS.c **** * Return:
 398:Generated_Source\PSoC5/isr_TS.c **** *   None
 399:Generated_Source\PSoC5/isr_TS.c **** *
 400:Generated_Source\PSoC5/isr_TS.c **** *******************************************************************************/
 401:Generated_Source\PSoC5/isr_TS.c **** void isr_TS_ClearPending(void)
 402:Generated_Source\PSoC5/isr_TS.c **** {
 528              		.loc 1 402 0
 529              		.cfi_startproc
 530              		@ args = 0, pretend = 0, frame = 0
 531              		@ frame_needed = 1, uses_anonymous_args = 0
 532              		@ link register save eliminated.
 533 0000 80B4     		push	{r7}
 534              		.cfi_def_cfa_offset 4
 535              		.cfi_offset 7, -4
 536 0002 00AF     		add	r7, sp, #0
 537              		.cfi_def_cfa_register 7
 403:Generated_Source\PSoC5/isr_TS.c ****     *isr_TS_INTC_CLR_PD = isr_TS__INTC_MASK;
 538              		.loc 1 403 0
 539 0004 034B     		ldr	r3, .L41
 540 0006 4022     		movs	r2, #64
 541 0008 1A60     		str	r2, [r3]
 404:Generated_Source\PSoC5/isr_TS.c **** }
 542              		.loc 1 404 0
 543 000a 00BF     		nop
 544 000c BD46     		mov	sp, r7
 545              		.cfi_def_cfa_register 13
 546              		@ sp needed
 547 000e 80BC     		pop	{r7}
 548              		.cfi_restore 7
 549              		.cfi_def_cfa_offset 0
 550 0010 7047     		bx	lr
 551              	.L42:
 552 0012 00BF     		.align	2
 553              	.L41:
 554 0014 80E200E0 		.word	-536812928
 555              		.cfi_endproc
 556              	.LFE12:
 557              		.size	isr_TS_ClearPending, .-isr_TS_ClearPending
 558              		.text
 559              	.Letext0:
 560              		.file 2 "Generated_Source\\PSoC5/cytypes.h"