ARM GAS  C:\Users\ylee818\AppData\Local\Temp\ccP11hT1.s 			page 1


   1              		.syntax unified
   2              		.cpu cortex-m3
   3              		.fpu softvfp
   4              		.eabi_attribute 20, 1
   5              		.eabi_attribute 21, 1
   6              		.eabi_attribute 23, 3
   7              		.eabi_attribute 24, 1
   8              		.eabi_attribute 25, 1
   9              		.eabi_attribute 26, 1
  10              		.eabi_attribute 30, 6
  11              		.eabi_attribute 34, 1
  12              		.eabi_attribute 18, 4
  13              		.thumb
  14              		.syntax unified
  15              		.file	"Timer_TS.c"
  16              		.text
  17              	.Ltext0:
  18              		.cfi_sections	.debug_frame
  19              		.global	Timer_TS_initVar
  20              		.bss
  21              		.type	Timer_TS_initVar, %object
  22              		.size	Timer_TS_initVar, 1
  23              	Timer_TS_initVar:
  24 0000 00       		.space	1
  25              		.section	.text.Timer_TS_Init,"ax",%progbits
  26              		.align	2
  27              		.global	Timer_TS_Init
  28              		.thumb
  29              		.thumb_func
  30              		.type	Timer_TS_Init, %function
  31              	Timer_TS_Init:
  32              	.LFB0:
  33              		.file 1 "Generated_Source\\PSoC5\\Timer_TS.c"
   1:Generated_Source\PSoC5/Timer_TS.c **** /*******************************************************************************
   2:Generated_Source\PSoC5/Timer_TS.c **** * File Name: Timer_TS.c
   3:Generated_Source\PSoC5/Timer_TS.c **** * Version 2.80
   4:Generated_Source\PSoC5/Timer_TS.c **** *
   5:Generated_Source\PSoC5/Timer_TS.c **** * Description:
   6:Generated_Source\PSoC5/Timer_TS.c **** *  The Timer component consists of a 8, 16, 24 or 32-bit timer with
   7:Generated_Source\PSoC5/Timer_TS.c **** *  a selectable period between 2 and 2^Width - 1.  The timer may free run
   8:Generated_Source\PSoC5/Timer_TS.c **** *  or be used as a capture timer as well.  The capture can be initiated
   9:Generated_Source\PSoC5/Timer_TS.c **** *  by a positive or negative edge signal as well as via software.
  10:Generated_Source\PSoC5/Timer_TS.c **** *  A trigger input can be programmed to enable the timer on rising edge
  11:Generated_Source\PSoC5/Timer_TS.c **** *  falling edge, either edge or continous run.
  12:Generated_Source\PSoC5/Timer_TS.c **** *  Interrupts may be generated due to a terminal count condition
  13:Generated_Source\PSoC5/Timer_TS.c **** *  or a capture event.
  14:Generated_Source\PSoC5/Timer_TS.c **** *
  15:Generated_Source\PSoC5/Timer_TS.c **** * Note:
  16:Generated_Source\PSoC5/Timer_TS.c **** *
  17:Generated_Source\PSoC5/Timer_TS.c **** ********************************************************************************
  18:Generated_Source\PSoC5/Timer_TS.c **** * Copyright 2008-2017, Cypress Semiconductor Corporation.  All rights reserved.
  19:Generated_Source\PSoC5/Timer_TS.c **** * You may use this file only in accordance with the license, terms, conditions,
  20:Generated_Source\PSoC5/Timer_TS.c **** * disclaimers, and limitations in the end user license agreement accompanying
  21:Generated_Source\PSoC5/Timer_TS.c **** * the software package with which this file was provided.
  22:Generated_Source\PSoC5/Timer_TS.c **** ********************************************************************************/
  23:Generated_Source\PSoC5/Timer_TS.c **** 
  24:Generated_Source\PSoC5/Timer_TS.c **** #include "Timer_TS.h"
ARM GAS  C:\Users\ylee818\AppData\Local\Temp\ccP11hT1.s 			page 2


  25:Generated_Source\PSoC5/Timer_TS.c **** 
  26:Generated_Source\PSoC5/Timer_TS.c **** uint8 Timer_TS_initVar = 0u;
  27:Generated_Source\PSoC5/Timer_TS.c **** 
  28:Generated_Source\PSoC5/Timer_TS.c **** 
  29:Generated_Source\PSoC5/Timer_TS.c **** /*******************************************************************************
  30:Generated_Source\PSoC5/Timer_TS.c **** * Function Name: Timer_TS_Init
  31:Generated_Source\PSoC5/Timer_TS.c **** ********************************************************************************
  32:Generated_Source\PSoC5/Timer_TS.c **** *
  33:Generated_Source\PSoC5/Timer_TS.c **** * Summary:
  34:Generated_Source\PSoC5/Timer_TS.c **** *  Initialize to the schematic state
  35:Generated_Source\PSoC5/Timer_TS.c **** *
  36:Generated_Source\PSoC5/Timer_TS.c **** * Parameters:
  37:Generated_Source\PSoC5/Timer_TS.c **** *  void
  38:Generated_Source\PSoC5/Timer_TS.c **** *
  39:Generated_Source\PSoC5/Timer_TS.c **** * Return:
  40:Generated_Source\PSoC5/Timer_TS.c **** *  void
  41:Generated_Source\PSoC5/Timer_TS.c **** *
  42:Generated_Source\PSoC5/Timer_TS.c **** *******************************************************************************/
  43:Generated_Source\PSoC5/Timer_TS.c **** void Timer_TS_Init(void) 
  44:Generated_Source\PSoC5/Timer_TS.c **** {
  34              		.loc 1 44 0
  35              		.cfi_startproc
  36              		@ args = 0, pretend = 0, frame = 0
  37              		@ frame_needed = 1, uses_anonymous_args = 0
  38 0000 80B5     		push	{r7, lr}
  39              		.cfi_def_cfa_offset 8
  40              		.cfi_offset 7, -8
  41              		.cfi_offset 14, -4
  42 0002 00AF     		add	r7, sp, #0
  43              		.cfi_def_cfa_register 7
  45:Generated_Source\PSoC5/Timer_TS.c ****     #if(!Timer_TS_UsingFixedFunction)
  46:Generated_Source\PSoC5/Timer_TS.c ****             /* Interrupt State Backup for Critical Region*/
  47:Generated_Source\PSoC5/Timer_TS.c ****             uint8 Timer_TS_interruptState;
  48:Generated_Source\PSoC5/Timer_TS.c ****     #endif /* Interrupt state back up for Fixed Function only */
  49:Generated_Source\PSoC5/Timer_TS.c **** 
  50:Generated_Source\PSoC5/Timer_TS.c ****     #if (Timer_TS_UsingFixedFunction)
  51:Generated_Source\PSoC5/Timer_TS.c ****         /* Clear all bits but the enable bit (if it's already set) for Timer operation */
  52:Generated_Source\PSoC5/Timer_TS.c ****         Timer_TS_CONTROL &= Timer_TS_CTRL_ENABLE;
  44              		.loc 1 52 0
  45 0004 214A     		ldr	r2, .L2
  46 0006 214B     		ldr	r3, .L2
  47 0008 1B78     		ldrb	r3, [r3]
  48 000a DBB2     		uxtb	r3, r3
  49 000c 03F00103 		and	r3, r3, #1
  50 0010 DBB2     		uxtb	r3, r3
  51 0012 1370     		strb	r3, [r2]
  53:Generated_Source\PSoC5/Timer_TS.c **** 
  54:Generated_Source\PSoC5/Timer_TS.c ****         /* Clear the mode bits for continuous run mode */
  55:Generated_Source\PSoC5/Timer_TS.c ****         #if (CY_PSOC5A)
  56:Generated_Source\PSoC5/Timer_TS.c ****             Timer_TS_CONTROL2 &= ((uint8)(~Timer_TS_CTRL_MODE_MASK));
  57:Generated_Source\PSoC5/Timer_TS.c ****         #endif /* Clear bits in CONTROL2 only in PSOC5A */
  58:Generated_Source\PSoC5/Timer_TS.c **** 
  59:Generated_Source\PSoC5/Timer_TS.c ****         #if (CY_PSOC3 || CY_PSOC5LP)
  60:Generated_Source\PSoC5/Timer_TS.c ****             Timer_TS_CONTROL3 &= ((uint8)(~Timer_TS_CTRL_MODE_MASK));
  52              		.loc 1 60 0
  53 0014 1E4A     		ldr	r2, .L2+4
  54 0016 1E4B     		ldr	r3, .L2+4
ARM GAS  C:\Users\ylee818\AppData\Local\Temp\ccP11hT1.s 			page 3


  55 0018 1B78     		ldrb	r3, [r3]
  56 001a DBB2     		uxtb	r3, r3
  57 001c 23F00303 		bic	r3, r3, #3
  58 0020 DBB2     		uxtb	r3, r3
  59 0022 1370     		strb	r3, [r2]
  61:Generated_Source\PSoC5/Timer_TS.c ****         #endif /* CONTROL3 register exists only in PSoC3 OR PSoC5LP */
  62:Generated_Source\PSoC5/Timer_TS.c **** 
  63:Generated_Source\PSoC5/Timer_TS.c ****         /* Check if One Shot mode is enabled i.e. RunMode !=0*/
  64:Generated_Source\PSoC5/Timer_TS.c ****         #if (Timer_TS_RunModeUsed != 0x0u)
  65:Generated_Source\PSoC5/Timer_TS.c ****             /* Set 3rd bit of Control register to enable one shot mode */
  66:Generated_Source\PSoC5/Timer_TS.c ****             Timer_TS_CONTROL |= 0x04u;
  67:Generated_Source\PSoC5/Timer_TS.c ****         #endif /* One Shot enabled only when RunModeUsed is not Continuous*/
  68:Generated_Source\PSoC5/Timer_TS.c **** 
  69:Generated_Source\PSoC5/Timer_TS.c ****         #if (Timer_TS_RunModeUsed == 2)
  70:Generated_Source\PSoC5/Timer_TS.c ****             #if (CY_PSOC5A)
  71:Generated_Source\PSoC5/Timer_TS.c ****                 /* Set last 2 bits of control2 register if one shot(halt on
  72:Generated_Source\PSoC5/Timer_TS.c ****                 interrupt) is enabled*/
  73:Generated_Source\PSoC5/Timer_TS.c ****                 Timer_TS_CONTROL2 |= 0x03u;
  74:Generated_Source\PSoC5/Timer_TS.c ****             #endif /* Set One-Shot Halt on Interrupt bit in CONTROL2 for PSoC5A */
  75:Generated_Source\PSoC5/Timer_TS.c **** 
  76:Generated_Source\PSoC5/Timer_TS.c ****             #if (CY_PSOC3 || CY_PSOC5LP)
  77:Generated_Source\PSoC5/Timer_TS.c ****                 /* Set last 2 bits of control3 register if one shot(halt on
  78:Generated_Source\PSoC5/Timer_TS.c ****                 interrupt) is enabled*/
  79:Generated_Source\PSoC5/Timer_TS.c ****                 Timer_TS_CONTROL3 |= 0x03u;
  80:Generated_Source\PSoC5/Timer_TS.c ****             #endif /* Set One-Shot Halt on Interrupt bit in CONTROL3 for PSoC3 or PSoC5LP */
  81:Generated_Source\PSoC5/Timer_TS.c **** 
  82:Generated_Source\PSoC5/Timer_TS.c ****         #endif /* Remove section if One Shot Halt on Interrupt is not enabled */
  83:Generated_Source\PSoC5/Timer_TS.c **** 
  84:Generated_Source\PSoC5/Timer_TS.c ****         #if (Timer_TS_UsingHWEnable != 0)
  85:Generated_Source\PSoC5/Timer_TS.c ****             #if (CY_PSOC5A)
  86:Generated_Source\PSoC5/Timer_TS.c ****                 /* Set the default Run Mode of the Timer to Continuous */
  87:Generated_Source\PSoC5/Timer_TS.c ****                 Timer_TS_CONTROL2 |= Timer_TS_CTRL_MODE_PULSEWIDTH;
  88:Generated_Source\PSoC5/Timer_TS.c ****             #endif /* Set Continuous Run Mode in CONTROL2 for PSoC5A */
  89:Generated_Source\PSoC5/Timer_TS.c **** 
  90:Generated_Source\PSoC5/Timer_TS.c ****             #if (CY_PSOC3 || CY_PSOC5LP)
  91:Generated_Source\PSoC5/Timer_TS.c ****                 /* Clear and Set ROD and COD bits of CFG2 register */
  92:Generated_Source\PSoC5/Timer_TS.c ****                 Timer_TS_CONTROL3 &= ((uint8)(~Timer_TS_CTRL_RCOD_MASK));
  93:Generated_Source\PSoC5/Timer_TS.c ****                 Timer_TS_CONTROL3 |= Timer_TS_CTRL_RCOD;
  94:Generated_Source\PSoC5/Timer_TS.c **** 
  95:Generated_Source\PSoC5/Timer_TS.c ****                 /* Clear and Enable the HW enable bit in CFG2 register */
  96:Generated_Source\PSoC5/Timer_TS.c ****                 Timer_TS_CONTROL3 &= ((uint8)(~Timer_TS_CTRL_ENBL_MASK));
  97:Generated_Source\PSoC5/Timer_TS.c ****                 Timer_TS_CONTROL3 |= Timer_TS_CTRL_ENBL;
  98:Generated_Source\PSoC5/Timer_TS.c **** 
  99:Generated_Source\PSoC5/Timer_TS.c ****                 /* Set the default Run Mode of the Timer to Continuous */
 100:Generated_Source\PSoC5/Timer_TS.c ****                 Timer_TS_CONTROL3 |= Timer_TS_CTRL_MODE_CONTINUOUS;
 101:Generated_Source\PSoC5/Timer_TS.c ****             #endif /* Set Continuous Run Mode in CONTROL3 for PSoC3ES3 or PSoC5A */
 102:Generated_Source\PSoC5/Timer_TS.c **** 
 103:Generated_Source\PSoC5/Timer_TS.c ****         #endif /* Configure Run Mode with hardware enable */
 104:Generated_Source\PSoC5/Timer_TS.c **** 
 105:Generated_Source\PSoC5/Timer_TS.c ****         /* Clear and Set SYNCTC and SYNCCMP bits of RT1 register */
 106:Generated_Source\PSoC5/Timer_TS.c ****         Timer_TS_RT1 &= ((uint8)(~Timer_TS_RT1_MASK));
  60              		.loc 1 106 0
  61 0024 1B4A     		ldr	r2, .L2+8
  62 0026 1B4B     		ldr	r3, .L2+8
  63 0028 1B78     		ldrb	r3, [r3]
  64 002a DBB2     		uxtb	r3, r3
  65 002c 23F03003 		bic	r3, r3, #48
ARM GAS  C:\Users\ylee818\AppData\Local\Temp\ccP11hT1.s 			page 4


  66 0030 DBB2     		uxtb	r3, r3
  67 0032 1370     		strb	r3, [r2]
 107:Generated_Source\PSoC5/Timer_TS.c ****         Timer_TS_RT1 |= Timer_TS_SYNC;
  68              		.loc 1 107 0
  69 0034 174A     		ldr	r2, .L2+8
  70 0036 174B     		ldr	r3, .L2+8
  71 0038 1B78     		ldrb	r3, [r3]
  72 003a DBB2     		uxtb	r3, r3
  73 003c 43F03003 		orr	r3, r3, #48
  74 0040 DBB2     		uxtb	r3, r3
  75 0042 1370     		strb	r3, [r2]
 108:Generated_Source\PSoC5/Timer_TS.c **** 
 109:Generated_Source\PSoC5/Timer_TS.c ****         /*Enable DSI Sync all all inputs of the Timer*/
 110:Generated_Source\PSoC5/Timer_TS.c ****         Timer_TS_RT1 &= ((uint8)(~Timer_TS_SYNCDSI_MASK));
  76              		.loc 1 110 0
  77 0044 134A     		ldr	r2, .L2+8
  78 0046 134B     		ldr	r3, .L2+8
  79 0048 1B78     		ldrb	r3, [r3]
  80 004a DBB2     		uxtb	r3, r3
  81 004c 23F00F03 		bic	r3, r3, #15
  82 0050 DBB2     		uxtb	r3, r3
  83 0052 1370     		strb	r3, [r2]
 111:Generated_Source\PSoC5/Timer_TS.c ****         Timer_TS_RT1 |= Timer_TS_SYNCDSI_EN;
  84              		.loc 1 111 0
  85 0054 0F4A     		ldr	r2, .L2+8
  86 0056 0F4B     		ldr	r3, .L2+8
  87 0058 1B78     		ldrb	r3, [r3]
  88 005a DBB2     		uxtb	r3, r3
  89 005c 43F00F03 		orr	r3, r3, #15
  90 0060 DBB2     		uxtb	r3, r3
  91 0062 1370     		strb	r3, [r2]
 112:Generated_Source\PSoC5/Timer_TS.c **** 
 113:Generated_Source\PSoC5/Timer_TS.c ****         /* Set the IRQ to use the status register interrupts */
 114:Generated_Source\PSoC5/Timer_TS.c ****         Timer_TS_CONTROL2 |= Timer_TS_CTRL2_IRQ_SEL;
  92              		.loc 1 114 0
  93 0064 0C4A     		ldr	r2, .L2+12
  94 0066 0C4B     		ldr	r3, .L2+12
  95 0068 1B78     		ldrb	r3, [r3]
  96 006a DBB2     		uxtb	r3, r3
  97 006c 43F00103 		orr	r3, r3, #1
  98 0070 DBB2     		uxtb	r3, r3
  99 0072 1370     		strb	r3, [r2]
 115:Generated_Source\PSoC5/Timer_TS.c ****     #endif /* Configuring registers of fixed function implementation */
 116:Generated_Source\PSoC5/Timer_TS.c **** 
 117:Generated_Source\PSoC5/Timer_TS.c ****     /* Set Initial values from Configuration */
 118:Generated_Source\PSoC5/Timer_TS.c ****     Timer_TS_WritePeriod(Timer_TS_INIT_PERIOD);
 100              		.loc 1 118 0
 101 0074 6320     		movs	r0, #99
 102 0076 FFF7FEFF 		bl	Timer_TS_WritePeriod
 119:Generated_Source\PSoC5/Timer_TS.c ****     Timer_TS_WriteCounter(Timer_TS_INIT_PERIOD);
 103              		.loc 1 119 0
 104 007a 6320     		movs	r0, #99
 105 007c FFF7FEFF 		bl	Timer_TS_WriteCounter
 120:Generated_Source\PSoC5/Timer_TS.c **** 
 121:Generated_Source\PSoC5/Timer_TS.c ****     #if (Timer_TS_UsingHWCaptureCounter)/* Capture counter is enabled */
 122:Generated_Source\PSoC5/Timer_TS.c ****         Timer_TS_CAPTURE_COUNT_CTRL |= Timer_TS_CNTR_ENABLE;
 123:Generated_Source\PSoC5/Timer_TS.c ****         Timer_TS_SetCaptureCount(Timer_TS_INIT_CAPTURE_COUNT);
ARM GAS  C:\Users\ylee818\AppData\Local\Temp\ccP11hT1.s 			page 5


 124:Generated_Source\PSoC5/Timer_TS.c ****     #endif /* Configure capture counter value */
 125:Generated_Source\PSoC5/Timer_TS.c **** 
 126:Generated_Source\PSoC5/Timer_TS.c ****     #if (!Timer_TS_UsingFixedFunction)
 127:Generated_Source\PSoC5/Timer_TS.c ****         #if (Timer_TS_SoftwareCaptureMode)
 128:Generated_Source\PSoC5/Timer_TS.c ****             Timer_TS_SetCaptureMode(Timer_TS_INIT_CAPTURE_MODE);
 129:Generated_Source\PSoC5/Timer_TS.c ****         #endif /* Set Capture Mode for UDB implementation if capture mode is software controlled */
 130:Generated_Source\PSoC5/Timer_TS.c **** 
 131:Generated_Source\PSoC5/Timer_TS.c ****         #if (Timer_TS_SoftwareTriggerMode)
 132:Generated_Source\PSoC5/Timer_TS.c ****             #if (!Timer_TS_UDB_CONTROL_REG_REMOVED)
 133:Generated_Source\PSoC5/Timer_TS.c ****                 if (0u == (Timer_TS_CONTROL & Timer_TS__B_TIMER__TM_SOFTWARE))
 134:Generated_Source\PSoC5/Timer_TS.c ****                 {
 135:Generated_Source\PSoC5/Timer_TS.c ****                     Timer_TS_SetTriggerMode(Timer_TS_INIT_TRIGGER_MODE);
 136:Generated_Source\PSoC5/Timer_TS.c ****                 }
 137:Generated_Source\PSoC5/Timer_TS.c ****             #endif /* (!Timer_TS_UDB_CONTROL_REG_REMOVED) */
 138:Generated_Source\PSoC5/Timer_TS.c ****         #endif /* Set trigger mode for UDB Implementation if trigger mode is software controlled */
 139:Generated_Source\PSoC5/Timer_TS.c **** 
 140:Generated_Source\PSoC5/Timer_TS.c ****         /* CyEnterCriticalRegion and CyExitCriticalRegion are used to mark following region critica
 141:Generated_Source\PSoC5/Timer_TS.c ****         /* Enter Critical Region*/
 142:Generated_Source\PSoC5/Timer_TS.c ****         Timer_TS_interruptState = CyEnterCriticalSection();
 143:Generated_Source\PSoC5/Timer_TS.c **** 
 144:Generated_Source\PSoC5/Timer_TS.c ****         /* Use the interrupt output of the status register for IRQ output */
 145:Generated_Source\PSoC5/Timer_TS.c ****         Timer_TS_STATUS_AUX_CTRL |= Timer_TS_STATUS_ACTL_INT_EN_MASK;
 146:Generated_Source\PSoC5/Timer_TS.c **** 
 147:Generated_Source\PSoC5/Timer_TS.c ****         /* Exit Critical Region*/
 148:Generated_Source\PSoC5/Timer_TS.c ****         CyExitCriticalSection(Timer_TS_interruptState);
 149:Generated_Source\PSoC5/Timer_TS.c **** 
 150:Generated_Source\PSoC5/Timer_TS.c ****         #if (Timer_TS_EnableTriggerMode)
 151:Generated_Source\PSoC5/Timer_TS.c ****             Timer_TS_EnableTrigger();
 152:Generated_Source\PSoC5/Timer_TS.c ****         #endif /* Set Trigger enable bit for UDB implementation in the control register*/
 153:Generated_Source\PSoC5/Timer_TS.c **** 		
 154:Generated_Source\PSoC5/Timer_TS.c **** 		
 155:Generated_Source\PSoC5/Timer_TS.c ****         #if (Timer_TS_InterruptOnCaptureCount && !Timer_TS_UDB_CONTROL_REG_REMOVED)
 156:Generated_Source\PSoC5/Timer_TS.c ****             Timer_TS_SetInterruptCount(Timer_TS_INIT_INT_CAPTURE_COUNT);
 157:Generated_Source\PSoC5/Timer_TS.c ****         #endif /* Set interrupt count in UDB implementation if interrupt count feature is checked.*
 158:Generated_Source\PSoC5/Timer_TS.c **** 
 159:Generated_Source\PSoC5/Timer_TS.c ****         Timer_TS_ClearFIFO();
 160:Generated_Source\PSoC5/Timer_TS.c ****     #endif /* Configure additional features of UDB implementation */
 161:Generated_Source\PSoC5/Timer_TS.c **** 
 162:Generated_Source\PSoC5/Timer_TS.c ****     Timer_TS_SetInterruptMode(Timer_TS_INIT_INTERRUPT_MODE);
 106              		.loc 1 162 0
 107 0080 0020     		movs	r0, #0
 108 0082 FFF7FEFF 		bl	Timer_TS_SetInterruptMode
 163:Generated_Source\PSoC5/Timer_TS.c **** }
 109              		.loc 1 163 0
 110 0086 00BF     		nop
 111 0088 80BD     		pop	{r7, pc}
 112              	.L3:
 113 008a 00BF     		.align	2
 114              	.L2:
 115 008c 244F0040 		.word	1073762084
 116 0090 264F0040 		.word	1073762086
 117 0094 2F4F0040 		.word	1073762095
 118 0098 254F0040 		.word	1073762085
 119              		.cfi_endproc
 120              	.LFE0:
 121              		.size	Timer_TS_Init, .-Timer_TS_Init
 122              		.section	.text.Timer_TS_Enable,"ax",%progbits
ARM GAS  C:\Users\ylee818\AppData\Local\Temp\ccP11hT1.s 			page 6


 123              		.align	2
 124              		.global	Timer_TS_Enable
 125              		.thumb
 126              		.thumb_func
 127              		.type	Timer_TS_Enable, %function
 128              	Timer_TS_Enable:
 129              	.LFB1:
 164:Generated_Source\PSoC5/Timer_TS.c **** 
 165:Generated_Source\PSoC5/Timer_TS.c **** 
 166:Generated_Source\PSoC5/Timer_TS.c **** /*******************************************************************************
 167:Generated_Source\PSoC5/Timer_TS.c **** * Function Name: Timer_TS_Enable
 168:Generated_Source\PSoC5/Timer_TS.c **** ********************************************************************************
 169:Generated_Source\PSoC5/Timer_TS.c **** *
 170:Generated_Source\PSoC5/Timer_TS.c **** * Summary:
 171:Generated_Source\PSoC5/Timer_TS.c **** *  Enable the Timer
 172:Generated_Source\PSoC5/Timer_TS.c **** *
 173:Generated_Source\PSoC5/Timer_TS.c **** * Parameters:
 174:Generated_Source\PSoC5/Timer_TS.c **** *  void
 175:Generated_Source\PSoC5/Timer_TS.c **** *
 176:Generated_Source\PSoC5/Timer_TS.c **** * Return:
 177:Generated_Source\PSoC5/Timer_TS.c **** *  void
 178:Generated_Source\PSoC5/Timer_TS.c **** *
 179:Generated_Source\PSoC5/Timer_TS.c **** *******************************************************************************/
 180:Generated_Source\PSoC5/Timer_TS.c **** void Timer_TS_Enable(void) 
 181:Generated_Source\PSoC5/Timer_TS.c **** {
 130              		.loc 1 181 0
 131              		.cfi_startproc
 132              		@ args = 0, pretend = 0, frame = 0
 133              		@ frame_needed = 1, uses_anonymous_args = 0
 134              		@ link register save eliminated.
 135 0000 80B4     		push	{r7}
 136              		.cfi_def_cfa_offset 4
 137              		.cfi_offset 7, -4
 138 0002 00AF     		add	r7, sp, #0
 139              		.cfi_def_cfa_register 7
 182:Generated_Source\PSoC5/Timer_TS.c ****     /* Globally Enable the Fixed Function Block chosen */
 183:Generated_Source\PSoC5/Timer_TS.c ****     #if (Timer_TS_UsingFixedFunction)
 184:Generated_Source\PSoC5/Timer_TS.c ****         Timer_TS_GLOBAL_ENABLE |= Timer_TS_BLOCK_EN_MASK;
 140              		.loc 1 184 0
 141 0004 0D4A     		ldr	r2, .L5
 142 0006 0D4B     		ldr	r3, .L5
 143 0008 1B78     		ldrb	r3, [r3]
 144 000a DBB2     		uxtb	r3, r3
 145 000c 43F00803 		orr	r3, r3, #8
 146 0010 DBB2     		uxtb	r3, r3
 147 0012 1370     		strb	r3, [r2]
 185:Generated_Source\PSoC5/Timer_TS.c ****         Timer_TS_GLOBAL_STBY_ENABLE |= Timer_TS_BLOCK_STBY_EN_MASK;
 148              		.loc 1 185 0
 149 0014 0A4A     		ldr	r2, .L5+4
 150 0016 0A4B     		ldr	r3, .L5+4
 151 0018 1B78     		ldrb	r3, [r3]
 152 001a DBB2     		uxtb	r3, r3
 153 001c 43F00803 		orr	r3, r3, #8
 154 0020 DBB2     		uxtb	r3, r3
 155 0022 1370     		strb	r3, [r2]
 186:Generated_Source\PSoC5/Timer_TS.c ****     #endif /* Set Enable bit for enabling Fixed function timer*/
 187:Generated_Source\PSoC5/Timer_TS.c **** 
ARM GAS  C:\Users\ylee818\AppData\Local\Temp\ccP11hT1.s 			page 7


 188:Generated_Source\PSoC5/Timer_TS.c ****     /* Remove assignment if control register is removed */
 189:Generated_Source\PSoC5/Timer_TS.c ****     #if (!Timer_TS_UDB_CONTROL_REG_REMOVED || Timer_TS_UsingFixedFunction)
 190:Generated_Source\PSoC5/Timer_TS.c ****         Timer_TS_CONTROL |= Timer_TS_CTRL_ENABLE;
 156              		.loc 1 190 0
 157 0024 074A     		ldr	r2, .L5+8
 158 0026 074B     		ldr	r3, .L5+8
 159 0028 1B78     		ldrb	r3, [r3]
 160 002a DBB2     		uxtb	r3, r3
 161 002c 43F00103 		orr	r3, r3, #1
 162 0030 DBB2     		uxtb	r3, r3
 163 0032 1370     		strb	r3, [r2]
 191:Generated_Source\PSoC5/Timer_TS.c ****     #endif /* Remove assignment if control register is removed */
 192:Generated_Source\PSoC5/Timer_TS.c **** }
 164              		.loc 1 192 0
 165 0034 00BF     		nop
 166 0036 BD46     		mov	sp, r7
 167              		.cfi_def_cfa_register 13
 168              		@ sp needed
 169 0038 80BC     		pop	{r7}
 170              		.cfi_restore 7
 171              		.cfi_def_cfa_offset 0
 172 003a 7047     		bx	lr
 173              	.L6:
 174              		.align	2
 175              	.L5:
 176 003c A3430040 		.word	1073759139
 177 0040 B3430040 		.word	1073759155
 178 0044 244F0040 		.word	1073762084
 179              		.cfi_endproc
 180              	.LFE1:
 181              		.size	Timer_TS_Enable, .-Timer_TS_Enable
 182              		.section	.text.Timer_TS_Start,"ax",%progbits
 183              		.align	2
 184              		.global	Timer_TS_Start
 185              		.thumb
 186              		.thumb_func
 187              		.type	Timer_TS_Start, %function
 188              	Timer_TS_Start:
 189              	.LFB2:
 193:Generated_Source\PSoC5/Timer_TS.c **** 
 194:Generated_Source\PSoC5/Timer_TS.c **** 
 195:Generated_Source\PSoC5/Timer_TS.c **** /*******************************************************************************
 196:Generated_Source\PSoC5/Timer_TS.c **** * Function Name: Timer_TS_Start
 197:Generated_Source\PSoC5/Timer_TS.c **** ********************************************************************************
 198:Generated_Source\PSoC5/Timer_TS.c **** *
 199:Generated_Source\PSoC5/Timer_TS.c **** * Summary:
 200:Generated_Source\PSoC5/Timer_TS.c **** *  The start function initializes the timer with the default values, the
 201:Generated_Source\PSoC5/Timer_TS.c **** *  enables the timerto begin counting.  It does not enable interrupts,
 202:Generated_Source\PSoC5/Timer_TS.c **** *  the EnableInt command should be called if interrupt generation is required.
 203:Generated_Source\PSoC5/Timer_TS.c **** *
 204:Generated_Source\PSoC5/Timer_TS.c **** * Parameters:
 205:Generated_Source\PSoC5/Timer_TS.c **** *  void
 206:Generated_Source\PSoC5/Timer_TS.c **** *
 207:Generated_Source\PSoC5/Timer_TS.c **** * Return:
 208:Generated_Source\PSoC5/Timer_TS.c **** *  void
 209:Generated_Source\PSoC5/Timer_TS.c **** *
 210:Generated_Source\PSoC5/Timer_TS.c **** * Global variables:
ARM GAS  C:\Users\ylee818\AppData\Local\Temp\ccP11hT1.s 			page 8


 211:Generated_Source\PSoC5/Timer_TS.c **** *  Timer_TS_initVar: Is modified when this function is called for the
 212:Generated_Source\PSoC5/Timer_TS.c **** *   first time. Is used to ensure that initialization happens only once.
 213:Generated_Source\PSoC5/Timer_TS.c **** *
 214:Generated_Source\PSoC5/Timer_TS.c **** *******************************************************************************/
 215:Generated_Source\PSoC5/Timer_TS.c **** void Timer_TS_Start(void) 
 216:Generated_Source\PSoC5/Timer_TS.c **** {
 190              		.loc 1 216 0
 191              		.cfi_startproc
 192              		@ args = 0, pretend = 0, frame = 0
 193              		@ frame_needed = 1, uses_anonymous_args = 0
 194 0000 80B5     		push	{r7, lr}
 195              		.cfi_def_cfa_offset 8
 196              		.cfi_offset 7, -8
 197              		.cfi_offset 14, -4
 198 0002 00AF     		add	r7, sp, #0
 199              		.cfi_def_cfa_register 7
 217:Generated_Source\PSoC5/Timer_TS.c ****     if(Timer_TS_initVar == 0u)
 200              		.loc 1 217 0
 201 0004 064B     		ldr	r3, .L9
 202 0006 1B78     		ldrb	r3, [r3]	@ zero_extendqisi2
 203 0008 002B     		cmp	r3, #0
 204 000a 04D1     		bne	.L8
 218:Generated_Source\PSoC5/Timer_TS.c ****     {
 219:Generated_Source\PSoC5/Timer_TS.c ****         Timer_TS_Init();
 205              		.loc 1 219 0
 206 000c FFF7FEFF 		bl	Timer_TS_Init
 220:Generated_Source\PSoC5/Timer_TS.c **** 
 221:Generated_Source\PSoC5/Timer_TS.c ****         Timer_TS_initVar = 1u;   /* Clear this bit for Initialization */
 207              		.loc 1 221 0
 208 0010 034B     		ldr	r3, .L9
 209 0012 0122     		movs	r2, #1
 210 0014 1A70     		strb	r2, [r3]
 211              	.L8:
 222:Generated_Source\PSoC5/Timer_TS.c ****     }
 223:Generated_Source\PSoC5/Timer_TS.c **** 
 224:Generated_Source\PSoC5/Timer_TS.c ****     /* Enable the Timer */
 225:Generated_Source\PSoC5/Timer_TS.c ****     Timer_TS_Enable();
 212              		.loc 1 225 0
 213 0016 FFF7FEFF 		bl	Timer_TS_Enable
 226:Generated_Source\PSoC5/Timer_TS.c **** }
 214              		.loc 1 226 0
 215 001a 00BF     		nop
 216 001c 80BD     		pop	{r7, pc}
 217              	.L10:
 218 001e 00BF     		.align	2
 219              	.L9:
 220 0020 00000000 		.word	Timer_TS_initVar
 221              		.cfi_endproc
 222              	.LFE2:
 223              		.size	Timer_TS_Start, .-Timer_TS_Start
 224              		.section	.text.Timer_TS_Stop,"ax",%progbits
 225              		.align	2
 226              		.global	Timer_TS_Stop
 227              		.thumb
 228              		.thumb_func
 229              		.type	Timer_TS_Stop, %function
 230              	Timer_TS_Stop:
ARM GAS  C:\Users\ylee818\AppData\Local\Temp\ccP11hT1.s 			page 9


 231              	.LFB3:
 227:Generated_Source\PSoC5/Timer_TS.c **** 
 228:Generated_Source\PSoC5/Timer_TS.c **** 
 229:Generated_Source\PSoC5/Timer_TS.c **** /*******************************************************************************
 230:Generated_Source\PSoC5/Timer_TS.c **** * Function Name: Timer_TS_Stop
 231:Generated_Source\PSoC5/Timer_TS.c **** ********************************************************************************
 232:Generated_Source\PSoC5/Timer_TS.c **** *
 233:Generated_Source\PSoC5/Timer_TS.c **** * Summary:
 234:Generated_Source\PSoC5/Timer_TS.c **** *  The stop function halts the timer, but does not change any modes or disable
 235:Generated_Source\PSoC5/Timer_TS.c **** *  interrupts.
 236:Generated_Source\PSoC5/Timer_TS.c **** *
 237:Generated_Source\PSoC5/Timer_TS.c **** * Parameters:
 238:Generated_Source\PSoC5/Timer_TS.c **** *  void
 239:Generated_Source\PSoC5/Timer_TS.c **** *
 240:Generated_Source\PSoC5/Timer_TS.c **** * Return:
 241:Generated_Source\PSoC5/Timer_TS.c **** *  void
 242:Generated_Source\PSoC5/Timer_TS.c **** *
 243:Generated_Source\PSoC5/Timer_TS.c **** * Side Effects: If the Enable mode is set to Hardware only then this function
 244:Generated_Source\PSoC5/Timer_TS.c **** *               has no effect on the operation of the timer.
 245:Generated_Source\PSoC5/Timer_TS.c **** *
 246:Generated_Source\PSoC5/Timer_TS.c **** *******************************************************************************/
 247:Generated_Source\PSoC5/Timer_TS.c **** void Timer_TS_Stop(void) 
 248:Generated_Source\PSoC5/Timer_TS.c **** {
 232              		.loc 1 248 0
 233              		.cfi_startproc
 234              		@ args = 0, pretend = 0, frame = 0
 235              		@ frame_needed = 1, uses_anonymous_args = 0
 236              		@ link register save eliminated.
 237 0000 80B4     		push	{r7}
 238              		.cfi_def_cfa_offset 4
 239              		.cfi_offset 7, -4
 240 0002 00AF     		add	r7, sp, #0
 241              		.cfi_def_cfa_register 7
 249:Generated_Source\PSoC5/Timer_TS.c ****     /* Disable Timer */
 250:Generated_Source\PSoC5/Timer_TS.c ****     #if(!Timer_TS_UDB_CONTROL_REG_REMOVED || Timer_TS_UsingFixedFunction)
 251:Generated_Source\PSoC5/Timer_TS.c ****         Timer_TS_CONTROL &= ((uint8)(~Timer_TS_CTRL_ENABLE));
 242              		.loc 1 251 0
 243 0004 0D4A     		ldr	r2, .L12
 244 0006 0D4B     		ldr	r3, .L12
 245 0008 1B78     		ldrb	r3, [r3]
 246 000a DBB2     		uxtb	r3, r3
 247 000c 23F00103 		bic	r3, r3, #1
 248 0010 DBB2     		uxtb	r3, r3
 249 0012 1370     		strb	r3, [r2]
 252:Generated_Source\PSoC5/Timer_TS.c ****     #endif /* Remove assignment if control register is removed */
 253:Generated_Source\PSoC5/Timer_TS.c **** 
 254:Generated_Source\PSoC5/Timer_TS.c ****     /* Globally disable the Fixed Function Block chosen */
 255:Generated_Source\PSoC5/Timer_TS.c ****     #if (Timer_TS_UsingFixedFunction)
 256:Generated_Source\PSoC5/Timer_TS.c ****         Timer_TS_GLOBAL_ENABLE &= ((uint8)(~Timer_TS_BLOCK_EN_MASK));
 250              		.loc 1 256 0
 251 0014 0A4A     		ldr	r2, .L12+4
 252 0016 0A4B     		ldr	r3, .L12+4
 253 0018 1B78     		ldrb	r3, [r3]
 254 001a DBB2     		uxtb	r3, r3
 255 001c 23F00803 		bic	r3, r3, #8
 256 0020 DBB2     		uxtb	r3, r3
 257 0022 1370     		strb	r3, [r2]
ARM GAS  C:\Users\ylee818\AppData\Local\Temp\ccP11hT1.s 			page 10


 257:Generated_Source\PSoC5/Timer_TS.c ****         Timer_TS_GLOBAL_STBY_ENABLE &= ((uint8)(~Timer_TS_BLOCK_STBY_EN_MASK));
 258              		.loc 1 257 0
 259 0024 074A     		ldr	r2, .L12+8
 260 0026 074B     		ldr	r3, .L12+8
 261 0028 1B78     		ldrb	r3, [r3]
 262 002a DBB2     		uxtb	r3, r3
 263 002c 23F00803 		bic	r3, r3, #8
 264 0030 DBB2     		uxtb	r3, r3
 265 0032 1370     		strb	r3, [r2]
 258:Generated_Source\PSoC5/Timer_TS.c ****     #endif /* Disable global enable for the Timer Fixed function block to stop the Timer*/
 259:Generated_Source\PSoC5/Timer_TS.c **** }
 266              		.loc 1 259 0
 267 0034 00BF     		nop
 268 0036 BD46     		mov	sp, r7
 269              		.cfi_def_cfa_register 13
 270              		@ sp needed
 271 0038 80BC     		pop	{r7}
 272              		.cfi_restore 7
 273              		.cfi_def_cfa_offset 0
 274 003a 7047     		bx	lr
 275              	.L13:
 276              		.align	2
 277              	.L12:
 278 003c 244F0040 		.word	1073762084
 279 0040 A3430040 		.word	1073759139
 280 0044 B3430040 		.word	1073759155
 281              		.cfi_endproc
 282              	.LFE3:
 283              		.size	Timer_TS_Stop, .-Timer_TS_Stop
 284              		.section	.text.Timer_TS_SetInterruptMode,"ax",%progbits
 285              		.align	2
 286              		.global	Timer_TS_SetInterruptMode
 287              		.thumb
 288              		.thumb_func
 289              		.type	Timer_TS_SetInterruptMode, %function
 290              	Timer_TS_SetInterruptMode:
 291              	.LFB4:
 260:Generated_Source\PSoC5/Timer_TS.c **** 
 261:Generated_Source\PSoC5/Timer_TS.c **** 
 262:Generated_Source\PSoC5/Timer_TS.c **** /*******************************************************************************
 263:Generated_Source\PSoC5/Timer_TS.c **** * Function Name: Timer_TS_SetInterruptMode
 264:Generated_Source\PSoC5/Timer_TS.c **** ********************************************************************************
 265:Generated_Source\PSoC5/Timer_TS.c **** *
 266:Generated_Source\PSoC5/Timer_TS.c **** * Summary:
 267:Generated_Source\PSoC5/Timer_TS.c **** *  This function selects which of the interrupt inputs may cause an interrupt.
 268:Generated_Source\PSoC5/Timer_TS.c **** *  The twosources are caputure and terminal.  One, both or neither may
 269:Generated_Source\PSoC5/Timer_TS.c **** *  be selected.
 270:Generated_Source\PSoC5/Timer_TS.c **** *
 271:Generated_Source\PSoC5/Timer_TS.c **** * Parameters:
 272:Generated_Source\PSoC5/Timer_TS.c **** *  interruptMode:   This parameter is used to enable interrups on either/or
 273:Generated_Source\PSoC5/Timer_TS.c **** *                   terminal count or capture.
 274:Generated_Source\PSoC5/Timer_TS.c **** *
 275:Generated_Source\PSoC5/Timer_TS.c **** * Return:
 276:Generated_Source\PSoC5/Timer_TS.c **** *  void
 277:Generated_Source\PSoC5/Timer_TS.c **** *
 278:Generated_Source\PSoC5/Timer_TS.c **** *******************************************************************************/
 279:Generated_Source\PSoC5/Timer_TS.c **** void Timer_TS_SetInterruptMode(uint8 interruptMode) 
ARM GAS  C:\Users\ylee818\AppData\Local\Temp\ccP11hT1.s 			page 11


 280:Generated_Source\PSoC5/Timer_TS.c **** {
 292              		.loc 1 280 0
 293              		.cfi_startproc
 294              		@ args = 0, pretend = 0, frame = 8
 295              		@ frame_needed = 1, uses_anonymous_args = 0
 296              		@ link register save eliminated.
 297 0000 80B4     		push	{r7}
 298              		.cfi_def_cfa_offset 4
 299              		.cfi_offset 7, -4
 300 0002 83B0     		sub	sp, sp, #12
 301              		.cfi_def_cfa_offset 16
 302 0004 00AF     		add	r7, sp, #0
 303              		.cfi_def_cfa_register 7
 304 0006 0346     		mov	r3, r0
 305 0008 FB71     		strb	r3, [r7, #7]
 281:Generated_Source\PSoC5/Timer_TS.c ****     Timer_TS_STATUS_MASK = interruptMode;
 306              		.loc 1 281 0
 307 000a 044A     		ldr	r2, .L15
 308 000c FB79     		ldrb	r3, [r7, #7]
 309 000e 1370     		strb	r3, [r2]
 282:Generated_Source\PSoC5/Timer_TS.c **** }
 310              		.loc 1 282 0
 311 0010 00BF     		nop
 312 0012 0C37     		adds	r7, r7, #12
 313              		.cfi_def_cfa_offset 4
 314 0014 BD46     		mov	sp, r7
 315              		.cfi_def_cfa_register 13
 316              		@ sp needed
 317 0016 80BC     		pop	{r7}
 318              		.cfi_restore 7
 319              		.cfi_def_cfa_offset 0
 320 0018 7047     		bx	lr
 321              	.L16:
 322 001a 00BF     		.align	2
 323              	.L15:
 324 001c 274F0040 		.word	1073762087
 325              		.cfi_endproc
 326              	.LFE4:
 327              		.size	Timer_TS_SetInterruptMode, .-Timer_TS_SetInterruptMode
 328              		.section	.text.Timer_TS_SoftwareCapture,"ax",%progbits
 329              		.align	2
 330              		.global	Timer_TS_SoftwareCapture
 331              		.thumb
 332              		.thumb_func
 333              		.type	Timer_TS_SoftwareCapture, %function
 334              	Timer_TS_SoftwareCapture:
 335              	.LFB5:
 283:Generated_Source\PSoC5/Timer_TS.c **** 
 284:Generated_Source\PSoC5/Timer_TS.c **** 
 285:Generated_Source\PSoC5/Timer_TS.c **** /*******************************************************************************
 286:Generated_Source\PSoC5/Timer_TS.c **** * Function Name: Timer_TS_SoftwareCapture
 287:Generated_Source\PSoC5/Timer_TS.c **** ********************************************************************************
 288:Generated_Source\PSoC5/Timer_TS.c **** *
 289:Generated_Source\PSoC5/Timer_TS.c **** * Summary:
 290:Generated_Source\PSoC5/Timer_TS.c **** *  This function forces a capture independent of the capture signal.
 291:Generated_Source\PSoC5/Timer_TS.c **** *
 292:Generated_Source\PSoC5/Timer_TS.c **** * Parameters:
ARM GAS  C:\Users\ylee818\AppData\Local\Temp\ccP11hT1.s 			page 12


 293:Generated_Source\PSoC5/Timer_TS.c **** *  void
 294:Generated_Source\PSoC5/Timer_TS.c **** *
 295:Generated_Source\PSoC5/Timer_TS.c **** * Return:
 296:Generated_Source\PSoC5/Timer_TS.c **** *  void
 297:Generated_Source\PSoC5/Timer_TS.c **** *
 298:Generated_Source\PSoC5/Timer_TS.c **** * Side Effects:
 299:Generated_Source\PSoC5/Timer_TS.c **** *  An existing hardware capture could be overwritten.
 300:Generated_Source\PSoC5/Timer_TS.c **** *
 301:Generated_Source\PSoC5/Timer_TS.c **** *******************************************************************************/
 302:Generated_Source\PSoC5/Timer_TS.c **** void Timer_TS_SoftwareCapture(void) 
 303:Generated_Source\PSoC5/Timer_TS.c **** {
 336              		.loc 1 303 0
 337              		.cfi_startproc
 338              		@ args = 0, pretend = 0, frame = 0
 339              		@ frame_needed = 1, uses_anonymous_args = 0
 340              		@ link register save eliminated.
 341 0000 80B4     		push	{r7}
 342              		.cfi_def_cfa_offset 4
 343              		.cfi_offset 7, -4
 344 0002 00AF     		add	r7, sp, #0
 345              		.cfi_def_cfa_register 7
 304:Generated_Source\PSoC5/Timer_TS.c ****     /* Generate a software capture by reading the counter register */
 305:Generated_Source\PSoC5/Timer_TS.c ****     #if(Timer_TS_UsingFixedFunction)
 306:Generated_Source\PSoC5/Timer_TS.c ****         (void)CY_GET_REG16(Timer_TS_COUNTER_LSB_PTR);
 346              		.loc 1 306 0
 347 0004 024B     		ldr	r3, .L18
 348 0006 1B88     		ldrh	r3, [r3]	@ movhi
 307:Generated_Source\PSoC5/Timer_TS.c ****     #else
 308:Generated_Source\PSoC5/Timer_TS.c ****         (void)CY_GET_REG8(Timer_TS_COUNTER_LSB_PTR_8BIT);
 309:Generated_Source\PSoC5/Timer_TS.c ****     #endif/* (Timer_TS_UsingFixedFunction) */
 310:Generated_Source\PSoC5/Timer_TS.c ****     /* Capture Data is now in the FIFO */
 311:Generated_Source\PSoC5/Timer_TS.c **** }
 349              		.loc 1 311 0
 350 0008 00BF     		nop
 351 000a BD46     		mov	sp, r7
 352              		.cfi_def_cfa_register 13
 353              		@ sp needed
 354 000c 80BC     		pop	{r7}
 355              		.cfi_restore 7
 356              		.cfi_def_cfa_offset 0
 357 000e 7047     		bx	lr
 358              	.L19:
 359              		.align	2
 360              	.L18:
 361 0010 2A4F0040 		.word	1073762090
 362              		.cfi_endproc
 363              	.LFE5:
 364              		.size	Timer_TS_SoftwareCapture, .-Timer_TS_SoftwareCapture
 365              		.section	.text.Timer_TS_ReadStatusRegister,"ax",%progbits
 366              		.align	2
 367              		.global	Timer_TS_ReadStatusRegister
 368              		.thumb
 369              		.thumb_func
 370              		.type	Timer_TS_ReadStatusRegister, %function
 371              	Timer_TS_ReadStatusRegister:
 372              	.LFB6:
 312:Generated_Source\PSoC5/Timer_TS.c **** 
ARM GAS  C:\Users\ylee818\AppData\Local\Temp\ccP11hT1.s 			page 13


 313:Generated_Source\PSoC5/Timer_TS.c **** 
 314:Generated_Source\PSoC5/Timer_TS.c **** /*******************************************************************************
 315:Generated_Source\PSoC5/Timer_TS.c **** * Function Name: Timer_TS_ReadStatusRegister
 316:Generated_Source\PSoC5/Timer_TS.c **** ********************************************************************************
 317:Generated_Source\PSoC5/Timer_TS.c **** *
 318:Generated_Source\PSoC5/Timer_TS.c **** * Summary:
 319:Generated_Source\PSoC5/Timer_TS.c **** *  Reads the status register and returns it's state. This function should use
 320:Generated_Source\PSoC5/Timer_TS.c **** *  defined types for the bit-field information as the bits in this register may
 321:Generated_Source\PSoC5/Timer_TS.c **** *  be permuteable.
 322:Generated_Source\PSoC5/Timer_TS.c **** *
 323:Generated_Source\PSoC5/Timer_TS.c **** * Parameters:
 324:Generated_Source\PSoC5/Timer_TS.c **** *  void
 325:Generated_Source\PSoC5/Timer_TS.c **** *
 326:Generated_Source\PSoC5/Timer_TS.c **** * Return:
 327:Generated_Source\PSoC5/Timer_TS.c **** *  The contents of the status register
 328:Generated_Source\PSoC5/Timer_TS.c **** *
 329:Generated_Source\PSoC5/Timer_TS.c **** * Side Effects:
 330:Generated_Source\PSoC5/Timer_TS.c **** *  Status register bits may be clear on read.
 331:Generated_Source\PSoC5/Timer_TS.c **** *
 332:Generated_Source\PSoC5/Timer_TS.c **** *******************************************************************************/
 333:Generated_Source\PSoC5/Timer_TS.c **** uint8   Timer_TS_ReadStatusRegister(void) 
 334:Generated_Source\PSoC5/Timer_TS.c **** {
 373              		.loc 1 334 0
 374              		.cfi_startproc
 375              		@ args = 0, pretend = 0, frame = 0
 376              		@ frame_needed = 1, uses_anonymous_args = 0
 377              		@ link register save eliminated.
 378 0000 80B4     		push	{r7}
 379              		.cfi_def_cfa_offset 4
 380              		.cfi_offset 7, -4
 381 0002 00AF     		add	r7, sp, #0
 382              		.cfi_def_cfa_register 7
 335:Generated_Source\PSoC5/Timer_TS.c ****     return (Timer_TS_STATUS);
 383              		.loc 1 335 0
 384 0004 034B     		ldr	r3, .L22
 385 0006 1B78     		ldrb	r3, [r3]
 386 0008 DBB2     		uxtb	r3, r3
 336:Generated_Source\PSoC5/Timer_TS.c **** }
 387              		.loc 1 336 0
 388 000a 1846     		mov	r0, r3
 389 000c BD46     		mov	sp, r7
 390              		.cfi_def_cfa_register 13
 391              		@ sp needed
 392 000e 80BC     		pop	{r7}
 393              		.cfi_restore 7
 394              		.cfi_def_cfa_offset 0
 395 0010 7047     		bx	lr
 396              	.L23:
 397 0012 00BF     		.align	2
 398              	.L22:
 399 0014 274F0040 		.word	1073762087
 400              		.cfi_endproc
 401              	.LFE6:
 402              		.size	Timer_TS_ReadStatusRegister, .-Timer_TS_ReadStatusRegister
 403              		.section	.text.Timer_TS_ReadControlRegister,"ax",%progbits
 404              		.align	2
 405              		.global	Timer_TS_ReadControlRegister
ARM GAS  C:\Users\ylee818\AppData\Local\Temp\ccP11hT1.s 			page 14


 406              		.thumb
 407              		.thumb_func
 408              		.type	Timer_TS_ReadControlRegister, %function
 409              	Timer_TS_ReadControlRegister:
 410              	.LFB7:
 337:Generated_Source\PSoC5/Timer_TS.c **** 
 338:Generated_Source\PSoC5/Timer_TS.c **** 
 339:Generated_Source\PSoC5/Timer_TS.c **** #if (!Timer_TS_UDB_CONTROL_REG_REMOVED) /* Remove API if control register is unused */
 340:Generated_Source\PSoC5/Timer_TS.c **** 
 341:Generated_Source\PSoC5/Timer_TS.c **** 
 342:Generated_Source\PSoC5/Timer_TS.c **** /*******************************************************************************
 343:Generated_Source\PSoC5/Timer_TS.c **** * Function Name: Timer_TS_ReadControlRegister
 344:Generated_Source\PSoC5/Timer_TS.c **** ********************************************************************************
 345:Generated_Source\PSoC5/Timer_TS.c **** *
 346:Generated_Source\PSoC5/Timer_TS.c **** * Summary:
 347:Generated_Source\PSoC5/Timer_TS.c **** *  Reads the control register and returns it's value.
 348:Generated_Source\PSoC5/Timer_TS.c **** *
 349:Generated_Source\PSoC5/Timer_TS.c **** * Parameters:
 350:Generated_Source\PSoC5/Timer_TS.c **** *  void
 351:Generated_Source\PSoC5/Timer_TS.c **** *
 352:Generated_Source\PSoC5/Timer_TS.c **** * Return:
 353:Generated_Source\PSoC5/Timer_TS.c **** *  The contents of the control register
 354:Generated_Source\PSoC5/Timer_TS.c **** *
 355:Generated_Source\PSoC5/Timer_TS.c **** *******************************************************************************/
 356:Generated_Source\PSoC5/Timer_TS.c **** uint8 Timer_TS_ReadControlRegister(void) 
 357:Generated_Source\PSoC5/Timer_TS.c **** {
 411              		.loc 1 357 0
 412              		.cfi_startproc
 413              		@ args = 0, pretend = 0, frame = 0
 414              		@ frame_needed = 1, uses_anonymous_args = 0
 415              		@ link register save eliminated.
 416 0000 80B4     		push	{r7}
 417              		.cfi_def_cfa_offset 4
 418              		.cfi_offset 7, -4
 419 0002 00AF     		add	r7, sp, #0
 420              		.cfi_def_cfa_register 7
 358:Generated_Source\PSoC5/Timer_TS.c ****     #if (!Timer_TS_UDB_CONTROL_REG_REMOVED) 
 359:Generated_Source\PSoC5/Timer_TS.c ****         return ((uint8)Timer_TS_CONTROL);
 421              		.loc 1 359 0
 422 0004 034B     		ldr	r3, .L26
 423 0006 1B78     		ldrb	r3, [r3]
 424 0008 DBB2     		uxtb	r3, r3
 360:Generated_Source\PSoC5/Timer_TS.c ****     #else
 361:Generated_Source\PSoC5/Timer_TS.c ****         return (0);
 362:Generated_Source\PSoC5/Timer_TS.c ****     #endif /* (!Timer_TS_UDB_CONTROL_REG_REMOVED) */
 363:Generated_Source\PSoC5/Timer_TS.c **** }
 425              		.loc 1 363 0
 426 000a 1846     		mov	r0, r3
 427 000c BD46     		mov	sp, r7
 428              		.cfi_def_cfa_register 13
 429              		@ sp needed
 430 000e 80BC     		pop	{r7}
 431              		.cfi_restore 7
 432              		.cfi_def_cfa_offset 0
 433 0010 7047     		bx	lr
 434              	.L27:
 435 0012 00BF     		.align	2
ARM GAS  C:\Users\ylee818\AppData\Local\Temp\ccP11hT1.s 			page 15


 436              	.L26:
 437 0014 244F0040 		.word	1073762084
 438              		.cfi_endproc
 439              	.LFE7:
 440              		.size	Timer_TS_ReadControlRegister, .-Timer_TS_ReadControlRegister
 441              		.section	.text.Timer_TS_WriteControlRegister,"ax",%progbits
 442              		.align	2
 443              		.global	Timer_TS_WriteControlRegister
 444              		.thumb
 445              		.thumb_func
 446              		.type	Timer_TS_WriteControlRegister, %function
 447              	Timer_TS_WriteControlRegister:
 448              	.LFB8:
 364:Generated_Source\PSoC5/Timer_TS.c **** 
 365:Generated_Source\PSoC5/Timer_TS.c **** 
 366:Generated_Source\PSoC5/Timer_TS.c **** /*******************************************************************************
 367:Generated_Source\PSoC5/Timer_TS.c **** * Function Name: Timer_TS_WriteControlRegister
 368:Generated_Source\PSoC5/Timer_TS.c **** ********************************************************************************
 369:Generated_Source\PSoC5/Timer_TS.c **** *
 370:Generated_Source\PSoC5/Timer_TS.c **** * Summary:
 371:Generated_Source\PSoC5/Timer_TS.c **** *  Sets the bit-field of the control register.
 372:Generated_Source\PSoC5/Timer_TS.c **** *
 373:Generated_Source\PSoC5/Timer_TS.c **** * Parameters:
 374:Generated_Source\PSoC5/Timer_TS.c **** *  control: The contents of the control register
 375:Generated_Source\PSoC5/Timer_TS.c **** *
 376:Generated_Source\PSoC5/Timer_TS.c **** * Return:
 377:Generated_Source\PSoC5/Timer_TS.c **** *
 378:Generated_Source\PSoC5/Timer_TS.c **** *******************************************************************************/
 379:Generated_Source\PSoC5/Timer_TS.c **** void Timer_TS_WriteControlRegister(uint8 control) 
 380:Generated_Source\PSoC5/Timer_TS.c **** {
 449              		.loc 1 380 0
 450              		.cfi_startproc
 451              		@ args = 0, pretend = 0, frame = 8
 452              		@ frame_needed = 1, uses_anonymous_args = 0
 453              		@ link register save eliminated.
 454 0000 80B4     		push	{r7}
 455              		.cfi_def_cfa_offset 4
 456              		.cfi_offset 7, -4
 457 0002 83B0     		sub	sp, sp, #12
 458              		.cfi_def_cfa_offset 16
 459 0004 00AF     		add	r7, sp, #0
 460              		.cfi_def_cfa_register 7
 461 0006 0346     		mov	r3, r0
 462 0008 FB71     		strb	r3, [r7, #7]
 381:Generated_Source\PSoC5/Timer_TS.c ****     #if (!Timer_TS_UDB_CONTROL_REG_REMOVED) 
 382:Generated_Source\PSoC5/Timer_TS.c ****         Timer_TS_CONTROL = control;
 463              		.loc 1 382 0
 464 000a 044A     		ldr	r2, .L29
 465 000c FB79     		ldrb	r3, [r7, #7]
 466 000e 1370     		strb	r3, [r2]
 383:Generated_Source\PSoC5/Timer_TS.c ****     #else
 384:Generated_Source\PSoC5/Timer_TS.c ****         control = 0u;
 385:Generated_Source\PSoC5/Timer_TS.c ****     #endif /* (!Timer_TS_UDB_CONTROL_REG_REMOVED) */
 386:Generated_Source\PSoC5/Timer_TS.c **** }
 467              		.loc 1 386 0
 468 0010 00BF     		nop
 469 0012 0C37     		adds	r7, r7, #12
ARM GAS  C:\Users\ylee818\AppData\Local\Temp\ccP11hT1.s 			page 16


 470              		.cfi_def_cfa_offset 4
 471 0014 BD46     		mov	sp, r7
 472              		.cfi_def_cfa_register 13
 473              		@ sp needed
 474 0016 80BC     		pop	{r7}
 475              		.cfi_restore 7
 476              		.cfi_def_cfa_offset 0
 477 0018 7047     		bx	lr
 478              	.L30:
 479 001a 00BF     		.align	2
 480              	.L29:
 481 001c 244F0040 		.word	1073762084
 482              		.cfi_endproc
 483              	.LFE8:
 484              		.size	Timer_TS_WriteControlRegister, .-Timer_TS_WriteControlRegister
 485              		.section	.text.Timer_TS_ReadPeriod,"ax",%progbits
 486              		.align	2
 487              		.global	Timer_TS_ReadPeriod
 488              		.thumb
 489              		.thumb_func
 490              		.type	Timer_TS_ReadPeriod, %function
 491              	Timer_TS_ReadPeriod:
 492              	.LFB9:
 387:Generated_Source\PSoC5/Timer_TS.c **** 
 388:Generated_Source\PSoC5/Timer_TS.c **** #endif /* Remove API if control register is unused */
 389:Generated_Source\PSoC5/Timer_TS.c **** 
 390:Generated_Source\PSoC5/Timer_TS.c **** 
 391:Generated_Source\PSoC5/Timer_TS.c **** /*******************************************************************************
 392:Generated_Source\PSoC5/Timer_TS.c **** * Function Name: Timer_TS_ReadPeriod
 393:Generated_Source\PSoC5/Timer_TS.c **** ********************************************************************************
 394:Generated_Source\PSoC5/Timer_TS.c **** *
 395:Generated_Source\PSoC5/Timer_TS.c **** * Summary:
 396:Generated_Source\PSoC5/Timer_TS.c **** *  This function returns the current value of the Period.
 397:Generated_Source\PSoC5/Timer_TS.c **** *
 398:Generated_Source\PSoC5/Timer_TS.c **** * Parameters:
 399:Generated_Source\PSoC5/Timer_TS.c **** *  void
 400:Generated_Source\PSoC5/Timer_TS.c **** *
 401:Generated_Source\PSoC5/Timer_TS.c **** * Return:
 402:Generated_Source\PSoC5/Timer_TS.c **** *  The present value of the counter.
 403:Generated_Source\PSoC5/Timer_TS.c **** *
 404:Generated_Source\PSoC5/Timer_TS.c **** *******************************************************************************/
 405:Generated_Source\PSoC5/Timer_TS.c **** uint8 Timer_TS_ReadPeriod(void) 
 406:Generated_Source\PSoC5/Timer_TS.c **** {
 493              		.loc 1 406 0
 494              		.cfi_startproc
 495              		@ args = 0, pretend = 0, frame = 0
 496              		@ frame_needed = 1, uses_anonymous_args = 0
 497              		@ link register save eliminated.
 498 0000 80B4     		push	{r7}
 499              		.cfi_def_cfa_offset 4
 500              		.cfi_offset 7, -4
 501 0002 00AF     		add	r7, sp, #0
 502              		.cfi_def_cfa_register 7
 407:Generated_Source\PSoC5/Timer_TS.c ****    #if(Timer_TS_UsingFixedFunction)
 408:Generated_Source\PSoC5/Timer_TS.c ****        return ((uint8)CY_GET_REG16(Timer_TS_PERIOD_LSB_PTR));
 503              		.loc 1 408 0
 504 0004 034B     		ldr	r3, .L33
ARM GAS  C:\Users\ylee818\AppData\Local\Temp\ccP11hT1.s 			page 17


 505 0006 1B88     		ldrh	r3, [r3]	@ movhi
 506 0008 9BB2     		uxth	r3, r3
 507 000a DBB2     		uxtb	r3, r3
 409:Generated_Source\PSoC5/Timer_TS.c ****    #else
 410:Generated_Source\PSoC5/Timer_TS.c ****        return (CY_GET_REG8(Timer_TS_PERIOD_LSB_PTR));
 411:Generated_Source\PSoC5/Timer_TS.c ****    #endif /* (Timer_TS_UsingFixedFunction) */
 412:Generated_Source\PSoC5/Timer_TS.c **** }
 508              		.loc 1 412 0
 509 000c 1846     		mov	r0, r3
 510 000e BD46     		mov	sp, r7
 511              		.cfi_def_cfa_register 13
 512              		@ sp needed
 513 0010 80BC     		pop	{r7}
 514              		.cfi_restore 7
 515              		.cfi_def_cfa_offset 0
 516 0012 7047     		bx	lr
 517              	.L34:
 518              		.align	2
 519              	.L33:
 520 0014 284F0040 		.word	1073762088
 521              		.cfi_endproc
 522              	.LFE9:
 523              		.size	Timer_TS_ReadPeriod, .-Timer_TS_ReadPeriod
 524              		.section	.text.Timer_TS_WritePeriod,"ax",%progbits
 525              		.align	2
 526              		.global	Timer_TS_WritePeriod
 527              		.thumb
 528              		.thumb_func
 529              		.type	Timer_TS_WritePeriod, %function
 530              	Timer_TS_WritePeriod:
 531              	.LFB10:
 413:Generated_Source\PSoC5/Timer_TS.c **** 
 414:Generated_Source\PSoC5/Timer_TS.c **** 
 415:Generated_Source\PSoC5/Timer_TS.c **** /*******************************************************************************
 416:Generated_Source\PSoC5/Timer_TS.c **** * Function Name: Timer_TS_WritePeriod
 417:Generated_Source\PSoC5/Timer_TS.c **** ********************************************************************************
 418:Generated_Source\PSoC5/Timer_TS.c **** *
 419:Generated_Source\PSoC5/Timer_TS.c **** * Summary:
 420:Generated_Source\PSoC5/Timer_TS.c **** *  This function is used to change the period of the counter.  The new period
 421:Generated_Source\PSoC5/Timer_TS.c **** *  will be loaded the next time terminal count is detected.
 422:Generated_Source\PSoC5/Timer_TS.c **** *
 423:Generated_Source\PSoC5/Timer_TS.c **** * Parameters:
 424:Generated_Source\PSoC5/Timer_TS.c **** *  period: This value may be between 1 and (2^Resolution)-1.  A value of 0 will
 425:Generated_Source\PSoC5/Timer_TS.c **** *          result in the counter remaining at zero.
 426:Generated_Source\PSoC5/Timer_TS.c **** *
 427:Generated_Source\PSoC5/Timer_TS.c **** * Return:
 428:Generated_Source\PSoC5/Timer_TS.c **** *  void
 429:Generated_Source\PSoC5/Timer_TS.c **** *
 430:Generated_Source\PSoC5/Timer_TS.c **** *******************************************************************************/
 431:Generated_Source\PSoC5/Timer_TS.c **** void Timer_TS_WritePeriod(uint8 period) 
 432:Generated_Source\PSoC5/Timer_TS.c **** {
 532              		.loc 1 432 0
 533              		.cfi_startproc
 534              		@ args = 0, pretend = 0, frame = 16
 535              		@ frame_needed = 1, uses_anonymous_args = 0
 536              		@ link register save eliminated.
 537 0000 80B4     		push	{r7}
ARM GAS  C:\Users\ylee818\AppData\Local\Temp\ccP11hT1.s 			page 18


 538              		.cfi_def_cfa_offset 4
 539              		.cfi_offset 7, -4
 540 0002 85B0     		sub	sp, sp, #20
 541              		.cfi_def_cfa_offset 24
 542 0004 00AF     		add	r7, sp, #0
 543              		.cfi_def_cfa_register 7
 544 0006 0346     		mov	r3, r0
 545 0008 FB71     		strb	r3, [r7, #7]
 433:Generated_Source\PSoC5/Timer_TS.c ****     #if(Timer_TS_UsingFixedFunction)
 434:Generated_Source\PSoC5/Timer_TS.c ****         uint16 period_temp = (uint16)period;
 546              		.loc 1 434 0
 547 000a FB79     		ldrb	r3, [r7, #7]	@ zero_extendqisi2
 548 000c FB81     		strh	r3, [r7, #14]	@ movhi
 435:Generated_Source\PSoC5/Timer_TS.c ****         CY_SET_REG16(Timer_TS_PERIOD_LSB_PTR, period_temp);
 549              		.loc 1 435 0
 550 000e 044A     		ldr	r2, .L36
 551 0010 FB89     		ldrh	r3, [r7, #14]	@ movhi
 552 0012 1380     		strh	r3, [r2]	@ movhi
 436:Generated_Source\PSoC5/Timer_TS.c ****     #else
 437:Generated_Source\PSoC5/Timer_TS.c ****         CY_SET_REG8(Timer_TS_PERIOD_LSB_PTR, period);
 438:Generated_Source\PSoC5/Timer_TS.c ****     #endif /*Write Period value with appropriate resolution suffix depending on UDB or fixed functi
 439:Generated_Source\PSoC5/Timer_TS.c **** }
 553              		.loc 1 439 0
 554 0014 00BF     		nop
 555 0016 1437     		adds	r7, r7, #20
 556              		.cfi_def_cfa_offset 4
 557 0018 BD46     		mov	sp, r7
 558              		.cfi_def_cfa_register 13
 559              		@ sp needed
 560 001a 80BC     		pop	{r7}
 561              		.cfi_restore 7
 562              		.cfi_def_cfa_offset 0
 563 001c 7047     		bx	lr
 564              	.L37:
 565 001e 00BF     		.align	2
 566              	.L36:
 567 0020 284F0040 		.word	1073762088
 568              		.cfi_endproc
 569              	.LFE10:
 570              		.size	Timer_TS_WritePeriod, .-Timer_TS_WritePeriod
 571              		.section	.text.Timer_TS_ReadCapture,"ax",%progbits
 572              		.align	2
 573              		.global	Timer_TS_ReadCapture
 574              		.thumb
 575              		.thumb_func
 576              		.type	Timer_TS_ReadCapture, %function
 577              	Timer_TS_ReadCapture:
 578              	.LFB11:
 440:Generated_Source\PSoC5/Timer_TS.c **** 
 441:Generated_Source\PSoC5/Timer_TS.c **** 
 442:Generated_Source\PSoC5/Timer_TS.c **** /*******************************************************************************
 443:Generated_Source\PSoC5/Timer_TS.c **** * Function Name: Timer_TS_ReadCapture
 444:Generated_Source\PSoC5/Timer_TS.c **** ********************************************************************************
 445:Generated_Source\PSoC5/Timer_TS.c **** *
 446:Generated_Source\PSoC5/Timer_TS.c **** * Summary:
 447:Generated_Source\PSoC5/Timer_TS.c **** *  This function returns the last value captured.
 448:Generated_Source\PSoC5/Timer_TS.c **** *
ARM GAS  C:\Users\ylee818\AppData\Local\Temp\ccP11hT1.s 			page 19


 449:Generated_Source\PSoC5/Timer_TS.c **** * Parameters:
 450:Generated_Source\PSoC5/Timer_TS.c **** *  void
 451:Generated_Source\PSoC5/Timer_TS.c **** *
 452:Generated_Source\PSoC5/Timer_TS.c **** * Return:
 453:Generated_Source\PSoC5/Timer_TS.c **** *  Present Capture value.
 454:Generated_Source\PSoC5/Timer_TS.c **** *
 455:Generated_Source\PSoC5/Timer_TS.c **** *******************************************************************************/
 456:Generated_Source\PSoC5/Timer_TS.c **** uint8 Timer_TS_ReadCapture(void) 
 457:Generated_Source\PSoC5/Timer_TS.c **** {
 579              		.loc 1 457 0
 580              		.cfi_startproc
 581              		@ args = 0, pretend = 0, frame = 0
 582              		@ frame_needed = 1, uses_anonymous_args = 0
 583              		@ link register save eliminated.
 584 0000 80B4     		push	{r7}
 585              		.cfi_def_cfa_offset 4
 586              		.cfi_offset 7, -4
 587 0002 00AF     		add	r7, sp, #0
 588              		.cfi_def_cfa_register 7
 458:Generated_Source\PSoC5/Timer_TS.c ****    #if(Timer_TS_UsingFixedFunction)
 459:Generated_Source\PSoC5/Timer_TS.c ****        return ((uint8)CY_GET_REG16(Timer_TS_CAPTURE_LSB_PTR));
 589              		.loc 1 459 0
 590 0004 034B     		ldr	r3, .L40
 591 0006 1B88     		ldrh	r3, [r3]	@ movhi
 592 0008 9BB2     		uxth	r3, r3
 593 000a DBB2     		uxtb	r3, r3
 460:Generated_Source\PSoC5/Timer_TS.c ****    #else
 461:Generated_Source\PSoC5/Timer_TS.c ****        return (CY_GET_REG8(Timer_TS_CAPTURE_LSB_PTR));
 462:Generated_Source\PSoC5/Timer_TS.c ****    #endif /* (Timer_TS_UsingFixedFunction) */
 463:Generated_Source\PSoC5/Timer_TS.c **** }
 594              		.loc 1 463 0
 595 000c 1846     		mov	r0, r3
 596 000e BD46     		mov	sp, r7
 597              		.cfi_def_cfa_register 13
 598              		@ sp needed
 599 0010 80BC     		pop	{r7}
 600              		.cfi_restore 7
 601              		.cfi_def_cfa_offset 0
 602 0012 7047     		bx	lr
 603              	.L41:
 604              		.align	2
 605              	.L40:
 606 0014 2C4F0040 		.word	1073762092
 607              		.cfi_endproc
 608              	.LFE11:
 609              		.size	Timer_TS_ReadCapture, .-Timer_TS_ReadCapture
 610              		.section	.text.Timer_TS_WriteCounter,"ax",%progbits
 611              		.align	2
 612              		.global	Timer_TS_WriteCounter
 613              		.thumb
 614              		.thumb_func
 615              		.type	Timer_TS_WriteCounter, %function
 616              	Timer_TS_WriteCounter:
 617              	.LFB12:
 464:Generated_Source\PSoC5/Timer_TS.c **** 
 465:Generated_Source\PSoC5/Timer_TS.c **** 
 466:Generated_Source\PSoC5/Timer_TS.c **** /*******************************************************************************
ARM GAS  C:\Users\ylee818\AppData\Local\Temp\ccP11hT1.s 			page 20


 467:Generated_Source\PSoC5/Timer_TS.c **** * Function Name: Timer_TS_WriteCounter
 468:Generated_Source\PSoC5/Timer_TS.c **** ********************************************************************************
 469:Generated_Source\PSoC5/Timer_TS.c **** *
 470:Generated_Source\PSoC5/Timer_TS.c **** * Summary:
 471:Generated_Source\PSoC5/Timer_TS.c **** *  This funtion is used to set the counter to a specific value
 472:Generated_Source\PSoC5/Timer_TS.c **** *
 473:Generated_Source\PSoC5/Timer_TS.c **** * Parameters:
 474:Generated_Source\PSoC5/Timer_TS.c **** *  counter:  New counter value.
 475:Generated_Source\PSoC5/Timer_TS.c **** *
 476:Generated_Source\PSoC5/Timer_TS.c **** * Return:
 477:Generated_Source\PSoC5/Timer_TS.c **** *  void
 478:Generated_Source\PSoC5/Timer_TS.c **** *
 479:Generated_Source\PSoC5/Timer_TS.c **** *******************************************************************************/
 480:Generated_Source\PSoC5/Timer_TS.c **** void Timer_TS_WriteCounter(uint8 counter) 
 481:Generated_Source\PSoC5/Timer_TS.c **** {
 618              		.loc 1 481 0
 619              		.cfi_startproc
 620              		@ args = 0, pretend = 0, frame = 8
 621              		@ frame_needed = 1, uses_anonymous_args = 0
 622              		@ link register save eliminated.
 623 0000 80B4     		push	{r7}
 624              		.cfi_def_cfa_offset 4
 625              		.cfi_offset 7, -4
 626 0002 83B0     		sub	sp, sp, #12
 627              		.cfi_def_cfa_offset 16
 628 0004 00AF     		add	r7, sp, #0
 629              		.cfi_def_cfa_register 7
 630 0006 0346     		mov	r3, r0
 631 0008 FB71     		strb	r3, [r7, #7]
 482:Generated_Source\PSoC5/Timer_TS.c ****    #if(Timer_TS_UsingFixedFunction)
 483:Generated_Source\PSoC5/Timer_TS.c ****         /* This functionality is removed until a FixedFunction HW update to
 484:Generated_Source\PSoC5/Timer_TS.c ****          * allow this register to be written
 485:Generated_Source\PSoC5/Timer_TS.c ****          */
 486:Generated_Source\PSoC5/Timer_TS.c ****         CY_SET_REG16(Timer_TS_COUNTER_LSB_PTR, (uint16)counter);
 632              		.loc 1 486 0
 633 000a 044B     		ldr	r3, .L43
 634 000c FA79     		ldrb	r2, [r7, #7]	@ zero_extendqisi2
 635 000e 92B2     		uxth	r2, r2
 636 0010 1A80     		strh	r2, [r3]	@ movhi
 487:Generated_Source\PSoC5/Timer_TS.c ****         
 488:Generated_Source\PSoC5/Timer_TS.c ****     #else
 489:Generated_Source\PSoC5/Timer_TS.c ****         CY_SET_REG8(Timer_TS_COUNTER_LSB_PTR, counter);
 490:Generated_Source\PSoC5/Timer_TS.c ****     #endif /* Set Write Counter only for the UDB implementation (Write Counter not available in fix
 491:Generated_Source\PSoC5/Timer_TS.c **** }
 637              		.loc 1 491 0
 638 0012 00BF     		nop
 639 0014 0C37     		adds	r7, r7, #12
 640              		.cfi_def_cfa_offset 4
 641 0016 BD46     		mov	sp, r7
 642              		.cfi_def_cfa_register 13
 643              		@ sp needed
 644 0018 80BC     		pop	{r7}
 645              		.cfi_restore 7
 646              		.cfi_def_cfa_offset 0
 647 001a 7047     		bx	lr
 648              	.L44:
 649              		.align	2
ARM GAS  C:\Users\ylee818\AppData\Local\Temp\ccP11hT1.s 			page 21


 650              	.L43:
 651 001c 2A4F0040 		.word	1073762090
 652              		.cfi_endproc
 653              	.LFE12:
 654              		.size	Timer_TS_WriteCounter, .-Timer_TS_WriteCounter
 655              		.section	.text.Timer_TS_ReadCounter,"ax",%progbits
 656              		.align	2
 657              		.global	Timer_TS_ReadCounter
 658              		.thumb
 659              		.thumb_func
 660              		.type	Timer_TS_ReadCounter, %function
 661              	Timer_TS_ReadCounter:
 662              	.LFB13:
 492:Generated_Source\PSoC5/Timer_TS.c **** 
 493:Generated_Source\PSoC5/Timer_TS.c **** 
 494:Generated_Source\PSoC5/Timer_TS.c **** /*******************************************************************************
 495:Generated_Source\PSoC5/Timer_TS.c **** * Function Name: Timer_TS_ReadCounter
 496:Generated_Source\PSoC5/Timer_TS.c **** ********************************************************************************
 497:Generated_Source\PSoC5/Timer_TS.c **** *
 498:Generated_Source\PSoC5/Timer_TS.c **** * Summary:
 499:Generated_Source\PSoC5/Timer_TS.c **** *  This function returns the current counter value.
 500:Generated_Source\PSoC5/Timer_TS.c **** *
 501:Generated_Source\PSoC5/Timer_TS.c **** * Parameters:
 502:Generated_Source\PSoC5/Timer_TS.c **** *  void
 503:Generated_Source\PSoC5/Timer_TS.c **** *
 504:Generated_Source\PSoC5/Timer_TS.c **** * Return:
 505:Generated_Source\PSoC5/Timer_TS.c **** *  Present compare value.
 506:Generated_Source\PSoC5/Timer_TS.c **** *
 507:Generated_Source\PSoC5/Timer_TS.c **** *******************************************************************************/
 508:Generated_Source\PSoC5/Timer_TS.c **** uint8 Timer_TS_ReadCounter(void) 
 509:Generated_Source\PSoC5/Timer_TS.c **** {
 663              		.loc 1 509 0
 664              		.cfi_startproc
 665              		@ args = 0, pretend = 0, frame = 0
 666              		@ frame_needed = 1, uses_anonymous_args = 0
 667              		@ link register save eliminated.
 668 0000 80B4     		push	{r7}
 669              		.cfi_def_cfa_offset 4
 670              		.cfi_offset 7, -4
 671 0002 00AF     		add	r7, sp, #0
 672              		.cfi_def_cfa_register 7
 510:Generated_Source\PSoC5/Timer_TS.c ****     /* Force capture by reading Accumulator */
 511:Generated_Source\PSoC5/Timer_TS.c ****     /* Must first do a software capture to be able to read the counter */
 512:Generated_Source\PSoC5/Timer_TS.c ****     /* It is up to the user code to make sure there isn't already captured data in the FIFO */
 513:Generated_Source\PSoC5/Timer_TS.c ****     #if(Timer_TS_UsingFixedFunction)
 514:Generated_Source\PSoC5/Timer_TS.c ****         (void)CY_GET_REG16(Timer_TS_COUNTER_LSB_PTR);
 673              		.loc 1 514 0
 674 0004 044B     		ldr	r3, .L47
 675 0006 1B88     		ldrh	r3, [r3]	@ movhi
 515:Generated_Source\PSoC5/Timer_TS.c ****     #else
 516:Generated_Source\PSoC5/Timer_TS.c ****         (void)CY_GET_REG8(Timer_TS_COUNTER_LSB_PTR_8BIT);
 517:Generated_Source\PSoC5/Timer_TS.c ****     #endif/* (Timer_TS_UsingFixedFunction) */
 518:Generated_Source\PSoC5/Timer_TS.c **** 
 519:Generated_Source\PSoC5/Timer_TS.c ****     /* Read the data from the FIFO (or capture register for Fixed Function)*/
 520:Generated_Source\PSoC5/Timer_TS.c ****     #if(Timer_TS_UsingFixedFunction)
 521:Generated_Source\PSoC5/Timer_TS.c ****         return ((uint8)CY_GET_REG16(Timer_TS_CAPTURE_LSB_PTR));
 676              		.loc 1 521 0
ARM GAS  C:\Users\ylee818\AppData\Local\Temp\ccP11hT1.s 			page 22


 677 0008 044B     		ldr	r3, .L47+4
 678 000a 1B88     		ldrh	r3, [r3]	@ movhi
 679 000c 9BB2     		uxth	r3, r3
 680 000e DBB2     		uxtb	r3, r3
 522:Generated_Source\PSoC5/Timer_TS.c ****     #else
 523:Generated_Source\PSoC5/Timer_TS.c ****         return (CY_GET_REG8(Timer_TS_CAPTURE_LSB_PTR));
 524:Generated_Source\PSoC5/Timer_TS.c ****     #endif /* (Timer_TS_UsingFixedFunction) */
 525:Generated_Source\PSoC5/Timer_TS.c **** }
 681              		.loc 1 525 0
 682 0010 1846     		mov	r0, r3
 683 0012 BD46     		mov	sp, r7
 684              		.cfi_def_cfa_register 13
 685              		@ sp needed
 686 0014 80BC     		pop	{r7}
 687              		.cfi_restore 7
 688              		.cfi_def_cfa_offset 0
 689 0016 7047     		bx	lr
 690              	.L48:
 691              		.align	2
 692              	.L47:
 693 0018 2A4F0040 		.word	1073762090
 694 001c 2C4F0040 		.word	1073762092
 695              		.cfi_endproc
 696              	.LFE13:
 697              		.size	Timer_TS_ReadCounter, .-Timer_TS_ReadCounter
 698              		.text
 699              	.Letext0:
 700              		.file 2 "Generated_Source\\PSoC5\\cytypes.h"
 701              		.section	.debug_info,"",%progbits
 702              	.Ldebug_info0:
 703 0000 41020000 		.4byte	0x241
 704 0004 0400     		.2byte	0x4
 705 0006 00000000 		.4byte	.Ldebug_abbrev0
 706 000a 04       		.byte	0x4
 707 000b 01       		.uleb128 0x1
 708 000c 06000000 		.4byte	.LASF36
 709 0010 0C       		.byte	0xc
 710 0011 BE000000 		.4byte	.LASF37
 711 0015 BC020000 		.4byte	.LASF38
 712 0019 00000000 		.4byte	.Ldebug_ranges0+0
 713 001d 00000000 		.4byte	0
 714 0021 00000000 		.4byte	.Ldebug_line0
 715 0025 02       		.uleb128 0x2
 716 0026 01       		.byte	0x1
 717 0027 06       		.byte	0x6
 718 0028 9B020000 		.4byte	.LASF0
 719 002c 02       		.uleb128 0x2
 720 002d 01       		.byte	0x1
 721 002e 08       		.byte	0x8
 722 002f 30010000 		.4byte	.LASF1
 723 0033 02       		.uleb128 0x2
 724 0034 02       		.byte	0x2
 725 0035 05       		.byte	0x5
 726 0036 5B020000 		.4byte	.LASF2
 727 003a 02       		.uleb128 0x2
 728 003b 02       		.byte	0x2
 729 003c 07       		.byte	0x7
ARM GAS  C:\Users\ylee818\AppData\Local\Temp\ccP11hT1.s 			page 23


 730 003d 9B000000 		.4byte	.LASF3
 731 0041 02       		.uleb128 0x2
 732 0042 04       		.byte	0x4
 733 0043 05       		.byte	0x5
 734 0044 81020000 		.4byte	.LASF4
 735 0048 02       		.uleb128 0x2
 736 0049 04       		.byte	0x4
 737 004a 07       		.byte	0x7
 738 004b 43010000 		.4byte	.LASF5
 739 004f 02       		.uleb128 0x2
 740 0050 08       		.byte	0x8
 741 0051 05       		.byte	0x5
 742 0052 1C020000 		.4byte	.LASF6
 743 0056 02       		.uleb128 0x2
 744 0057 08       		.byte	0x8
 745 0058 07       		.byte	0x7
 746 0059 DC010000 		.4byte	.LASF7
 747 005d 03       		.uleb128 0x3
 748 005e 04       		.byte	0x4
 749 005f 05       		.byte	0x5
 750 0060 696E7400 		.ascii	"int\000"
 751 0064 02       		.uleb128 0x2
 752 0065 04       		.byte	0x4
 753 0066 07       		.byte	0x7
 754 0067 CF010000 		.4byte	.LASF8
 755 006b 04       		.uleb128 0x4
 756 006c 6E010000 		.4byte	.LASF9
 757 0070 02       		.byte	0x2
 758 0071 E701     		.2byte	0x1e7
 759 0073 2C000000 		.4byte	0x2c
 760 0077 04       		.uleb128 0x4
 761 0078 C8010000 		.4byte	.LASF10
 762 007c 02       		.byte	0x2
 763 007d E801     		.2byte	0x1e8
 764 007f 3A000000 		.4byte	0x3a
 765 0083 02       		.uleb128 0x2
 766 0084 04       		.byte	0x4
 767 0085 04       		.byte	0x4
 768 0086 13010000 		.4byte	.LASF11
 769 008a 02       		.uleb128 0x2
 770 008b 08       		.byte	0x8
 771 008c 04       		.byte	0x4
 772 008d A4010000 		.4byte	.LASF12
 773 0091 02       		.uleb128 0x2
 774 0092 01       		.byte	0x1
 775 0093 08       		.byte	0x8
 776 0094 8A020000 		.4byte	.LASF13
 777 0098 04       		.uleb128 0x4
 778 0099 3E010000 		.4byte	.LASF14
 779 009d 02       		.byte	0x2
 780 009e 9102     		.2byte	0x291
 781 00a0 A4000000 		.4byte	0xa4
 782 00a4 05       		.uleb128 0x5
 783 00a5 6B000000 		.4byte	0x6b
 784 00a9 04       		.uleb128 0x4
 785 00aa 00000000 		.4byte	.LASF15
 786 00ae 02       		.byte	0x2
ARM GAS  C:\Users\ylee818\AppData\Local\Temp\ccP11hT1.s 			page 24


 787 00af 9202     		.2byte	0x292
 788 00b1 B5000000 		.4byte	0xb5
 789 00b5 05       		.uleb128 0x5
 790 00b6 77000000 		.4byte	0x77
 791 00ba 02       		.uleb128 0x2
 792 00bb 08       		.byte	0x8
 793 00bc 04       		.byte	0x4
 794 00bd 8F020000 		.4byte	.LASF16
 795 00c1 02       		.uleb128 0x2
 796 00c2 04       		.byte	0x4
 797 00c3 07       		.byte	0x7
 798 00c4 13020000 		.4byte	.LASF17
 799 00c8 06       		.uleb128 0x6
 800 00c9 7C010000 		.4byte	.LASF18
 801 00cd 01       		.byte	0x1
 802 00ce 2B       		.byte	0x2b
 803 00cf 00000000 		.4byte	.LFB0
 804 00d3 9C000000 		.4byte	.LFE0-.LFB0
 805 00d7 01       		.uleb128 0x1
 806 00d8 9C       		.byte	0x9c
 807 00d9 07       		.uleb128 0x7
 808 00da AE000000 		.4byte	.LASF19
 809 00de 01       		.byte	0x1
 810 00df B4       		.byte	0xb4
 811 00e0 00000000 		.4byte	.LFB1
 812 00e4 48000000 		.4byte	.LFE1-.LFB1
 813 00e8 01       		.uleb128 0x1
 814 00e9 9C       		.byte	0x9c
 815 00ea 06       		.uleb128 0x6
 816 00eb 21010000 		.4byte	.LASF20
 817 00ef 01       		.byte	0x1
 818 00f0 D7       		.byte	0xd7
 819 00f1 00000000 		.4byte	.LFB2
 820 00f5 24000000 		.4byte	.LFE2-.LFB2
 821 00f9 01       		.uleb128 0x1
 822 00fa 9C       		.byte	0x9c
 823 00fb 07       		.uleb128 0x7
 824 00fc 38020000 		.4byte	.LASF21
 825 0100 01       		.byte	0x1
 826 0101 F7       		.byte	0xf7
 827 0102 00000000 		.4byte	.LFB3
 828 0106 48000000 		.4byte	.LFE3-.LFB3
 829 010a 01       		.uleb128 0x1
 830 010b 9C       		.byte	0x9c
 831 010c 08       		.uleb128 0x8
 832 010d 8A010000 		.4byte	.LASF25
 833 0111 01       		.byte	0x1
 834 0112 1701     		.2byte	0x117
 835 0114 00000000 		.4byte	.LFB4
 836 0118 20000000 		.4byte	.LFE4-.LFB4
 837 011c 01       		.uleb128 0x1
 838 011d 9C       		.byte	0x9c
 839 011e 32010000 		.4byte	0x132
 840 0122 09       		.uleb128 0x9
 841 0123 2A020000 		.4byte	.LASF27
 842 0127 01       		.byte	0x1
 843 0128 1701     		.2byte	0x117
ARM GAS  C:\Users\ylee818\AppData\Local\Temp\ccP11hT1.s 			page 25


 844 012a 6B000000 		.4byte	0x6b
 845 012e 02       		.uleb128 0x2
 846 012f 91       		.byte	0x91
 847 0130 77       		.sleb128 -9
 848 0131 00       		.byte	0
 849 0132 0A       		.uleb128 0xa
 850 0133 55010000 		.4byte	.LASF22
 851 0137 01       		.byte	0x1
 852 0138 2E01     		.2byte	0x12e
 853 013a 00000000 		.4byte	.LFB5
 854 013e 14000000 		.4byte	.LFE5-.LFB5
 855 0142 01       		.uleb128 0x1
 856 0143 9C       		.byte	0x9c
 857 0144 0B       		.uleb128 0xb
 858 0145 65020000 		.4byte	.LASF23
 859 0149 01       		.byte	0x1
 860 014a 4D01     		.2byte	0x14d
 861 014c 6B000000 		.4byte	0x6b
 862 0150 00000000 		.4byte	.LFB6
 863 0154 18000000 		.4byte	.LFE6-.LFB6
 864 0158 01       		.uleb128 0x1
 865 0159 9C       		.byte	0x9c
 866 015a 0B       		.uleb128 0xb
 867 015b AB010000 		.4byte	.LASF24
 868 015f 01       		.byte	0x1
 869 0160 6401     		.2byte	0x164
 870 0162 6B000000 		.4byte	0x6b
 871 0166 00000000 		.4byte	.LFB7
 872 016a 18000000 		.4byte	.LFE7-.LFB7
 873 016e 01       		.uleb128 0x1
 874 016f 9C       		.byte	0x9c
 875 0170 08       		.uleb128 0x8
 876 0171 E0000000 		.4byte	.LASF26
 877 0175 01       		.byte	0x1
 878 0176 7B01     		.2byte	0x17b
 879 0178 00000000 		.4byte	.LFB8
 880 017c 20000000 		.4byte	.LFE8-.LFB8
 881 0180 01       		.uleb128 0x1
 882 0181 9C       		.byte	0x9c
 883 0182 96010000 		.4byte	0x196
 884 0186 09       		.uleb128 0x9
 885 0187 74010000 		.4byte	.LASF28
 886 018b 01       		.byte	0x1
 887 018c 7B01     		.2byte	0x17b
 888 018e 6B000000 		.4byte	0x6b
 889 0192 02       		.uleb128 0x2
 890 0193 91       		.byte	0x91
 891 0194 77       		.sleb128 -9
 892 0195 00       		.byte	0
 893 0196 0B       		.uleb128 0xb
 894 0197 F3010000 		.4byte	.LASF29
 895 019b 01       		.byte	0x1
 896 019c 9501     		.2byte	0x195
 897 019e 6B000000 		.4byte	0x6b
 898 01a2 00000000 		.4byte	.LFB9
 899 01a6 18000000 		.4byte	.LFE9-.LFB9
 900 01aa 01       		.uleb128 0x1
ARM GAS  C:\Users\ylee818\AppData\Local\Temp\ccP11hT1.s 			page 26


 901 01ab 9C       		.byte	0x9c
 902 01ac 08       		.uleb128 0x8
 903 01ad FE000000 		.4byte	.LASF30
 904 01b1 01       		.byte	0x1
 905 01b2 AF01     		.2byte	0x1af
 906 01b4 00000000 		.4byte	.LFB10
 907 01b8 24000000 		.4byte	.LFE10-.LFB10
 908 01bc 01       		.uleb128 0x1
 909 01bd 9C       		.byte	0x9c
 910 01be E1010000 		.4byte	0x1e1
 911 01c2 09       		.uleb128 0x9
 912 01c3 94000000 		.4byte	.LASF31
 913 01c7 01       		.byte	0x1
 914 01c8 AF01     		.2byte	0x1af
 915 01ca 6B000000 		.4byte	0x6b
 916 01ce 02       		.uleb128 0x2
 917 01cf 91       		.byte	0x91
 918 01d0 6F       		.sleb128 -17
 919 01d1 0C       		.uleb128 0xc
 920 01d2 07020000 		.4byte	.LASF39
 921 01d6 01       		.byte	0x1
 922 01d7 B201     		.2byte	0x1b2
 923 01d9 77000000 		.4byte	0x77
 924 01dd 02       		.uleb128 0x2
 925 01de 91       		.byte	0x91
 926 01df 76       		.sleb128 -10
 927 01e0 00       		.byte	0
 928 01e1 0B       		.uleb128 0xb
 929 01e2 46020000 		.4byte	.LASF32
 930 01e6 01       		.byte	0x1
 931 01e7 C801     		.2byte	0x1c8
 932 01e9 6B000000 		.4byte	0x6b
 933 01ed 00000000 		.4byte	.LFB11
 934 01f1 18000000 		.4byte	.LFE11-.LFB11
 935 01f5 01       		.uleb128 0x1
 936 01f6 9C       		.byte	0x9c
 937 01f7 08       		.uleb128 0x8
 938 01f8 5F030000 		.4byte	.LASF33
 939 01fc 01       		.byte	0x1
 940 01fd E001     		.2byte	0x1e0
 941 01ff 00000000 		.4byte	.LFB12
 942 0203 20000000 		.4byte	.LFE12-.LFB12
 943 0207 01       		.uleb128 0x1
 944 0208 9C       		.byte	0x9c
 945 0209 1D020000 		.4byte	0x21d
 946 020d 09       		.uleb128 0x9
 947 020e 19010000 		.4byte	.LASF34
 948 0212 01       		.byte	0x1
 949 0213 E001     		.2byte	0x1e0
 950 0215 6B000000 		.4byte	0x6b
 951 0219 02       		.uleb128 0x2
 952 021a 91       		.byte	0x91
 953 021b 77       		.sleb128 -9
 954 021c 00       		.byte	0
 955 021d 0B       		.uleb128 0xb
 956 021e A7020000 		.4byte	.LASF35
 957 0222 01       		.byte	0x1
ARM GAS  C:\Users\ylee818\AppData\Local\Temp\ccP11hT1.s 			page 27


 958 0223 FC01     		.2byte	0x1fc
 959 0225 6B000000 		.4byte	0x6b
 960 0229 00000000 		.4byte	.LFB13
 961 022d 20000000 		.4byte	.LFE13-.LFB13
 962 0231 01       		.uleb128 0x1
 963 0232 9C       		.byte	0x9c
 964 0233 0D       		.uleb128 0xd
 965 0234 4E030000 		.4byte	.LASF40
 966 0238 01       		.byte	0x1
 967 0239 1A       		.byte	0x1a
 968 023a 6B000000 		.4byte	0x6b
 969 023e 05       		.uleb128 0x5
 970 023f 03       		.byte	0x3
 971 0240 00000000 		.4byte	Timer_TS_initVar
 972 0244 00       		.byte	0
 973              		.section	.debug_abbrev,"",%progbits
 974              	.Ldebug_abbrev0:
 975 0000 01       		.uleb128 0x1
 976 0001 11       		.uleb128 0x11
 977 0002 01       		.byte	0x1
 978 0003 25       		.uleb128 0x25
 979 0004 0E       		.uleb128 0xe
 980 0005 13       		.uleb128 0x13
 981 0006 0B       		.uleb128 0xb
 982 0007 03       		.uleb128 0x3
 983 0008 0E       		.uleb128 0xe
 984 0009 1B       		.uleb128 0x1b
 985 000a 0E       		.uleb128 0xe
 986 000b 55       		.uleb128 0x55
 987 000c 17       		.uleb128 0x17
 988 000d 11       		.uleb128 0x11
 989 000e 01       		.uleb128 0x1
 990 000f 10       		.uleb128 0x10
 991 0010 17       		.uleb128 0x17
 992 0011 00       		.byte	0
 993 0012 00       		.byte	0
 994 0013 02       		.uleb128 0x2
 995 0014 24       		.uleb128 0x24
 996 0015 00       		.byte	0
 997 0016 0B       		.uleb128 0xb
 998 0017 0B       		.uleb128 0xb
 999 0018 3E       		.uleb128 0x3e
 1000 0019 0B       		.uleb128 0xb
 1001 001a 03       		.uleb128 0x3
 1002 001b 0E       		.uleb128 0xe
 1003 001c 00       		.byte	0
 1004 001d 00       		.byte	0
 1005 001e 03       		.uleb128 0x3
 1006 001f 24       		.uleb128 0x24
 1007 0020 00       		.byte	0
 1008 0021 0B       		.uleb128 0xb
 1009 0022 0B       		.uleb128 0xb
 1010 0023 3E       		.uleb128 0x3e
 1011 0024 0B       		.uleb128 0xb
 1012 0025 03       		.uleb128 0x3
 1013 0026 08       		.uleb128 0x8
 1014 0027 00       		.byte	0
ARM GAS  C:\Users\ylee818\AppData\Local\Temp\ccP11hT1.s 			page 28


 1015 0028 00       		.byte	0
 1016 0029 04       		.uleb128 0x4
 1017 002a 16       		.uleb128 0x16
 1018 002b 00       		.byte	0
 1019 002c 03       		.uleb128 0x3
 1020 002d 0E       		.uleb128 0xe
 1021 002e 3A       		.uleb128 0x3a
 1022 002f 0B       		.uleb128 0xb
 1023 0030 3B       		.uleb128 0x3b
 1024 0031 05       		.uleb128 0x5
 1025 0032 49       		.uleb128 0x49
 1026 0033 13       		.uleb128 0x13
 1027 0034 00       		.byte	0
 1028 0035 00       		.byte	0
 1029 0036 05       		.uleb128 0x5
 1030 0037 35       		.uleb128 0x35
 1031 0038 00       		.byte	0
 1032 0039 49       		.uleb128 0x49
 1033 003a 13       		.uleb128 0x13
 1034 003b 00       		.byte	0
 1035 003c 00       		.byte	0
 1036 003d 06       		.uleb128 0x6
 1037 003e 2E       		.uleb128 0x2e
 1038 003f 00       		.byte	0
 1039 0040 3F       		.uleb128 0x3f
 1040 0041 19       		.uleb128 0x19
 1041 0042 03       		.uleb128 0x3
 1042 0043 0E       		.uleb128 0xe
 1043 0044 3A       		.uleb128 0x3a
 1044 0045 0B       		.uleb128 0xb
 1045 0046 3B       		.uleb128 0x3b
 1046 0047 0B       		.uleb128 0xb
 1047 0048 27       		.uleb128 0x27
 1048 0049 19       		.uleb128 0x19
 1049 004a 11       		.uleb128 0x11
 1050 004b 01       		.uleb128 0x1
 1051 004c 12       		.uleb128 0x12
 1052 004d 06       		.uleb128 0x6
 1053 004e 40       		.uleb128 0x40
 1054 004f 18       		.uleb128 0x18
 1055 0050 9642     		.uleb128 0x2116
 1056 0052 19       		.uleb128 0x19
 1057 0053 00       		.byte	0
 1058 0054 00       		.byte	0
 1059 0055 07       		.uleb128 0x7
 1060 0056 2E       		.uleb128 0x2e
 1061 0057 00       		.byte	0
 1062 0058 3F       		.uleb128 0x3f
 1063 0059 19       		.uleb128 0x19
 1064 005a 03       		.uleb128 0x3
 1065 005b 0E       		.uleb128 0xe
 1066 005c 3A       		.uleb128 0x3a
 1067 005d 0B       		.uleb128 0xb
 1068 005e 3B       		.uleb128 0x3b
 1069 005f 0B       		.uleb128 0xb
 1070 0060 27       		.uleb128 0x27
 1071 0061 19       		.uleb128 0x19
ARM GAS  C:\Users\ylee818\AppData\Local\Temp\ccP11hT1.s 			page 29


 1072 0062 11       		.uleb128 0x11
 1073 0063 01       		.uleb128 0x1
 1074 0064 12       		.uleb128 0x12
 1075 0065 06       		.uleb128 0x6
 1076 0066 40       		.uleb128 0x40
 1077 0067 18       		.uleb128 0x18
 1078 0068 9742     		.uleb128 0x2117
 1079 006a 19       		.uleb128 0x19
 1080 006b 00       		.byte	0
 1081 006c 00       		.byte	0
 1082 006d 08       		.uleb128 0x8
 1083 006e 2E       		.uleb128 0x2e
 1084 006f 01       		.byte	0x1
 1085 0070 3F       		.uleb128 0x3f
 1086 0071 19       		.uleb128 0x19
 1087 0072 03       		.uleb128 0x3
 1088 0073 0E       		.uleb128 0xe
 1089 0074 3A       		.uleb128 0x3a
 1090 0075 0B       		.uleb128 0xb
 1091 0076 3B       		.uleb128 0x3b
 1092 0077 05       		.uleb128 0x5
 1093 0078 27       		.uleb128 0x27
 1094 0079 19       		.uleb128 0x19
 1095 007a 11       		.uleb128 0x11
 1096 007b 01       		.uleb128 0x1
 1097 007c 12       		.uleb128 0x12
 1098 007d 06       		.uleb128 0x6
 1099 007e 40       		.uleb128 0x40
 1100 007f 18       		.uleb128 0x18
 1101 0080 9742     		.uleb128 0x2117
 1102 0082 19       		.uleb128 0x19
 1103 0083 01       		.uleb128 0x1
 1104 0084 13       		.uleb128 0x13
 1105 0085 00       		.byte	0
 1106 0086 00       		.byte	0
 1107 0087 09       		.uleb128 0x9
 1108 0088 05       		.uleb128 0x5
 1109 0089 00       		.byte	0
 1110 008a 03       		.uleb128 0x3
 1111 008b 0E       		.uleb128 0xe
 1112 008c 3A       		.uleb128 0x3a
 1113 008d 0B       		.uleb128 0xb
 1114 008e 3B       		.uleb128 0x3b
 1115 008f 05       		.uleb128 0x5
 1116 0090 49       		.uleb128 0x49
 1117 0091 13       		.uleb128 0x13
 1118 0092 02       		.uleb128 0x2
 1119 0093 18       		.uleb128 0x18
 1120 0094 00       		.byte	0
 1121 0095 00       		.byte	0
 1122 0096 0A       		.uleb128 0xa
 1123 0097 2E       		.uleb128 0x2e
 1124 0098 00       		.byte	0
 1125 0099 3F       		.uleb128 0x3f
 1126 009a 19       		.uleb128 0x19
 1127 009b 03       		.uleb128 0x3
 1128 009c 0E       		.uleb128 0xe
ARM GAS  C:\Users\ylee818\AppData\Local\Temp\ccP11hT1.s 			page 30


 1129 009d 3A       		.uleb128 0x3a
 1130 009e 0B       		.uleb128 0xb
 1131 009f 3B       		.uleb128 0x3b
 1132 00a0 05       		.uleb128 0x5
 1133 00a1 27       		.uleb128 0x27
 1134 00a2 19       		.uleb128 0x19
 1135 00a3 11       		.uleb128 0x11
 1136 00a4 01       		.uleb128 0x1
 1137 00a5 12       		.uleb128 0x12
 1138 00a6 06       		.uleb128 0x6
 1139 00a7 40       		.uleb128 0x40
 1140 00a8 18       		.uleb128 0x18
 1141 00a9 9742     		.uleb128 0x2117
 1142 00ab 19       		.uleb128 0x19
 1143 00ac 00       		.byte	0
 1144 00ad 00       		.byte	0
 1145 00ae 0B       		.uleb128 0xb
 1146 00af 2E       		.uleb128 0x2e
 1147 00b0 00       		.byte	0
 1148 00b1 3F       		.uleb128 0x3f
 1149 00b2 19       		.uleb128 0x19
 1150 00b3 03       		.uleb128 0x3
 1151 00b4 0E       		.uleb128 0xe
 1152 00b5 3A       		.uleb128 0x3a
 1153 00b6 0B       		.uleb128 0xb
 1154 00b7 3B       		.uleb128 0x3b
 1155 00b8 05       		.uleb128 0x5
 1156 00b9 27       		.uleb128 0x27
 1157 00ba 19       		.uleb128 0x19
 1158 00bb 49       		.uleb128 0x49
 1159 00bc 13       		.uleb128 0x13
 1160 00bd 11       		.uleb128 0x11
 1161 00be 01       		.uleb128 0x1
 1162 00bf 12       		.uleb128 0x12
 1163 00c0 06       		.uleb128 0x6
 1164 00c1 40       		.uleb128 0x40
 1165 00c2 18       		.uleb128 0x18
 1166 00c3 9742     		.uleb128 0x2117
 1167 00c5 19       		.uleb128 0x19
 1168 00c6 00       		.byte	0
 1169 00c7 00       		.byte	0
 1170 00c8 0C       		.uleb128 0xc
 1171 00c9 34       		.uleb128 0x34
 1172 00ca 00       		.byte	0
 1173 00cb 03       		.uleb128 0x3
 1174 00cc 0E       		.uleb128 0xe
 1175 00cd 3A       		.uleb128 0x3a
 1176 00ce 0B       		.uleb128 0xb
 1177 00cf 3B       		.uleb128 0x3b
 1178 00d0 05       		.uleb128 0x5
 1179 00d1 49       		.uleb128 0x49
 1180 00d2 13       		.uleb128 0x13
 1181 00d3 02       		.uleb128 0x2
 1182 00d4 18       		.uleb128 0x18
 1183 00d5 00       		.byte	0
 1184 00d6 00       		.byte	0
 1185 00d7 0D       		.uleb128 0xd
ARM GAS  C:\Users\ylee818\AppData\Local\Temp\ccP11hT1.s 			page 31


 1186 00d8 34       		.uleb128 0x34
 1187 00d9 00       		.byte	0
 1188 00da 03       		.uleb128 0x3
 1189 00db 0E       		.uleb128 0xe
 1190 00dc 3A       		.uleb128 0x3a
 1191 00dd 0B       		.uleb128 0xb
 1192 00de 3B       		.uleb128 0x3b
 1193 00df 0B       		.uleb128 0xb
 1194 00e0 49       		.uleb128 0x49
 1195 00e1 13       		.uleb128 0x13
 1196 00e2 3F       		.uleb128 0x3f
 1197 00e3 19       		.uleb128 0x19
 1198 00e4 02       		.uleb128 0x2
 1199 00e5 18       		.uleb128 0x18
 1200 00e6 00       		.byte	0
 1201 00e7 00       		.byte	0
 1202 00e8 00       		.byte	0
 1203              		.section	.debug_aranges,"",%progbits
 1204 0000 84000000 		.4byte	0x84
 1205 0004 0200     		.2byte	0x2
 1206 0006 00000000 		.4byte	.Ldebug_info0
 1207 000a 04       		.byte	0x4
 1208 000b 00       		.byte	0
 1209 000c 0000     		.2byte	0
 1210 000e 0000     		.2byte	0
 1211 0010 00000000 		.4byte	.LFB0
 1212 0014 9C000000 		.4byte	.LFE0-.LFB0
 1213 0018 00000000 		.4byte	.LFB1
 1214 001c 48000000 		.4byte	.LFE1-.LFB1
 1215 0020 00000000 		.4byte	.LFB2
 1216 0024 24000000 		.4byte	.LFE2-.LFB2
 1217 0028 00000000 		.4byte	.LFB3
 1218 002c 48000000 		.4byte	.LFE3-.LFB3
 1219 0030 00000000 		.4byte	.LFB4
 1220 0034 20000000 		.4byte	.LFE4-.LFB4
 1221 0038 00000000 		.4byte	.LFB5
 1222 003c 14000000 		.4byte	.LFE5-.LFB5
 1223 0040 00000000 		.4byte	.LFB6
 1224 0044 18000000 		.4byte	.LFE6-.LFB6
 1225 0048 00000000 		.4byte	.LFB7
 1226 004c 18000000 		.4byte	.LFE7-.LFB7
 1227 0050 00000000 		.4byte	.LFB8
 1228 0054 20000000 		.4byte	.LFE8-.LFB8
 1229 0058 00000000 		.4byte	.LFB9
 1230 005c 18000000 		.4byte	.LFE9-.LFB9
 1231 0060 00000000 		.4byte	.LFB10
 1232 0064 24000000 		.4byte	.LFE10-.LFB10
 1233 0068 00000000 		.4byte	.LFB11
 1234 006c 18000000 		.4byte	.LFE11-.LFB11
 1235 0070 00000000 		.4byte	.LFB12
 1236 0074 20000000 		.4byte	.LFE12-.LFB12
 1237 0078 00000000 		.4byte	.LFB13
 1238 007c 20000000 		.4byte	.LFE13-.LFB13
 1239 0080 00000000 		.4byte	0
 1240 0084 00000000 		.4byte	0
 1241              		.section	.debug_ranges,"",%progbits
 1242              	.Ldebug_ranges0:
ARM GAS  C:\Users\ylee818\AppData\Local\Temp\ccP11hT1.s 			page 32


 1243 0000 00000000 		.4byte	.LFB0
 1244 0004 9C000000 		.4byte	.LFE0
 1245 0008 00000000 		.4byte	.LFB1
 1246 000c 48000000 		.4byte	.LFE1
 1247 0010 00000000 		.4byte	.LFB2
 1248 0014 24000000 		.4byte	.LFE2
 1249 0018 00000000 		.4byte	.LFB3
 1250 001c 48000000 		.4byte	.LFE3
 1251 0020 00000000 		.4byte	.LFB4
 1252 0024 20000000 		.4byte	.LFE4
 1253 0028 00000000 		.4byte	.LFB5
 1254 002c 14000000 		.4byte	.LFE5
 1255 0030 00000000 		.4byte	.LFB6
 1256 0034 18000000 		.4byte	.LFE6
 1257 0038 00000000 		.4byte	.LFB7
 1258 003c 18000000 		.4byte	.LFE7
 1259 0040 00000000 		.4byte	.LFB8
 1260 0044 20000000 		.4byte	.LFE8
 1261 0048 00000000 		.4byte	.LFB9
 1262 004c 18000000 		.4byte	.LFE9
 1263 0050 00000000 		.4byte	.LFB10
 1264 0054 24000000 		.4byte	.LFE10
 1265 0058 00000000 		.4byte	.LFB11
 1266 005c 18000000 		.4byte	.LFE11
 1267 0060 00000000 		.4byte	.LFB12
 1268 0064 20000000 		.4byte	.LFE12
 1269 0068 00000000 		.4byte	.LFB13
 1270 006c 20000000 		.4byte	.LFE13
 1271 0070 00000000 		.4byte	0
 1272 0074 00000000 		.4byte	0
 1273              		.section	.debug_line,"",%progbits
 1274              	.Ldebug_line0:
 1275 0000 5C010000 		.section	.debug_str,"MS",%progbits,1
 1275      02004500 
 1275      00000201 
 1275      FB0E0D00 
 1275      01010101 
 1276              	.LASF15:
 1277 0000 72656731 		.ascii	"reg16\000"
 1277      3600
 1278              	.LASF36:
 1279 0006 474E5520 		.ascii	"GNU C11 5.4.1 20160609 (release) [ARM/embedded-5-br"
 1279      43313120 
 1279      352E342E 
 1279      31203230 
 1279      31363036 
 1280 0039 616E6368 		.ascii	"anch revision 237715] -mcpu=cortex-m3 -mthumb -g -O"
 1280      20726576 
 1280      6973696F 
 1280      6E203233 
 1280      37373135 
 1281 006c 30202D66 		.ascii	"0 -ffunction-sections -ffat-lto-objects\000"
 1281      66756E63 
 1281      74696F6E 
 1281      2D736563 
 1281      74696F6E 
 1282              	.LASF31:
ARM GAS  C:\Users\ylee818\AppData\Local\Temp\ccP11hT1.s 			page 33


 1283 0094 70657269 		.ascii	"period\000"
 1283      6F6400
 1284              	.LASF3:
 1285 009b 73686F72 		.ascii	"short unsigned int\000"
 1285      7420756E 
 1285      7369676E 
 1285      65642069 
 1285      6E7400
 1286              	.LASF19:
 1287 00ae 54696D65 		.ascii	"Timer_TS_Enable\000"
 1287      725F5453 
 1287      5F456E61 
 1287      626C6500 
 1288              	.LASF37:
 1289 00be 47656E65 		.ascii	"Generated_Source\\PSoC5\\Timer_TS.c\000"
 1289      72617465 
 1289      645F536F 
 1289      75726365 
 1289      5C50536F 
 1290              	.LASF26:
 1291 00e0 54696D65 		.ascii	"Timer_TS_WriteControlRegister\000"
 1291      725F5453 
 1291      5F577269 
 1291      7465436F 
 1291      6E74726F 
 1292              	.LASF30:
 1293 00fe 54696D65 		.ascii	"Timer_TS_WritePeriod\000"
 1293      725F5453 
 1293      5F577269 
 1293      74655065 
 1293      72696F64 
 1294              	.LASF11:
 1295 0113 666C6F61 		.ascii	"float\000"
 1295      7400
 1296              	.LASF34:
 1297 0119 636F756E 		.ascii	"counter\000"
 1297      74657200 
 1298              	.LASF20:
 1299 0121 54696D65 		.ascii	"Timer_TS_Start\000"
 1299      725F5453 
 1299      5F537461 
 1299      727400
 1300              	.LASF1:
 1301 0130 756E7369 		.ascii	"unsigned char\000"
 1301      676E6564 
 1301      20636861 
 1301      7200
 1302              	.LASF14:
 1303 013e 72656738 		.ascii	"reg8\000"
 1303      00
 1304              	.LASF5:
 1305 0143 6C6F6E67 		.ascii	"long unsigned int\000"
 1305      20756E73 
 1305      69676E65 
 1305      6420696E 
 1305      7400
 1306              	.LASF22:
ARM GAS  C:\Users\ylee818\AppData\Local\Temp\ccP11hT1.s 			page 34


 1307 0155 54696D65 		.ascii	"Timer_TS_SoftwareCapture\000"
 1307      725F5453 
 1307      5F536F66 
 1307      74776172 
 1307      65436170 
 1308              	.LASF9:
 1309 016e 75696E74 		.ascii	"uint8\000"
 1309      3800
 1310              	.LASF28:
 1311 0174 636F6E74 		.ascii	"control\000"
 1311      726F6C00 
 1312              	.LASF18:
 1313 017c 54696D65 		.ascii	"Timer_TS_Init\000"
 1313      725F5453 
 1313      5F496E69 
 1313      7400
 1314              	.LASF25:
 1315 018a 54696D65 		.ascii	"Timer_TS_SetInterruptMode\000"
 1315      725F5453 
 1315      5F536574 
 1315      496E7465 
 1315      72727570 
 1316              	.LASF12:
 1317 01a4 646F7562 		.ascii	"double\000"
 1317      6C6500
 1318              	.LASF24:
 1319 01ab 54696D65 		.ascii	"Timer_TS_ReadControlRegister\000"
 1319      725F5453 
 1319      5F526561 
 1319      64436F6E 
 1319      74726F6C 
 1320              	.LASF10:
 1321 01c8 75696E74 		.ascii	"uint16\000"
 1321      313600
 1322              	.LASF8:
 1323 01cf 756E7369 		.ascii	"unsigned int\000"
 1323      676E6564 
 1323      20696E74 
 1323      00
 1324              	.LASF7:
 1325 01dc 6C6F6E67 		.ascii	"long long unsigned int\000"
 1325      206C6F6E 
 1325      6720756E 
 1325      7369676E 
 1325      65642069 
 1326              	.LASF29:
 1327 01f3 54696D65 		.ascii	"Timer_TS_ReadPeriod\000"
 1327      725F5453 
 1327      5F526561 
 1327      64506572 
 1327      696F6400 
 1328              	.LASF39:
 1329 0207 70657269 		.ascii	"period_temp\000"
 1329      6F645F74 
 1329      656D7000 
 1330              	.LASF17:
 1331 0213 73697A65 		.ascii	"sizetype\000"
ARM GAS  C:\Users\ylee818\AppData\Local\Temp\ccP11hT1.s 			page 35


 1331      74797065 
 1331      00
 1332              	.LASF6:
 1333 021c 6C6F6E67 		.ascii	"long long int\000"
 1333      206C6F6E 
 1333      6720696E 
 1333      7400
 1334              	.LASF27:
 1335 022a 696E7465 		.ascii	"interruptMode\000"
 1335      72727570 
 1335      744D6F64 
 1335      6500
 1336              	.LASF21:
 1337 0238 54696D65 		.ascii	"Timer_TS_Stop\000"
 1337      725F5453 
 1337      5F53746F 
 1337      7000
 1338              	.LASF32:
 1339 0246 54696D65 		.ascii	"Timer_TS_ReadCapture\000"
 1339      725F5453 
 1339      5F526561 
 1339      64436170 
 1339      74757265 
 1340              	.LASF2:
 1341 025b 73686F72 		.ascii	"short int\000"
 1341      7420696E 
 1341      7400
 1342              	.LASF23:
 1343 0265 54696D65 		.ascii	"Timer_TS_ReadStatusRegister\000"
 1343      725F5453 
 1343      5F526561 
 1343      64537461 
 1343      74757352 
 1344              	.LASF4:
 1345 0281 6C6F6E67 		.ascii	"long int\000"
 1345      20696E74 
 1345      00
 1346              	.LASF13:
 1347 028a 63686172 		.ascii	"char\000"
 1347      00
 1348              	.LASF16:
 1349 028f 6C6F6E67 		.ascii	"long double\000"
 1349      20646F75 
 1349      626C6500 
 1350              	.LASF0:
 1351 029b 7369676E 		.ascii	"signed char\000"
 1351      65642063 
 1351      68617200 
 1352              	.LASF35:
 1353 02a7 54696D65 		.ascii	"Timer_TS_ReadCounter\000"
 1353      725F5453 
 1353      5F526561 
 1353      64436F75 
 1353      6E746572 
 1354              	.LASF38:
 1355 02bc 433A5C55 		.ascii	"C:\\Users\\ylee818\\Documents\\GitHub\\COMPSYS301\\"
 1355      73657273 
ARM GAS  C:\Users\ylee818\AppData\Local\Temp\ccP11hT1.s 			page 36


 1355      5C796C65 
 1355      65383138 
 1355      5C446F63 
 1356 02e9 42656E63 		.ascii	"Benchmarktest___combined\\Benchmarktest___combined\\"
 1356      686D6172 
 1356      6B746573 
 1356      745F5F5F 
 1356      636F6D62 
 1357 031b 70736F63 		.ascii	"psoc student pack\\psoc_code_base\\CS301_Class.cyds"
 1357      20737475 
 1357      64656E74 
 1357      20706163 
 1357      6B5C7073 
 1358 034c 6E00     		.ascii	"n\000"
 1359              	.LASF40:
 1360 034e 54696D65 		.ascii	"Timer_TS_initVar\000"
 1360      725F5453 
 1360      5F696E69 
 1360      74566172 
 1360      00
 1361              	.LASF33:
 1362 035f 54696D65 		.ascii	"Timer_TS_WriteCounter\000"
 1362      725F5453 
 1362      5F577269 
 1362      7465436F 
 1362      756E7465 
 1363              		.ident	"GCC: (GNU Tools for ARM Embedded Processors) 5.4.1 20160609 (release) [ARM/embedded-5-bran
