ARM GAS  C:\Users\ylee818\AppData\Local\Temp\ccP11hT1.s 			page 1


   1              		.syntax unified
   2              		.cpu cortex-m3
   3              		.fpu softvfp
   4              		.eabi_attribute 20, 1
   5              		.eabi_attribute 21, 1
   6              		.eabi_attribute 23, 3
   7              		.eabi_attribute 24, 1
   8              		.eabi_attribute 25, 1
   9              		.eabi_attribute 26, 1
  10              		.eabi_attribute 30, 6
  11              		.eabi_attribute 34, 1
  12              		.eabi_attribute 18, 4
  13              		.thumb
  14              		.syntax unified
  15              		.file	"Timer_TS.c"
  16              		.text
  17              	.Ltext0:
  18              		.cfi_sections	.debug_frame
  19              		.global	Timer_TS_initVar
  20              		.bss
  21              		.type	Timer_TS_initVar, %object
  22              		.size	Timer_TS_initVar, 1
  23              	Timer_TS_initVar:
  24 0000 00       		.space	1
  25              		.section	.text.Timer_TS_Init,"ax",%progbits
  26              		.align	2
  27              		.global	Timer_TS_Init
  28              		.thumb
  29              		.thumb_func
  30              		.type	Timer_TS_Init, %function
  31              	Timer_TS_Init:
  32              	.LFB0:
  33              		.file 1 "Generated_Source\\PSoC5\\Timer_TS.c"
   1:Generated_Source\PSoC5/Timer_TS.c **** /*******************************************************************************
   2:Generated_Source\PSoC5/Timer_TS.c **** * File Name: Timer_TS.c
   3:Generated_Source\PSoC5/Timer_TS.c **** * Version 2.80
   4:Generated_Source\PSoC5/Timer_TS.c **** *
   5:Generated_Source\PSoC5/Timer_TS.c **** * Description:
   6:Generated_Source\PSoC5/Timer_TS.c **** *  The Timer component consists of a 8, 16, 24 or 32-bit timer with
   7:Generated_Source\PSoC5/Timer_TS.c **** *  a selectable period between 2 and 2^Width - 1.  The timer may free run
   8:Generated_Source\PSoC5/Timer_TS.c **** *  or be used as a capture timer as well.  The capture can be initiated
   9:Generated_Source\PSoC5/Timer_TS.c **** *  by a positive or negative edge signal as well as via software.
  10:Generated_Source\PSoC5/Timer_TS.c **** *  A trigger input can be programmed to enable the timer on rising edge
  11:Generated_Source\PSoC5/Timer_TS.c **** *  falling edge, either edge or continous run.
  12:Generated_Source\PSoC5/Timer_TS.c **** *  Interrupts may be generated due to a terminal count condition
  13:Generated_Source\PSoC5/Timer_TS.c **** *  or a capture event.
  14:Generated_Source\PSoC5/Timer_TS.c **** *
  15:Generated_Source\PSoC5/Timer_TS.c **** * Note:
  16:Generated_Source\PSoC5/Timer_TS.c **** *
  17:Generated_Source\PSoC5/Timer_TS.c **** ********************************************************************************
  18:Generated_Source\PSoC5/Timer_TS.c **** * Copyright 2008-2017, Cypress Semiconductor Corporation.  All rights reserved.
  19:Generated_Source\PSoC5/Timer_TS.c **** * You may use this file only in accordance with the license, terms, conditions,
  20:Generated_Source\PSoC5/Timer_TS.c **** * disclaimers, and limitations in the end user license agreement accompanying
  21:Generated_Source\PSoC5/Timer_TS.c **** * the software package with which this file was provided.
  22:Generated_Source\PSoC5/Timer_TS.c **** ********************************************************************************/
  23:Generated_Source\PSoC5/Timer_TS.c **** 
  24:Generated_Source\PSoC5/Timer_TS.c **** #include "Timer_TS.h"
ARM GAS  C:\Users\ylee818\AppData\Local\Temp\ccP11hT1.s 			page 2


  25:Generated_Source\PSoC5/Timer_TS.c **** 
  26:Generated_Source\PSoC5/Timer_TS.c **** uint8 Timer_TS_initVar = 0u;
  27:Generated_Source\PSoC5/Timer_TS.c **** 
  28:Generated_Source\PSoC5/Timer_TS.c **** 
  29:Generated_Source\PSoC5/Timer_TS.c **** /*******************************************************************************
  30:Generated_Source\PSoC5/Timer_TS.c **** * Function Name: Timer_TS_Init
  31:Generated_Source\PSoC5/Timer_TS.c **** ********************************************************************************
  32:Generated_Source\PSoC5/Timer_TS.c **** *
  33:Generated_Source\PSoC5/Timer_TS.c **** * Summary:
  34:Generated_Source\PSoC5/Timer_TS.c **** *  Initialize to the schematic state
  35:Generated_Source\PSoC5/Timer_TS.c **** *
  36:Generated_Source\PSoC5/Timer_TS.c **** * Parameters:
  37:Generated_Source\PSoC5/Timer_TS.c **** *  void
  38:Generated_Source\PSoC5/Timer_TS.c **** *
  39:Generated_Source\PSoC5/Timer_TS.c **** * Return:
  40:Generated_Source\PSoC5/Timer_TS.c **** *  void
  41:Generated_Source\PSoC5/Timer_TS.c **** *
  42:Generated_Source\PSoC5/Timer_TS.c **** *******************************************************************************/
  43:Generated_Source\PSoC5/Timer_TS.c **** void Timer_TS_Init(void) 
  44:Generated_Source\PSoC5/Timer_TS.c **** {
  34              		.loc 1 44 0
  35              		.cfi_startproc
  36              		@ args = 0, pretend = 0, frame = 0
  37              		@ frame_needed = 1, uses_anonymous_args = 0
  38 0000 80B5     		push	{r7, lr}
  39              		.cfi_def_cfa_offset 8
  40              		.cfi_offset 7, -8
  41              		.cfi_offset 14, -4
  42 0002 00AF     		add	r7, sp, #0
  43              		.cfi_def_cfa_register 7
  45:Generated_Source\PSoC5/Timer_TS.c ****     #if(!Timer_TS_UsingFixedFunction)
  46:Generated_Source\PSoC5/Timer_TS.c ****             /* Interrupt State Backup for Critical Region*/
  47:Generated_Source\PSoC5/Timer_TS.c ****             uint8 Timer_TS_interruptState;
  48:Generated_Source\PSoC5/Timer_TS.c ****     #endif /* Interrupt state back up for Fixed Function only */
  49:Generated_Source\PSoC5/Timer_TS.c **** 
  50:Generated_Source\PSoC5/Timer_TS.c ****     #if (Timer_TS_UsingFixedFunction)
  51:Generated_Source\PSoC5/Timer_TS.c ****         /* Clear all bits but the enable bit (if it's already set) for Timer operation */
  52:Generated_Source\PSoC5/Timer_TS.c ****         Timer_TS_CONTROL &= Timer_TS_CTRL_ENABLE;
  44              		.loc 1 52 0
  45 0004 214A     		ldr	r2, .L2
  46 0006 214B     		ldr	r3, .L2
  47 0008 1B78     		ldrb	r3, [r3]
  48 000a DBB2     		uxtb	r3, r3
  49 000c 03F00103 		and	r3, r3, #1
  50 0010 DBB2     		uxtb	r3, r3
  51 0012 1370     		strb	r3, [r2]
  53:Generated_Source\PSoC5/Timer_TS.c **** 
  54:Generated_Source\PSoC5/Timer_TS.c ****         /* Clear the mode bits for continuous run mode */
  55:Generated_Source\PSoC5/Timer_TS.c ****         #if (CY_PSOC5A)
  56:Generated_Source\PSoC5/Timer_TS.c ****             Timer_TS_CONTROL2 &= ((uint8)(~Timer_TS_CTRL_MODE_MASK));
  57:Generated_Source\PSoC5/Timer_TS.c ****         #endif /* Clear bits in CONTROL2 only in PSOC5A */
  58:Generated_Source\PSoC5/Timer_TS.c **** 
  59:Generated_Source\PSoC5/Timer_TS.c ****         #if (CY_PSOC3 || CY_PSOC5LP)
  60:Generated_Source\PSoC5/Timer_TS.c ****             Timer_TS_CONTROL3 &= ((uint8)(~Timer_TS_CTRL_MODE_MASK));
  52              		.loc 1 60 0
  53 0014 1E4A     		ldr	r2, .L2+4
  54 0016 1E4B     		ldr	r3, .L2+4
ARM GAS  C:\Users\ylee818\AppData\Local\Temp\ccP11hT1.s 			page 3


  55 0018 1B78     		ldrb	r3, [r3]
  56 001a DBB2     		uxtb	r3, r3
  57 001c 23F00303 		bic	r3, r3, #3
  58 0020 DBB2     		uxtb	r3, r3
  59 0022 1370     		strb	r3, [r2]
  61:Generated_Source\PSoC5/Timer_TS.c ****         #endif /* CONTROL3 register exists only in PSoC3 OR PSoC5LP */
  62:Generated_Source\PSoC5/Timer_TS.c **** 
  63:Generated_Source\PSoC5/Timer_TS.c ****         /* Check if One Shot mode is enabled i.e. RunMode !=0*/
  64:Generated_Source\PSoC5/Timer_TS.c ****         #if (Timer_TS_RunModeUsed != 0x0u)
  65:Generated_Source\PSoC5/Timer_TS.c ****             /* Set 3rd bit of Control register to enable one shot mode */
  66:Generated_Source\PSoC5/Timer_TS.c ****             Timer_TS_CONTROL |= 0x04u;
  67:Generated_Source\PSoC5/Timer_TS.c ****         #endif /* One Shot enabled only when RunModeUsed is not Continuous*/
  68:Generated_Source\PSoC5/Timer_TS.c **** 
  69:Generated_Source\PSoC5/Timer_TS.c ****         #if (Timer_TS_RunModeUsed == 2)
  70:Generated_Source\PSoC5/Timer_TS.c ****             #if (CY_PSOC5A)
  71:Generated_Source\PSoC5/Timer_TS.c ****                 /* Set last 2 bits of control2 register if one shot(halt on
  72:Generated_Source\PSoC5/Timer_TS.c ****                 interrupt) is enabled*/
  73:Generated_Source\PSoC5/Timer_TS.c ****                 Timer_TS_CONTROL2 |= 0x03u;
  74:Generated_Source\PSoC5/Timer_TS.c ****             #endif /* Set One-Shot Halt on Interrupt bit in CONTROL2 for PSoC5A */
  75:Generated_Source\PSoC5/Timer_TS.c **** 
  76:Generated_Source\PSoC5/Timer_TS.c ****             #if (CY_PSOC3 || CY_PSOC5LP)
  77:Generated_Source\PSoC5/Timer_TS.c ****                 /* Set last 2 bits of control3 register if one shot(halt on
  78:Generated_Source\PSoC5/Timer_TS.c ****                 interrupt) is enabled*/
  79:Generated_Source\PSoC5/Timer_TS.c ****                 Timer_TS_CONTROL3 |= 0x03u;
  80:Generated_Source\PSoC5/Timer_TS.c ****             #endif /* Set One-Shot Halt on Interrupt bit in CONTROL3 for PSoC3 or PSoC5LP */
  81:Generated_Source\PSoC5/Timer_TS.c **** 
  82:Generated_Source\PSoC5/Timer_TS.c ****         #endif /* Remove section if One Shot Halt on Interrupt is not enabled */
  83:Generated_Source\PSoC5/Timer_TS.c **** 
  84:Generated_Source\PSoC5/Timer_TS.c ****         #if (Timer_TS_UsingHWEnable != 0)
  85:Generated_Source\PSoC5/Timer_TS.c ****             #if (CY_PSOC5A)
  86:Generated_Source\PSoC5/Timer_TS.c ****                 /* Set the default Run Mode of the Timer to Continuous */
  87:Generated_Source\PSoC5/Timer_TS.c ****                 Timer_TS_CONTROL2 |= Timer_TS_CTRL_MODE_PULSEWIDTH;
  88:Generated_Source\PSoC5/Timer_TS.c ****             #endif /* Set Continuous Run Mode in CONTROL2 for PSoC5A */
  89:Generated_Source\PSoC5/Timer_TS.c **** 
  90:Generated_Source\PSoC5/Timer_TS.c ****             #if (CY_PSOC3 || CY_PSOC5LP)
  91:Generated_Source\PSoC5/Timer_TS.c ****                 /* Clear and Set ROD and COD bits of CFG2 register */
  92:Generated_Source\PSoC5/Timer_TS.c ****                 Timer_TS_CONTROL3 &= ((uint8)(~Timer_TS_CTRL_RCOD_MASK));
  93:Generated_Source\PSoC5/Timer_TS.c ****                 Timer_TS_CONTROL3 |= Timer_TS_CTRL_RCOD;
  94:Generated_Source\PSoC5/Timer_TS.c **** 
  95:Generated_Source\PSoC5/Timer_TS.c ****                 /* Clear and Enable the HW enable bit in CFG2 register */
  96:Generated_Source\PSoC5/Timer_TS.c ****                 Timer_TS_CONTROL3 &= ((uint8)(~Timer_TS_CTRL_ENBL_MASK));
  97:Generated_Source\PSoC5/Timer_TS.c ****                 Timer_TS_CONTROL3 |= Timer_TS_CTRL_ENBL;
  98:Generated_Source\PSoC5/Timer_TS.c **** 
  99:Generated_Source\PSoC5/Timer_TS.c ****                 /* Set the default Run Mode of the Timer to Continuous */
 100:Generated_Source\PSoC5/Timer_TS.c ****                 Timer_TS_CONTROL3 |= Timer_TS_CTRL_MODE_CONTINUOUS;
 101:Generated_Source\PSoC5/Timer_TS.c ****             #endif /* Set Continuous Run Mode in CONTROL3 for PSoC3ES3 or PSoC5A */
 102:Generated_Source\PSoC5/Timer_TS.c **** 
 103:Generated_Source\PSoC5/Timer_TS.c ****         #endif /* Configure Run Mode with hardware enable */
 104:Generated_Source\PSoC5/Timer_TS.c **** 
 105:Generated_Source\PSoC5/Timer_TS.c ****         /* Clear and Set SYNCTC and SYNCCMP bits of RT1 register */
 106:Generated_Source\PSoC5/Timer_TS.c ****         Timer_TS_RT1 &= ((uint8)(~Timer_TS_RT1_MASK));
  60              		.loc 1 106 0
  61 0024 1B4A     		ldr	r2, .L2+8
  62 0026 1B4B     		ldr	r3, .L2+8
  63 0028 1B78     		ldrb	r3, [r3]
  64 002a DBB2     		uxtb	r3, r3
  65 002c 23F03003 		bic	r3, r3, #48
ARM GAS  C:\Users\ylee818\AppData\Local\Temp\ccP11hT1.s 			page 4


  66 0030 DBB2     		uxtb	r3, r3
  67 0032 1370     		strb	r3, [r2]
 107:Generated_Source\PSoC5/Timer_TS.c ****         Timer_TS_RT1 |= Timer_TS_SYNC;
  68              		.loc 1 107 0
  69 0034 174A     		ldr	r2, .L2+8
  70 0036 174B     		ldr	r3, .L2+8
  71 0038 1B78     		ldrb	r3, [r3]
  72 003a DBB2     		uxtb	r3, r3
  73 003c 43F03003 		orr	r3, r3, #48
  74 0040 DBB2     		uxtb	r3, r3
  75 0042 1370     		strb	r3, [r2]
 108:Generated_Source\PSoC5/Timer_TS.c **** 
 109:Generated_Source\PSoC5/Timer_TS.c ****         /*Enable DSI Sync all all inputs of the Timer*/
 110:Generated_Source\PSoC5/Timer_TS.c ****         Timer_TS_RT1 &= ((uint8)(~Timer_TS_SYNCDSI_MASK));
  76              		.loc 1 110 0
  77 0044 134A     		ldr	r2, .L2+8
  78 0046 134B     		ldr	r3, .L2+8
  79 0048 1B78     		ldrb	r3, [r3]
  80 004a DBB2     		uxtb	r3, r3
  81 004c 23F00F03 		bic	r3, r3, #15
  82 0050 DBB2     		uxtb	r3, r3
  83 0052 1370     		strb	r3, [r2]
 111:Generated_Source\PSoC5/Timer_TS.c ****         Timer_TS_RT1 |= Timer_TS_SYNCDSI_EN;
  84              		.loc 1 111 0
  85 0054 0F4A     		ldr	r2, .L2+8
  86 0056 0F4B     		ldr	r3, .L2+8
  87 0058 1B78     		ldrb	r3, [r3]
  88 005a DBB2     		uxtb	r3, r3
  89 005c 43F00F03 		orr	r3, r3, #15
  90 0060 DBB2     		uxtb	r3, r3
  91 0062 1370     		strb	r3, [r2]
 112:Generated_Source\PSoC5/Timer_TS.c **** 
 113:Generated_Source\PSoC5/Timer_TS.c ****         /* Set the IRQ to use the status register interrupts */
 114:Generated_Source\PSoC5/Timer_TS.c ****         Timer_TS_CONTROL2 |= Timer_TS_CTRL2_IRQ_SEL;
  92              		.loc 1 114 0
  93 0064 0C4A     		ldr	r2, .L2+12
  94 0066 0C4B     		ldr	r3, .L2+12
  95 0068 1B78     		ldrb	r3, [r3]
  96 006a DBB2     		uxtb	r3, r3
  97 006c 43F00103 		orr	r3, r3, #1
  98 0070 DBB2     		uxtb	r3, r3
  99 0072 1370     		strb	r3, [r2]
 115:Generated_Source\PSoC5/Timer_TS.c ****     #endif /* Configuring registers of fixed function implementation */
 116:Generated_Source\PSoC5/Timer_TS.c **** 
 117:Generated_Source\PSoC5/Timer_TS.c ****     /* Set Initial values from Configuration */
 118:Generated_Source\PSoC5/Timer_TS.c ****     Timer_TS_WritePeriod(Timer_TS_INIT_PERIOD);
 100              		.loc 1 118 0
 101 0074 6320     		movs	r0, #99
 102 0076 FFF7FEFF 		bl	Timer_TS_WritePeriod
 119:Generated_Source\PSoC5/Timer_TS.c ****     Timer_TS_WriteCounter(Timer_TS_INIT_PERIOD);
 103              		.loc 1 119 0
 104 007a 6320     		movs	r0, #99
 105 007c FFF7FEFF 		bl	Timer_TS_WriteCounter
 120:Generated_Source\PSoC5/Timer_TS.c **** 
 121:Generated_Source\PSoC5/Timer_TS.c ****     #if (Timer_TS_UsingHWCaptureCounter)/* Capture counter is enabled */
 122:Generated_Source\PSoC5/Timer_TS.c ****         Timer_TS_CAPTURE_COUNT_CTRL |= Timer_TS_CNTR_ENABLE;
 123:Generated_Source\PSoC5/Timer_TS.c ****         Timer_TS_SetCaptureCount(Timer_TS_INIT_CAPTURE_COUNT);
ARM GAS  C:\Users\ylee818\AppData\Local\Temp\ccP11hT1.s 			page 5


 124:Generated_Source\PSoC5/Timer_TS.c ****     #endif /* Configure capture counter value */
 125:Generated_Source\PSoC5/Timer_TS.c **** 
 126:Generated_Source\PSoC5/Timer_TS.c ****     #if (!Timer_TS_UsingFixedFunction)
 127:Generated_Source\PSoC5/Timer_TS.c ****         #if (Timer_TS_SoftwareCaptureMode)
 128:Generated_Source\PSoC5/Timer_TS.c ****             Timer_TS_SetCaptureMode(Timer_TS_INIT_CAPTURE_MODE);
 129:Generated_Source\PSoC5/Timer_TS.c ****         #endif /* Set Capture Mode for UDB implementation if capture mode is software controlled */
 130:Generated_Source\PSoC5/Timer_TS.c **** 
 131:Generated_Source\PSoC5/Timer_TS.c ****         #if (Timer_TS_SoftwareTriggerMode)
 132:Generated_Source\PSoC5/Timer_TS.c ****             #if (!Timer_TS_UDB_CONTROL_REG_REMOVED)
 133:Generated_Source\PSoC5/Timer_TS.c ****                 if (0u == (Timer_TS_CONTROL & Timer_TS__B_TIMER__TM_SOFTWARE))
 134:Generated_Source\PSoC5/Timer_TS.c ****                 {
 135:Generated_Source\PSoC5/Timer_TS.c ****                     Timer_TS_SetTriggerMode(Timer_TS_INIT_TRIGGER_MODE);
 136:Generated_Source\PSoC5/Timer_TS.c ****                 }
 137:Generated_Source\PSoC5/Timer_TS.c ****             #endif /* (!Timer_TS_UDB_CONTROL_REG_REMOVED) */
 138:Generated_Source\PSoC5/Timer_TS.c ****         #endif /* Set trigger mode for UDB Implementation if trigger mode is software controlled */
 139:Generated_Source\PSoC5/Timer_TS.c **** 
 140:Generated_Source\PSoC5/Timer_TS.c ****         /* CyEnterCriticalRegion and CyExitCriticalRegion are used to mark following region critica
 141:Generated_Source\PSoC5/Timer_TS.c ****         /* Enter Critical Region*/
 142:Generated_Source\PSoC5/Timer_TS.c ****         Timer_TS_interruptState = CyEnterCriticalSection();
 143:Generated_Source\PSoC5/Timer_TS.c **** 
 144:Generated_Source\PSoC5/Timer_TS.c ****         /* Use the interrupt output of the status register for IRQ output */
 145:Generated_Source\PSoC5/Timer_TS.c ****         Timer_TS_STATUS_AUX_CTRL |= Timer_TS_STATUS_ACTL_INT_EN_MASK;
 146:Generated_Source\PSoC5/Timer_TS.c **** 
 147:Generated_Source\PSoC5/Timer_TS.c ****         /* Exit Critical Region*/
 148:Generated_Source\PSoC5/Timer_TS.c ****         CyExitCriticalSection(Timer_TS_interruptState);
 149:Generated_Source\PSoC5/Timer_TS.c **** 
 150:Generated_Source\PSoC5/Timer_TS.c ****         #if (Timer_TS_EnableTriggerMode)
 151:Generated_Source\PSoC5/Timer_TS.c ****             Timer_TS_EnableTrigger();
 152:Generated_Source\PSoC5/Timer_TS.c ****         #endif /* Set Trigger enable bit for UDB implementation in the control register*/
 153:Generated_Source\PSoC5/Timer_TS.c **** 		
 154:Generated_Source\PSoC5/Timer_TS.c **** 		
 155:Generated_Source\PSoC5/Timer_TS.c ****         #if (Timer_TS_InterruptOnCaptureCount && !Timer_TS_UDB_CONTROL_REG_REMOVED)
 156:Generated_Source\PSoC5/Timer_TS.c ****             Timer_TS_SetInterruptCount(Timer_TS_INIT_INT_CAPTURE_COUNT);
 157:Generated_Source\PSoC5/Timer_TS.c ****         #endif /* Set interrupt count in UDB implementation if interrupt count feature is checked.*
 158:Generated_Source\PSoC5/Timer_TS.c **** 
 159:Generated_Source\PSoC5/Timer_TS.c ****         Timer_TS_ClearFIFO();
 160:Generated_Source\PSoC5/Timer_TS.c ****     #endif /* Configure additional features of UDB implementation */
 161:Generated_Source\PSoC5/Timer_TS.c **** 
 162:Generated_Source\PSoC5/Timer_TS.c ****     Timer_TS_SetInterruptMode(Timer_TS_INIT_INTERRUPT_MODE);
 106              		.loc 1 162 0
 107 0080 0020     		movs	r0, #0
 108 0082 FFF7FEFF 		bl	Timer_TS_SetInterruptMode
 163:Generated_Source\PSoC5/Timer_TS.c **** }
 109              		.loc 1 163 0
 110 0086 00BF     		nop
 111 0088 80BD     		pop	{r7, pc}
 112              	.L3:
 113 008a 00BF     		.align	2
 114              	.L2:
 115 008c 244F0040 		.word	1073762084
 116 0090 264F0040 		.word	1073762086
 117 0094 2F4F0040 		.word	1073762095
 118 0098 254F0040 		.word	1073762085
 119              		.cfi_endproc
 120              	.LFE0:
 121              		.size	Timer_TS_Init, .-Timer_TS_Init
 122              		.section	.text.Timer_TS_Enable,"ax",%progbits
ARM GAS  C:\Users\ylee818\AppData\Local\Temp\ccP11hT1.s 			page 6


 123              		.align	2
 124              		.global	Timer_TS_Enable
 125              		.thumb
 126              		.thumb_func
 127              		.type	Timer_TS_Enable, %function
 128              	Timer_TS_Enable:
 129              	.LFB1:
 164:Generated_Source\PSoC5/Timer_TS.c **** 
 165:Generated_Source\PSoC5/Timer_TS.c **** 
 166:Generated_Source\PSoC5/Timer_TS.c **** /*******************************************************************************
 167:Generated_Source\PSoC5/Timer_TS.c **** * Function Name: Timer_TS_Enable
 168:Generated_Source\PSoC5/Timer_TS.c **** ********************************************************************************
 169:Generated_Source\PSoC5/Timer_TS.c **** *
 170:Generated_Source\PSoC5/Timer_TS.c **** * Summary:
 171:Generated_Source\PSoC5/Timer_TS.c **** *  Enable the Timer
 172:Generated_Source\PSoC5/Timer_TS.c **** *
 173:Generated_Source\PSoC5/Timer_TS.c **** * Parameters:
 174:Generated_Source\PSoC5/Timer_TS.c **** *  void
 175:Generated_Source\PSoC5/Timer_TS.c **** *
 176:Generated_Source\PSoC5/Timer_TS.c **** * Return:
 177:Generated_Source\PSoC5/Timer_TS.c **** *  void
 178:Generated_Source\PSoC5/Timer_TS.c **** *
 179:Generated_Source\PSoC5/Timer_TS.c **** *******************************************************************************/
 180:Generated_Source\PSoC5/Timer_TS.c **** void Timer_TS_Enable(void) 
 181:Generated_Source\PSoC5/Timer_TS.c **** {
 130              		.loc 1 181 0
 131              		.cfi_startproc
 132              		@ args = 0, pretend = 0, frame = 0
 133              		@ frame_needed = 1, uses_anonymous_args = 0
 134              		@ link register save eliminated.
 135 0000 80B4     		push	{r7}
 136              		.cfi_def_cfa_offset 4
 137              		.cfi_offset 7, -4
 138 0002 00AF     		add	r7, sp, #0
 139              		.cfi_def_cfa_register 7
 182:Generated_Source\PSoC5/Timer_TS.c ****     /* Globally Enable the Fixed Function Block chosen */
 183:Generated_Source\PSoC5/Timer_TS.c ****     #if (Timer_TS_UsingFixedFunction)
 184:Generated_Source\PSoC5/Timer_TS.c ****         Timer_TS_GLOBAL_ENABLE |= Timer_TS_BLOCK_EN_MASK;
 140              		.loc 1 184 0
 141 0004 0D4A     		ldr	r2, .L5
 142 0006 0D4B     		ldr	r3, .L5
 143 0008 1B78     		ldrb	r3, [r3]
 144 000a DBB2     		uxtb	r3, r3
 145 000c 43F00803 		orr	r3, r3, #8
 146 0010 DBB2     		uxtb	r3, r3
 147 0012 1370     		strb	r3, [r2]
 185:Generated_Source\PSoC5/Timer_TS.c ****         Timer_TS_GLOBAL_STBY_ENABLE |= Timer_TS_BLOCK_STBY_EN_MASK;
 148              		.loc 1 185 0
 149 0014 0A4A     		ldr	r2, .L5+4
 150 0016 0A4B     		ldr	r3, .L5+4
 151 0018 1B78     		ldrb	r3, [r3]
 152 001a DBB2     		uxtb	r3, r3
 153 001c 43F00803 		orr	r3, r3, #8
 154 0020 DBB2     		uxtb	r3, r3
 155 0022 1370     		strb	r3, [r2]
 186:Generated_Source\PSoC5/Timer_TS.c ****     #endif /* Set Enable bit for enabling Fixed function timer*/
 187:Generated_Source\PSoC5/Timer_TS.c **** 
ARM GAS  C:\Users\ylee818\AppData\Local\Temp\ccP11hT1.s 			page 7


 188:Generated_Source\PSoC5/Timer_TS.c ****     /* Remove assignment if control register is removed */
 189:Generated_Source\PSoC5/Timer_TS.c ****     #if (!Timer_TS_UDB_CONTROL_REG_REMOVED || Timer_TS_UsingFixedFunction)
 190:Generated_Source\PSoC5/Timer_TS.c ****         Timer_TS_CONTROL |= Timer_TS_CTRL_ENABLE;
 156              		.loc 1 190 0
 157 0024 074A     		ldr	r2, .L5+8
 158 0026 074B     		ldr	r3, .L5+8
 159 0028 1B78     		ldrb	r3, [r3]
 160 002a DBB2     		uxtb	r3, r3
 161 002c 43F00103 		orr	r3, r3, #1
 162 0030 DBB2     		uxtb	r3, r3
 163 0032 1370     		strb	r3, [r2]
 191:Generated_Source\PSoC5/Timer_TS.c ****     #endif /* Remove assignment if control register is removed */
 192:Generated_Source\PSoC5/Timer_TS.c **** }
 164              		.loc 1 192 0
 165 0034 00BF     		nop
 166 0036 BD46     		mov	sp, r7
 167              		.cfi_def_cfa_register 13
 168              		@ sp needed
 169 0038 80BC     		pop	{r7}
 170              		.cfi_restore 7
 171              		.cfi_def_cfa_offset 0
 172 003a 7047     		bx	lr
 173              	.L6:
 174              		.align	2
 175              	.L5:
 176 003c A3430040 		.word	1073759139
 177 0040 B3430040 		.word	1073759155
 178 0044 244F0040 		.word	1073762084
 179              		.cfi_endproc
 180              	.LFE1:
 181              		.size	Timer_TS_Enable, .-Timer_TS_Enable
 182              		.section	.text.Timer_TS_Start,"ax",%progbits
 183              		.align	2
 184              		.global	Timer_TS_Start
 185              		.thumb
 186              		.thumb_func
 187              		.type	Timer_TS_Start, %function
 188              	Timer_TS_Start:
 189              	.LFB2:
 193:Generated_Source\PSoC5/Timer_TS.c **** 
 194:Generated_Source\PSoC5/Timer_TS.c **** 
 195:Generated_Source\PSoC5/Timer_TS.c **** /*******************************************************************************
 196:Generated_Source\PSoC5/Timer_TS.c **** * Function Name: Timer_TS_Start
 197:Generated_Source\PSoC5/Timer_TS.c **** ********************************************************************************
 198:Generated_Source\PSoC5/Timer_TS.c **** *
 199:Generated_Source\PSoC5/Timer_TS.c **** * Summary:
 200:Generated_Source\PSoC5/Timer_TS.c **** *  The start function initializes the timer with the default values, the
 201:Generated_Source\PSoC5/Timer_TS.c **** *  enables the timerto begin counting.  It does not enable interrupts,
 202:Generated_Source\PSoC5/Timer_TS.c **** *  the EnableInt command should be called if interrupt generation is required.
 203:Generated_Source\PSoC5/Timer_TS.c **** *
 204:Generated_Source\PSoC5/Timer_TS.c **** * Parameters:
 205:Generated_Source\PSoC5/Timer_TS.c **** *  void
 206:Generated_Source\PSoC5/Timer_TS.c **** *
 207:Generated_Source\PSoC5/Timer_TS.c **** * Return:
 208:Generated_Source\PSoC5/Timer_TS.c **** *  void
 209:Generated_Source\PSoC5/Timer_TS.c **** *
 210:Generated_Source\PSoC5/Timer_TS.c **** * Global variables:
ARM GAS  C:\Users\ylee818\AppData\Local\Temp\ccP11hT1.s 			page 8


 211:Generated_Source\PSoC5/Timer_TS.c **** *  Timer_TS_initVar: Is modified when this function is called for the
 212:Generated_Source\PSoC5/Timer_TS.c **** *   first time. Is used to ensure that initialization happens only once.
 213:Generated_Source\PSoC5/Timer_TS.c **** *
 214:Generated_Source\PSoC5/Timer_TS.c **** *******************************************************************************/
 215:Generated_Source\PSoC5/Timer_TS.c **** void Timer_TS_Start(void) 
 216:Generated_Source\PSoC5/Timer_TS.c **** {
 190              		.loc 1 216 0
 191              		.cfi_startproc
 192              		@ args = 0, pretend = 0, frame = 0
 193              		@ frame_needed = 1, uses_anonymous_args = 0
 194 0000 80B5     		push	{r7, lr}
 195              		.cfi_def_cfa_offset 8
 196              		.cfi_offset 7, -8
 197              		.cfi_offset 14, -4
 198 0002 00AF     		add	r7, sp, #0
 199              		.cfi_def_cfa_register 7
 217:Generated_Source\PSoC5/Timer_TS.c ****     if(Timer_TS_initVar == 0u)
 200              		.loc 1 217 0
 201 0004 064B     		ldr	r3, .L9
 202 0006 1B78     		ldrb	r3, [r3]	@ zero_extendqisi2
 203 0008 002B     		cmp	r3, #0
 204 000a 04D1     		bne	.L8
 218:Generated_Source\PSoC5/Timer_TS.c ****     {
 219:Generated_Source\PSoC5/Timer_TS.c ****         Timer_TS_Init();
 205              		.loc 1 219 0
 206 000c FFF7FEFF 		bl	Timer_TS_Init
 220:Generated_Source\PSoC5/Timer_TS.c **** 
 221:Generated_Source\PSoC5/Timer_TS.c ****         Timer_TS_initVar = 1u;   /* Clear this bit for Initialization */
 207              		.loc 1 221 0
 208 0010 034B     		ldr	r3, .L9
 209 0012 0122     		movs	r2, #1
 210 0014 1A70     		strb	r2, [r3]
 211              	.L8:
 222:Generated_Source\PSoC5/Timer_TS.c ****     }
 223:Generated_Source\PSoC5/Timer_TS.c **** 
 224:Generated_Source\PSoC5/Timer_TS.c ****     /* Enable the Timer */
 225:Generated_Source\PSoC5/Timer_TS.c ****     Timer_TS_Enable();
 212              		.loc 1 225 0
 213 0016 FFF7FEFF 		bl	Timer_TS_Enable
 226:Generated_Source\PSoC5/Timer_TS.c **** }
 214              		.loc 1 226 0
 215 001a 00BF     		nop
 216 001c 80BD     		pop	{r7, pc}
 217              	.L10:
 218 001e 00BF     		.align	2
 219              	.L9:
 220 0020 00000000 		.word	Timer_TS_initVar
 221              		.cfi_endproc
 222              	.LFE2:
 223              		.size	Timer_TS_Start, .-Timer_TS_Start
 224              		.section	.text.Timer_TS_Stop,"ax",%progbits
 225              		.align	2
 226              		.global	Timer_TS_Stop
 227              		.thumb
 228              		.thumb_func
 229              		.type	Timer_TS_Stop, %function
 230              	Timer_TS_Stop:
ARM GAS  C:\Users\ylee818\AppData\Local\Temp\ccP11hT1.s 			page 9


 231              	.LFB3:
 227:Generated_Source\PSoC5/Timer_TS.c **** 
 228:Generated_Source\PSoC5/Timer_TS.c **** 
 229:Generated_Source\PSoC5/Timer_TS.c **** /*******************************************************************************
 230:Generated_Source\PSoC5/Timer_TS.c **** * Function Name: Timer_TS_Stop
 231:Generated_Source\PSoC5/Timer_TS.c **** ********************************************************************************
 232:Generated_Source\PSoC5/Timer_TS.c **** *
 233:Generated_Source\PSoC5/Timer_TS.c **** * Summary:
 234:Generated_Source\PSoC5/Timer_TS.c **** *  The stop function halts the timer, but does not change any modes or disable
 235:Generated_Source\PSoC5/Timer_TS.c **** *  interrupts.
 236:Generated_Source\PSoC5/Timer_TS.c **** *
 237:Generated_Source\PSoC5/Timer_TS.c **** * Parameters:
 238:Generated_Source\PSoC5/Timer_TS.c **** *  void
 239:Generated_Source\PSoC5/Timer_TS.c **** *
 240:Generated_Source\PSoC5/Timer_TS.c **** * Return:
 241:Generated_Source\PSoC5/Timer_TS.c **** *  void
 242:Generated_Source\PSoC5/Timer_TS.c **** *
 243:Generated_Source\PSoC5/Timer_TS.c **** * Side Effects: If the Enable mode is set to Hardware only then this function
 244:Generated_Source\PSoC5/Timer_TS.c **** *               has no effect on the operation of the timer.
 245:Generated_Source\PSoC5/Timer_TS.c **** *
 246:Generated_Source\PSoC5/Timer_TS.c **** *******************************************************************************/
 247:Generated_Source\PSoC5/Timer_TS.c **** void Timer_TS_Stop(void) 
 248:Generated_Source\PSoC5/Timer_TS.c **** {
 232              		.loc 1 248 0
 233              		.cfi_startproc
 234              		@ args = 0, pretend = 0, frame = 0
 235              		@ frame_needed = 1, uses_anonymous_args = 0
 236              		@ link register save eliminated.
 237 0000 80B4     		push	{r7}
 238              		.cfi_def_cfa_offset 4
 239              		.cfi_offset 7, -4
 240 0002 00AF     		add	r7, sp, #0
 241              		.cfi_def_cfa_register 7
 249:Generated_Source\PSoC5/Timer_TS.c ****     /* Disable Timer */
 250:Generated_Source\PSoC5/Timer_TS.c ****     #if(!Timer_TS_UDB_CONTROL_REG_REMOVED || Timer_TS_UsingFixedFunction)
 251:Generated_Source\PSoC5/Timer_TS.c ****         Timer_TS_CONTROL &= ((uint8)(~Timer_TS_CTRL_ENABLE));
 242              		.loc 1 251 0
 243 0004 0D4A     		ldr	r2, .L12
 244 0006 0D4B     		ldr	r3, .L12
 245 0008 1B78     		ldrb	r3, [r3]
 246 000a DBB2     		uxtb	r3, r3
 247 000c 23F00103 		bic	r3, r3, #1
 248 0010 DBB2     		uxtb	r3, r3
 249 0012 1370     		strb	r3, [r2]
 252:Generated_Source\PSoC5/Timer_TS.c ****     #endif /* Remove assignment if control register is removed */
 253:Generated_Source\PSoC5/Timer_TS.c **** 
 254:Generated_Source\PSoC5/Timer_TS.c ****     /* Globally disable the Fixed Function Block chosen */
 255:Generated_Source\PSoC5/Timer_TS.c ****     #if (Timer_TS_UsingFixedFunction)
 256:Generated_Source\PSoC5/Timer_TS.c ****         Timer_TS_GLOBAL_ENABLE &= ((uint8)(~Timer_TS_BLOCK_EN_MASK));
 250              		.loc 1 256 0
 251 0014 0A4A     		ldr	r2, .L12+4
 252 0016 0A4B     		ldr	r3, .L12+4
 253 0018 1B78     		ldrb	r3, [r3]
 254 001a DBB2     		uxtb	r3, r3
 255 001c 23F00803 		bic	r3, r3, #8
 256 0020 DBB2     		uxtb	r3, r3
 257 0022 1370     		strb	r3, [r2]
ARM GAS  C:\Users\ylee818\AppData\Local\Temp\ccP11hT1.s 			page 10


 257:Generated_Source\PSoC5/Timer_TS.c ****         Timer_TS_GLOBAL_STBY_ENABLE &= ((uint8)(~Timer_TS_BLOCK_STBY_EN_MASK));
 258              		.loc 1 257 0
 259 0024 074A     		ldr	r2, .L12+8
 260 0026 074B     		ldr	r3, .L12+8
 261 0028 1B78     		ldrb	r3, [r3]
 262 002a DBB2     		uxtb	r3, r3
 263 002c 23F00803 		bic	r3, r3, #8
 264 0030 DBB2     		uxtb	r3, r3
 265 0032 1370     		strb	r3, [r2]
 258:Generated_Source\PSoC5/Timer_TS.c ****     #endif /* Disable global enable for the Timer Fixed function block to stop the Timer*/
 259:Generated_Source\PSoC5/Timer_TS.c **** }
 266              		.loc 1 259 0
 267 0034 00BF     		nop
 268 0036 BD46     		mov	sp, r7
 269              		.cfi_def_cfa_register 13
 270              		@ sp needed
 271 0038 80BC     		pop	{r7}
 272              		.cfi_restore 7
 273              		.cfi_def_cfa_offset 0
 274 003a 7047     		bx	lr
 275              	.L13:
 276              		.align	2
 277              	.L12:
 278 003c 244F0040 		.word	1073762084
 279 0040 A3430040 		.word	1073759139
 280 0044 B3430040 		.word	1073759155
 281              		.cfi_endproc
 282              	.LFE3:
 283              		.size	Timer_TS_Stop, .-Timer_TS_Stop
 284              		.section	.text.Timer_TS_SetInterruptMode,"ax",%progbits
 285              		.align	2
 286              		.global	Timer_TS_SetInterruptMode
 287              		.thumb
 288              		.thumb_func
 289              		.type	Timer_TS_SetInterruptMode, %function
 290              	Timer_TS_SetInterruptMode:
 291              	.LFB4:
 260:Generated_Source\PSoC5/Timer_TS.c **** 
 261:Generated_Source\PSoC5/Timer_TS.c **** 
 262:Generated_Source\PSoC5/Timer_TS.c **** /*******************************************************************************
 263:Generated_Source\PSoC5/Timer_TS.c **** * Function Name: Timer_TS_SetInterruptMode
 264:Generated_Source\PSoC5/Timer_TS.c **** ********************************************************************************
 265:Generated_Source\PSoC5/Timer_TS.c **** *
 266:Generated_Source\PSoC5/Timer_TS.c **** * Summary:
 267:Generated_Source\PSoC5/Timer_TS.c **** *  This function selects which of the interrupt inputs may cause an interrupt.
 268:Generated_Source\PSoC5/Timer_TS.c **** *  The twosources are caputure and terminal.  One, both or neither may
 269:Generated_Source\PSoC5/Timer_TS.c **** *  be selected.
 270:Generated_Source\PSoC5/Timer_TS.c **** *
 271:Generated_Source\PSoC5/Timer_TS.c **** * Parameters:
 272:Generated_Source\PSoC5/Timer_TS.c **** *  interruptMode:   This parameter is used to enable interrups on either/or
 273:Generated_Source\PSoC5/Timer_TS.c **** *                   terminal count or capture.
 274:Generated_Source\PSoC5/Timer_TS.c **** *
 275:Generated_Source\PSoC5/Timer_TS.c **** * Return:
 276:Generated_Source\PSoC5/Timer_TS.c **** *  void
 277:Generated_Source\PSoC5/Timer_TS.c **** *
 278:Generated_Source\PSoC5/Timer_TS.c **** *******************************************************************************/
 279:Generated_Source\PSoC5/Timer_TS.c **** void Timer_TS_SetInterruptMode(uint8 interruptMode) 
ARM GAS  C:\Users\ylee818\AppData\Local\Temp\ccP11hT1.s 			page 11


 280:Generated_Source\PSoC5/Timer_TS.c **** {
 292              		.loc 1 280 0
 293              		.cfi_startproc
 294              		@ args = 0, pretend = 0, frame = 8
 295              		@ frame_needed = 1, uses_anonymous_args = 0
 296              		@ link register save eliminated.
 297 0000 80B4     		push	{r7}
 298              		.cfi_def_cfa_offset 4
 299              		.cfi_offset 7, -4
 300 0002 83B0     		sub	sp, sp, #12
 301              		.cfi_def_cfa_offset 16
 302 0004 00AF     		add	r7, sp, #0
 303              		.cfi_def_cfa_register 7
 304 0006 0346     		mov	r3, r0
 305 0008 FB71     		strb	r3, [r7, #7]
 281:Generated_Source\PSoC5/Timer_TS.c ****     Timer_TS_STATUS_MASK = interruptMode;
 306              		.loc 1 281 0
 307 000a 044A     		ldr	r2, .L15
 308 000c FB79     		ldrb	r3, [r7, #7]
 309 000e 1370     		strb	r3, [r2]
 282:Generated_Source\PSoC5/Timer_TS.c **** }
 310              		.loc 1 282 0
 311 0010 00BF     		nop
 312 0012 0C37     		adds	r7, r7, #12
 313              		.cfi_def_cfa_offset 4
 314 0014 BD46     		mov	sp, r7
 315              		.cfi_def_cfa_register 13
 316              		@ sp needed
 317 0016 80BC     		pop	{r7}
 318              		.cfi_restore 7
 319              		.cfi_def_cfa_offset 0
 320 0018 7047     		bx	lr
 321              	.L16:
 322 001a 00BF     		.align	2
 323              	.L15:
 324 001c 274F0040 		.word	1073762087
 325              		.cfi_endproc
 326              	.LFE4:
 327              		.size	Timer_TS_SetInterruptMode, .-Timer_TS_SetInterruptMode
 328              		.section	.text.Timer_TS_SoftwareCapture,"ax",%progbits
 329              		.align	2
 330              		.global	Timer_TS_SoftwareCapture
 331              		.thumb
 332              		.thumb_func
 333              		.type	Timer_TS_SoftwareCapture, %function
 334              	Timer_TS_SoftwareCapture:
 335              	.LFB5:
 283:Generated_Source\PSoC5/Timer_TS.c **** 
 284:Generated_Source\PSoC5/Timer_TS.c **** 
 285:Generated_Source\PSoC5/Timer_TS.c **** /*******************************************************************************
 286:Generated_Source\PSoC5/Timer_TS.c **** * Function Name: Timer_TS_SoftwareCapture
 287:Generated_Source\PSoC5/Timer_TS.c **** ********************************************************************************
 288:Generated_Source\PSoC5/Timer_TS.c **** *
 289:Generated_Source\PSoC5/Timer_TS.c **** * Summary:
 290:Generated_Source\PSoC5/Timer_TS.c **** *  This function forces a capture independent of the capture signal.
 291:Generated_Source\PSoC5/Timer_TS.c **** *
 292:Generated_Source\PSoC5/Timer_TS.c **** * Parameters:
ARM GAS  C:\Users\ylee818\AppData\Local\Temp\ccP11hT1.s 			page 12


 293:Generated_Source\PSoC5/Timer_TS.c **** *  void
 294:Generated_Source\PSoC5/Timer_TS.c **** *
 295:Generated_Source\PSoC5/Timer_TS.c **** * Return:
 296:Generated_Source\PSoC5/Timer_TS.c **** *  void
 297:Generated_Source\PSoC5/Timer_TS.c **** *
 298:Generated_Source\PSoC5/Timer_TS.c **** * Side Effects:
 299:Generated_Source\PSoC5/Timer_TS.c **** *  An existing hardware capture could be overwritten.
 300:Generated_Source\PSoC5/Timer_TS.c **** *
 301:Generated_Source\PSoC5/Timer_TS.c **** *******************************************************************************/
 302:Generated_Source\PSoC5/Timer_TS.c **** void Timer_TS_SoftwareCapture(void) 
 303:Generated_Source\PSoC5/Timer_TS.c **** {
 336              		.loc 1 303 0
 337              		.cfi_startproc
 338              		@ args = 0, pretend = 0, frame = 0
 339              		@ frame_needed = 1, uses_anonymous_args = 0
 340              		@ link register save eliminated.
 341 0000 80B4     		push	{r7}
 342              		.cfi_def_cfa_offset 4
 343              		.cfi_offset 7, -4
 344 0002 00AF     		add	r7, sp, #0
 345              		.cfi_def_cfa_register 7
 304:Generated_Source\PSoC5/Timer_TS.c ****     /* Generate a software capture by reading the counter register */
 305:Generated_Source\PSoC5/Timer_TS.c ****     #if(Timer_TS_UsingFixedFunction)
 306:Generated_Source\PSoC5/Timer_TS.c ****         (void)CY_GET_REG16(Timer_TS_COUNTER_LSB_PTR);
 346              		.loc 1 306 0
 347 0004 024B     		ldr	r3, .L18
 348 0006 1B88     		ldrh	r3, [r3]	@ movhi
 307:Generated_Source\PSoC5/Timer_TS.c ****     #else
 308:Generated_Source\PSoC5/Timer_TS.c ****         (void)CY_GET_REG8(Timer_TS_COUNTER_LSB_PTR_8BIT);
 309:Generated_Source\PSoC5/Timer_TS.c ****     #endif/* (Timer_TS_UsingFixedFunction) */
 310:Generated_Source\PSoC5/Timer_TS.c ****     /* Capture Data is now in the FIFO */
 311:Generated_Source\PSoC5/Timer_TS.c **** }
 349              		.loc 1 311 0
 350 0008 00BF     		nop
 351 000a BD46     		mov	sp, r7
 352              		.cfi_def_cfa_register 13
 353              		@ sp needed
 354 000c 80BC     		pop	{r7}
 355              		.cfi_restore 7
 356              		.cfi_def_cfa_offset 0
 357 000e 7047     		bx	lr
 358              	.L19:
 359              		.align	2
 360              	.L18:
 361 0010 2A4F0040 		.word	1073762090
 362              		.cfi_endproc
 363              	.LFE5:
 364              		.size	Timer_TS_SoftwareCapture, .-Timer_TS_SoftwareCapture
 365              		.section	.text.Timer_TS_ReadStatusRegister,"ax",%progbits
 366              		.align	2
 367              		.global	Timer_TS_ReadStatusRegister
 368              		.thumb
 369              		.thumb_func
 370              		.type	Timer_TS_ReadStatusRegister, %function
 371              	Timer_TS_ReadStatusRegister:
 372              	.LFB6:
 312:Generated_Source\PSoC5/Timer_TS.c **** 
ARM GAS  C:\Users\ylee818\AppData\Local\Temp\ccP11hT1.s 			page 13


 313:Generated_Source\PSoC5/Timer_TS.c **** 
 314:Generated_Source\PSoC5/Timer_TS.c **** /*******************************************************************************
 315:Generated_Source\PSoC5/Timer_TS.c **** * Function Name: Timer_TS_ReadStatusRegister
 316:Generated_Source\PSoC5/Timer_TS.c **** ********************************************************************************
 317:Generated_Source\PSoC5/Timer_TS.c **** *
 318:Generated_Source\PSoC5/Timer_TS.c **** * Summary:
 319:Generated_Source\PSoC5/Timer_TS.c **** *  Reads the status register and returns it's state. This function should use
 320:Generated_Source\PSoC5/Timer_TS.c **** *  defined types for the bit-field information as the bits in this register may
 321:Generated_Source\PSoC5/Timer_TS.c **** *  be permuteable.
 322:Generated_Source\PSoC5/Timer_TS.c **** *
 323:Generated_Source\PSoC5/Timer_TS.c **** * Parameters:
 324:Generated_Source\PSoC5/Timer_TS.c **** *  void
 325:Generated_Source\PSoC5/Timer_TS.c **** *
 326:Generated_Source\PSoC5/Timer_TS.c **** * Return:
 327:Generated_Source\PSoC5/Timer_TS.c **** *  The contents of the status register
 328:Generated_Source\PSoC5/Timer_TS.c **** *
 329:Generated_Source\PSoC5/Timer_TS.c **** * Side Effects:
 330:Generated_Source\PSoC5/Timer_TS.c **** *  Status register bits may be clear on read.
 331:Generated_Source\PSoC5/Timer_TS.c **** *
 332:Generated_Source\PSoC5/Timer_TS.c **** *******************************************************************************/
 333:Generated_Source\PSoC5/Timer_TS.c **** uint8   Timer_TS_ReadStatusRegister(void) 
 334:Generated_Source\PSoC5/Timer_TS.c **** {
 373              		.loc 1 334 0
 374              		.cfi_startproc
 375              		@ args = 0, pretend = 0, frame = 0
 376              		@ frame_needed = 1, uses_anonymous_args = 0
 377              		@ link register save eliminated.
 378 0000 80B4     		push	{r7}
 379              		.cfi_def_cfa_offset 4
 380              		.cfi_offset 7, -4
 381 0002 00AF     		add	r7, sp, #0
 382              		.cfi_def_cfa_register 7
 335:Generated_Source\PSoC5/Timer_TS.c ****     return (Timer_TS_STATUS);
 383              		.loc 1 335 0
 384 0004 034B     		ldr	r3, .L22
 385 0006 1B78     		ldrb	r3, [r3]
 386 0008 DBB2     		uxtb	r3, r3
 336:Generated_Source\PSoC5/Timer_TS.c **** }
 387              		.loc 1 336 0
 388 000a 1846     		mov	r0, r3
 389 000c BD46     		mov	sp, r7
 390              		.cfi_def_cfa_register 13
 391              		@ sp needed
 392 000e 80BC     		pop	{r7}
 393              		.cfi_restore 7
 394              		.cfi_def_cfa_offset 0
 395 0010 7047     		bx	lr
 396              	.L23:
 397 0012 00BF     		.align	2
 398              	.L22:
 399 0014 274F0040 		.word	1073762087
 400              		.cfi_endproc
 401              	.LFE6:
 402              		.size	Timer_TS_ReadStatusRegister, .-Timer_TS_ReadStatusRegister
 403              		.section	.text.Timer_TS_ReadControlRegister,"ax",%progbits
 404              		.align	2
 405              		.global	Timer_TS_ReadControlRegister
ARM GAS  C:\Users\ylee818\AppData\Local\Temp\ccP11hT1.s 			page 14


 406              		.thumb
 407              		.thumb_func
 408              		.type	Timer_TS_ReadControlRegister, %function
 409              	Timer_TS_ReadControlRegister:
 410              	.LFB7:
 337:Generated_Source\PSoC5/Timer_TS.c **** 
 338:Generated_Source\PSoC5/Timer_TS.c **** 
 339:Generated_Source\PSoC5/Timer_TS.c **** #if (!Timer_TS_UDB_CONTROL_REG_REMOVED) /* Remove API if control register is unused */
 340:Generated_Source\PSoC5/Timer_TS.c **** 
 341:Generated_Source\PSoC5/Timer_TS.c **** 
 342:Generated_Source\PSoC5/Timer_TS.c **** /*******************************************************************************
 343:Generated_Source\PSoC5/Timer_TS.c **** * Function Name: Timer_TS_ReadControlRegister
 344:Generated_Source\PSoC5/Timer_TS.c **** ********************************************************************************
 345:Generated_Source\PSoC5/Timer_TS.c **** *
 346:Generated_Source\PSoC5/Timer_TS.c **** * Summary:
 347:Generated_Source\PSoC5/Timer_TS.c **** *  Reads the control register and returns it's value.
 348:Generated_Source\PSoC5/Timer_TS.c **** *
 349:Generated_Source\PSoC5/Timer_TS.c **** * Parameters:
 350:Generated_Source\PSoC5/Timer_TS.c **** *  void
 351:Generated_Source\PSoC5/Timer_TS.c **** *
 352:Generated_Source\PSoC5/Timer_TS.c **** * Return:
 353:Generated_Source\PSoC5/Timer_TS.c **** *  The contents of the control register
 354:Generated_Source\PSoC5/Timer_TS.c **** *
 355:Generated_Source\PSoC5/Timer_TS.c **** *******************************************************************************/
 356:Generated_Source\PSoC5/Timer_TS.c **** uint8 Timer_TS_ReadControlRegister(void) 
 357:Generated_Source\PSoC5/Timer_TS.c **** {
 411              		.loc 1 357 0
 412              		.cfi_startproc
 413              		@ args = 0, pretend = 0, frame = 0
 414              		@ frame_needed = 1, uses_anonymous_args = 0
 415              		@ link register save eliminated.
 416 0000 80B4     		push	{r7}
 417              		.cfi_def_cfa_offset 4
 418              		.cfi_offset 7, -4
 419 0002 00AF     		add	r7, sp, #0
 420              		.cfi_def_cfa_register 7
 358:Generated_Source\PSoC5/Timer_TS.c ****     #if (!Timer_TS_UDB_CONTROL_REG_REMOVED) 
 359:Generated_Source\PSoC5/Timer_TS.c ****         return ((uint8)Timer_TS_CONTROL);
 421              		.loc 1 359 0
 422 0004 034B     		ldr	r3, .L26
 423 0006 1B78     		ldrb	r3, [r3]
 424 0008 DBB2     		uxtb	r3, r3
 360:Generated_Source\PSoC5/Timer_TS.c ****     #else
 361:Generated_Source\PSoC5/Timer_TS.c ****         return (0);
 362:Generated_Source\PSoC5/Timer_TS.c ****     #endif /* (!Timer_TS_UDB_CONTROL_REG_REMOVED) */
 363:Generated_Source\PSoC5/Timer_TS.c **** }
 425              		.loc 1 363 0
 426 000a 1846     		mov	r0, r3
 427 000c BD46     		mov	sp, r7
 428              		.cfi_def_cfa_register 13
 429              		@ sp needed
 430 000e 80BC     		pop	{r7}
 431              		.cfi_restore 7
 432              		.cfi_def_cfa_offset 0
 433 0010 7047     		bx	lr
 434              	.L27:
 435 0012 00BF     		.align	2
ARM GAS  C:\Users\ylee818\AppData\Local\Temp\ccP11hT1.s 			page 15


 436              	.L26:
 437 0014 244F0040 		.word	1073762084
 438              		.cfi_endproc
 439              	.LFE7:
 440              		.size	Timer_TS_ReadControlRegister, .-Timer_TS_ReadControlRegister
 441              		.section	.text.Timer_TS_WriteControlRegister,"ax",%progbits
 442              		.align	2
 443              		.global	Timer_TS_WriteControlRegister
 444              		.thumb
 445              		.thumb_func
 446              		.type	Timer_TS_WriteControlRegister, %function
 447              	Timer_TS_WriteControlRegister:
 448              	.LFB8:
 364:Generated_Source\PSoC5/Timer_TS.c **** 
 365:Generated_Source\PSoC5/Timer_TS.c **** 
 366:Generated_Source\PSoC5/Timer_TS.c **** /*******************************************************************************
 367:Generated_Source\PSoC5/Timer_TS.c **** * Function Name: Timer_TS_WriteControlRegister
 368:Generated_Source\PSoC5/Timer_TS.c **** ********************************************************************************
 369:Generated_Source\PSoC5/Timer_TS.c **** *
 370:Generated_Source\PSoC5/Timer_TS.c **** * Summary:
 371:Generated_Source\PSoC5/Timer_TS.c **** *  Sets the bit-field of the control register.
 372:Generated_Source\PSoC5/Timer_TS.c **** *
 373:Generated_Source\PSoC5/Timer_TS.c **** * Parameters:
 374:Generated_Source\PSoC5/Timer_TS.c **** *  control: The contents of the control register
 375:Generated_Source\PSoC5/Timer_TS.c **** *
 376:Generated_Source\PSoC5/Timer_TS.c **** * Return:
 377:Generated_Source\PSoC5/Timer_TS.c **** *
 378:Generated_Source\PSoC5/Timer_TS.c **** *******************************************************************************/
 379:Generated_Source\PSoC5/Timer_TS.c **** void Timer_TS_WriteControlRegister(uint8 control) 
 380:Generated_Source\PSoC5/Timer_TS.c **** {
 449              		.loc 1 380 0
 450              		.cfi_startproc
 451              		@ args = 0, pretend = 0, frame = 8
 452              		@ frame_needed = 1, uses_anonymous_args = 0
 453              		@ link register save eliminated.
 454 0000 80B4     		push	{r7}
 455              		.cfi_def_cfa_offset 4
 456              		.cfi_offset 7, -4
 457 0002 83B0     		sub	sp, sp, #12
 458              		.cfi_def_cfa_offset 16
 459 0004 00AF     		add	r7, sp, #0
 460              		.cfi_def_cfa_register 7
 461 0006 0346     		mov	r3, r0
 462 0008 FB71     		strb	r3, [r7, #7]
 381:Generated_Source\PSoC5/Timer_TS.c ****     #if (!Timer_TS_UDB_CONTROL_REG_REMOVED) 
 382:Generated_Source\PSoC5/Timer_TS.c ****         Timer_TS_CONTROL = control;
 463              		.loc 1 382 0
 464 000a 044A     		ldr	r2, .L29
 465 000c FB79     		ldrb	r3, [r7, #7]
 466 000e 1370     		strb	r3, [r2]
 383:Generated_Source\PSoC5/Timer_TS.c ****     #else
 384:Generated_Source\PSoC5/Timer_TS.c ****         control = 0u;
 385:Generated_Source\PSoC5/Timer_TS.c ****     #endif /* (!Timer_TS_UDB_CONTROL_REG_REMOVED) */
 386:Generated_Source\PSoC5/Timer_TS.c **** }
 467              		.loc 1 386 0
 468 0010 00BF     		nop
 469 0012 0C37     		adds	r7, r7, #12
ARM GAS  C:\Users\ylee818\AppData\Local\Temp\ccP11hT1.s 			page 16


 470              		.cfi_def_cfa_offset 4
 471 0014 BD46     		mov	sp, r7
 472              		.cfi_def_cfa_register 13
 473              		@ sp needed
 474 0016 80BC     		pop	{r7}
 475              		.cfi_restore 7
 476              		.cfi_def_cfa_offset 0
 477 0018 7047     		bx	lr
 478              	.L30:
 479 001a 00BF     		.align	2
 480              	.L29:
 481 001c 244F0040 		.word	1073762084
 482              		.cfi_endproc
 483              	.LFE8:
 484              		.size	Timer_TS_WriteControlRegister, .-Timer_TS_WriteControlRegister
 485              		.section	.text.Timer_TS_ReadPeriod,"ax",%progbits
 486              		.align	2
 487              		.global	Timer_TS_ReadPeriod
 488              		.thumb
 489              		.thumb_func
 490              		.type	Timer_TS_ReadPeriod, %function
 491              	Timer_TS_ReadPeriod:
 492              	.LFB9:
 387:Generated_Source\PSoC5/Timer_TS.c **** 
 388:Generated_Source\PSoC5/Timer_TS.c **** #endif /* Remove API if control register is unused */
 389:Generated_Source\PSoC5/Timer_TS.c **** 
 390:Generated_Source\PSoC5/Timer_TS.c **** 
 391:Generated_Source\PSoC5/Timer_TS.c **** /*******************************************************************************
 392:Generated_Source\PSoC5/Timer_TS.c **** * Function Name: Timer_TS_ReadPeriod
 393:Generated_Source\PSoC5/Timer_TS.c **** ********************************************************************************
 394:Generated_Source\PSoC5/Timer_TS.c **** *
 395:Generated_Source\PSoC5/Timer_TS.c **** * Summary:
 396:Generated_Source\PSoC5/Timer_TS.c **** *  This function returns the current value of the Period.
 397:Generated_Source\PSoC5/Timer_TS.c **** *
 398:Generated_Source\PSoC5/Timer_TS.c **** * Parameters:
 399:Generated_Source\PSoC5/Timer_TS.c **** *  void
 400:Generated_Source\PSoC5/Timer_TS.c **** *
 401:Generated_Source\PSoC5/Timer_TS.c **** * Return:
 402:Generated_Source\PSoC5/Timer_TS.c **** *  The present value of the counter.
 403:Generated_Source\PSoC5/Timer_TS.c **** *
 404:Generated_Source\PSoC5/Timer_TS.c **** *******************************************************************************/
 405:Generated_Source\PSoC5/Timer_TS.c **** uint8 Timer_TS_ReadPeriod(void) 
 406:Generated_Source\PSoC5/Timer_TS.c **** {
 493              		.loc 1 406 0
 494              		.cfi_startproc
 495              		@ args = 0, pretend = 0, frame = 0
 496              		@ frame_needed = 1, uses_anonymous_args = 0
 497              		@ link register save eliminated.
 498 0000 80B4     		push	{r7}
 499              		.cfi_def_cfa_offset 4
 500              		.cfi_offset 7, -4
 501 0002 00AF     		add	r7, sp, #0
 502              		.cfi_def_cfa_register 7
 407:Generated_Source\PSoC5/Timer_TS.c ****    #if(Timer_TS_UsingFixedFunction)
 408:Generated_Source\PSoC5/Timer_TS.c ****        return ((uint8)CY_GET_REG16(Timer_TS_PERIOD_LSB_PTR));
 503              		.loc 1 408 0
 504 0004 034B     		ldr	r3, .L33
ARM GAS  C:\Users\ylee818\AppData\Local\Temp\ccP11hT1.s 			page 17


 505 0006 1B88     		ldrh	r3, [r3]	@ movhi
 506 0008 9BB2     		uxth	r3, r3
 507 000a DBB2     		uxtb	r3, r3
 409:Generated_Source\PSoC5/Timer_TS.c ****    #else
 410:Generated_Source\PSoC5/Timer_TS.c ****        return (CY_GET_REG8(Timer_TS_PERIOD_LSB_PTR));
 411:Generated_Source\PSoC5/Timer_TS.c ****    #endif /* (Timer_TS_UsingFixedFunction) */
 412:Generated_Source\PSoC5/Timer_TS.c **** }
 508              		.loc 1 412 0
 509 000c 1846     		mov	r0, r3
 510 000e BD46     		mov	sp, r7
 511              		.cfi_def_cfa_register 13
 512              		@ sp needed
 513 0010 80BC     		pop	{r7}
 514              		.cfi_restore 7
 515              		.cfi_def_cfa_offset 0
 516 0012 7047     		bx	lr
 517              	.L34:
 518              		.align	2
 519              	.L33:
 520 0014 284F0040 		.word	1073762088
 521              		.cfi_endproc
 522              	.LFE9:
 523              		.size	Timer_TS_ReadPeriod, .-Timer_TS_ReadPeriod
 524              		.section	.text.Timer_TS_WritePeriod,"ax",%progbits
 525              		.align	2
 526              		.global	Timer_TS_WritePeriod
 527              		.thumb
 528              		.thumb_func
 529              		.type	Timer_TS_WritePeriod, %function
 530              	Timer_TS_WritePeriod:
 531              	.LFB10:
 413:Generated_Source\PSoC5/Timer_TS.c **** 
 414:Generated_Source\PSoC5/Timer_TS.c **** 
 415:Generated_Source\PSoC5/Timer_TS.c **** /*******************************************************************************
 416:Generated_Source\PSoC5/Timer_TS.c **** * Function Name: Timer_TS_WritePeriod
 417:Generated_Source\PSoC5/Timer_TS.c **** ********************************************************************************
 418:Generated_Source\PSoC5/Timer_TS.c **** *
 419:Generated_Source\PSoC5/Timer_TS.c **** * Summary:
 420:Generated_Source\PSoC5/Timer_TS.c **** *  This function is used to change the period of the counter.  The new period
 421:Generated_Source\PSoC5/Timer_TS.c **** *  will be loaded the next time terminal count is detected.
 422:Generated_Source\PSoC5/Timer_TS.c **** *
 423:Generated_Source\PSoC5/Timer_TS.c **** * Parameters:
 424:Generated_Source\PSoC5/Timer_TS.c **** *  period: This value may be between 1 and (2^Resolution)-1.  A value of 0 will
 425:Generated_Source\PSoC5/Timer_TS.c **** *          result in the counter remaining at zero.
 426:Generated_Source\PSoC5/Timer_TS.c **** *
 427:Generated_Source\PSoC5/Timer_TS.c **** * Return:
 428:Generated_Source\PSoC5/Timer_TS.c **** *  void
 429:Generated_Source\PSoC5/Timer_TS.c **** *
 430:Generated_Source\PSoC5/Timer_TS.c **** *******************************************************************************/
 431:Generated_Source\PSoC5/Timer_TS.c **** void Timer_TS_WritePeriod(uint8 period) 
 432:Generated_Source\PSoC5/Timer_TS.c **** {
 532              		.loc 1 432 0
 533              		.cfi_startproc
 534              		@ args = 0, pretend = 0, frame = 16
 535              		@ frame_needed = 1, uses_anonymous_args = 0
 536              		@ link register save eliminated.
 537 0000 80B4     		push	{r7}
ARM GAS  C:\Users\ylee818\AppData\Local\Temp\ccP11hT1.s 			page 18


 538              		.cfi_def_cfa_offset 4
 539              		.cfi_offset 7, -4
 540 0002 85B0     		sub	sp, sp, #20
 541              		.cfi_def_cfa_offset 24
 542 0004 00AF     		add	r7, sp, #0
 543              		.cfi_def_cfa_register 7
 544 0006 0346     		mov	r3, r0
 545 0008 FB71     		strb	r3, [r7, #7]
 433:Generated_Source\PSoC5/Timer_TS.c ****     #if(Timer_TS_UsingFixedFunction)
 434:Generated_Source\PSoC5/Timer_TS.c ****         uint16 period_temp = (uint16)period;
 546              		.loc 1 434 0
 547 000a FB79     		ldrb	r3, [r7, #7]	@ zero_extendqisi2
 548 000c FB81     		strh	r3, [r7, #14]	@ movhi
 435:Generated_Source\PSoC5/Timer_TS.c ****         CY_SET_REG16(Timer_TS_PERIOD_LSB_PTR, period_temp);
 549              		.loc 1 435 0
 550 000e 044A     		ldr	r2, .L36
 551 0010 FB89     		ldrh	r3, [r7, #14]	@ movhi
 552 0012 1380     		strh	r3, [r2]	@ movhi
 436:Generated_Source\PSoC5/Timer_TS.c ****     #else
 437:Generated_Source\PSoC5/Timer_TS.c ****         CY_SET_REG8(Timer_TS_PERIOD_LSB_PTR, period);
 438:Generated_Source\PSoC5/Timer_TS.c ****     #endif /*Write Period value with appropriate resolution suffix depending on UDB or fixed functi
 439:Generated_Source\PSoC5/Timer_TS.c **** }
 553              		.loc 1 439 0
 554 0014 00BF     		nop
 555 0016 1437     		adds	r7, r7, #20
 556              		.cfi_def_cfa_offset 4
 557 0018 BD46     		mov	sp, r7
 558              		.cfi_def_cfa_register 13
 559              		@ sp needed
 560 001a 80BC     		pop	{r7}
 561              		.cfi_restore 7
 562              		.cfi_def_cfa_offset 0
 563 001c 7047     		bx	lr
 564              	.L37:
 565 001e 00BF     		.align	2
 566              	.L36:
 567 0020 284F0040 		.word	1073762088
 568              		.cfi_endproc
 569              	.LFE10:
 570              		.size	Timer_TS_WritePeriod, .-Timer_TS_WritePeriod
 571              		.section	.text.Timer_TS_ReadCapture,"ax",%progbits
 572              		.align	2
 573              		.global	Timer_TS_ReadCapture
 574              		.thumb
 575              		.thumb_func
 576              		.type	Timer_TS_ReadCapture, %function
 577              	Timer_TS_ReadCapture:
 578              	.LFB11:
 440:Generated_Source\PSoC5/Timer_TS.c **** 
 441:Generated_Source\PSoC5/Timer_TS.c **** 
 442:Generated_Source\PSoC5/Timer_TS.c **** /*******************************************************************************
 443:Generated_Source\PSoC5/Timer_TS.c **** * Function Name: Timer_TS_ReadCapture
 444:Generated_Source\PSoC5/Timer_TS.c **** ********************************************************************************
 445:Generated_Source\PSoC5/Timer_TS.c **** *
 446:Generated_Source\PSoC5/Timer_TS.c **** * Summary:
 447:Generated_Source\PSoC5/Timer_TS.c **** *  This function returns the last value captured.
 448:Generated_Source\PSoC5/Timer_TS.c **** *
ARM GAS  C:\Users\ylee818\AppData\Local\Temp\ccP11hT1.s 			page 19


 449:Generated_Source\PSoC5/Timer_TS.c **** * Parameters:
 450:Generated_Source\PSoC5/Timer_TS.c **** *  void
 451:Generated_Source\PSoC5/Timer_TS.c **** *
 452:Generated_Source\PSoC5/Timer_TS.c **** * Return:
 453:Generated_Source\PSoC5/Timer_TS.c **** *  Present Capture value.
 454:Generated_Source\PSoC5/Timer_TS.c **** *
 455:Generated_Source\PSoC5/Timer_TS.c **** *******************************************************************************/
 456:Generated_Source\PSoC5/Timer_TS.c **** uint8 Timer_TS_ReadCapture(void) 
 457:Generated_Source\PSoC5/Timer_TS.c **** {
 579              		.loc 1 457 0
 580              		.cfi_startproc
 581              		@ args = 0, pretend = 0, frame = 0
 582              		@ frame_needed = 1, uses_anonymous_args = 0
 583              		@ link register save eliminated.
 584 0000 80B4     		push	{r7}
 585              		.cfi_def_cfa_offset 4
 586              		.cfi_offset 7, -4
 587 0002 00AF     		add	r7, sp, #0
 588              		.cfi_def_cfa_register 7
 458:Generated_Source\PSoC5/Timer_TS.c ****    #if(Timer_TS_UsingFixedFunction)
 459:Generated_Source\PSoC5/Timer_TS.c ****        return ((uint8)CY_GET_REG16(Timer_TS_CAPTURE_LSB_PTR));
 589              		.loc 1 459 0
 590 0004 034B     		ldr	r3, .L40
 591 0006 1B88     		ldrh	r3, [r3]	@ movhi
 592 0008 9BB2     		uxth	r3, r3
 593 000a DBB2     		uxtb	r3, r3
 460:Generated_Source\PSoC5/Timer_TS.c ****    #else
 461:Generated_Source\PSoC5/Timer_TS.c ****        return (CY_GET_REG8(Timer_TS_CAPTURE_LSB_PTR));
 462:Generated_Source\PSoC5/Timer_TS.c ****    #endif /* (Timer_TS_UsingFixedFunction) */
 463:Generated_Source\PSoC5/Timer_TS.c **** }
 594              		.loc 1 463 0
 595 000c 1846     		mov	r0, r3
 596 000e BD46     		mov	sp, r7
 597              		.cfi_def_cfa_register 13
 598              		@ sp needed
 599 0010 80BC     		pop	{r7}
 600              		.cfi_restore 7
 601              		.cfi_def_cfa_offset 0
 602 0012 7047     		bx	lr
 603              	.L41:
 604              		.align	2
 605              	.L40:
 606 0014 2C4F0040 		.word	1073762092
 607              		.cfi_endproc
 608              	.LFE11:
 609              		.size	Timer_TS_ReadCapture, .-Timer_TS_ReadCapture
 610              		.section	.text.Timer_TS_WriteCounter,"ax",%progbits
 611              		.align	2
 612              		.global	Timer_TS_WriteCounter
 613              		.thumb
 614              		.thumb_func
 615              		.type	Timer_TS_WriteCounter, %function
 616              	Timer_TS_WriteCounter:
 617              	.LFB12:
 464:Generated_Source\PSoC5/Timer_TS.c **** 
 465:Generated_Source\PSoC5/Timer_TS.c **** 
 466:Generated_Source\PSoC5/Timer_TS.c **** /*******************************************************************************
ARM GAS  C:\Users\ylee818\AppData\Local\Temp\ccP11hT1.s 			page 20


 467:Generated_Source\PSoC5/Timer_TS.c **** * Function Name: Timer_TS_WriteCounter
 468:Generated_Source\PSoC5/Timer_TS.c **** ********************************************************************************
 469:Generated_Source\PSoC5/Timer_TS.c **** *
 470:Generated_Source\PSoC5/Timer_TS.c **** * Summary:
 471:Generated_Source\PSoC5/Timer_TS.c **** *  This funtion is used to set the counter to a specific value
 472:Generated_Source\PSoC5/Timer_TS.c **** *
 473:Generated_Source\PSoC5/Timer_TS.c **** * Parameters:
 474:Generated_Source\PSoC5/Timer_TS.c **** *  counter:  New counter value.
 475:Generated_Source\PSoC5/Timer_TS.c **** *
 476:Generated_Source\PSoC5/Timer_TS.c **** * Return:
 477:Generated_Source\PSoC5/Timer_TS.c **** *  void
 478:Generated_Source\PSoC5/Timer_TS.c **** *
 479:Generated_Source\PSoC5/Timer_TS.c **** *******************************************************************************/
 480:Generated_Source\PSoC5/Timer_TS.c **** void Timer_TS_WriteCounter(uint8 counter) 
 481:Generated_Source\PSoC5/Timer_TS.c **** {
 618              		.loc 1 481 0
 619              		.cfi_startproc
 620              		@ args = 0, pretend = 0, frame = 8
 621              		@ frame_needed = 1, uses_anonymous_args = 0
 622              		@ link register save eliminated.
 623 0000 80B4     		push	{r7}
 624              		.cfi_def_cfa_offset 4
 625              		.cfi_offset 7, -4
 626 0002 83B0     		sub	sp, sp, #12
 627              		.cfi_def_cfa_offset 16
 628 0004 00AF     		add	r7, sp, #0
 629              		.cfi_def_cfa_register 7
 630 0006 0346     		mov	r3, r0
 631 0008 FB71     		strb	r3, [r7, #7]
 482:Generated_Source\PSoC5/Timer_TS.c ****    #if(Timer_TS_UsingFixedFunction)
 483:Generated_Source\PSoC5/Timer_TS.c ****         /* This functionality is removed until a FixedFunction HW update to
 484:Generated_Source\PSoC5/Timer_TS.c ****          * allow this register to be written
 485:Generated_Source\PSoC5/Timer_TS.c ****          */
 486:Generated_Source\PSoC5/Timer_TS.c ****         CY_SET_REG16(Timer_TS_COUNTER_LSB_PTR, (uint16)counter);
 632              		.loc 1 486 0
 633 000a 044B     		ldr	r3, .L43
 634 000c FA79     		ldrb	r2, [r7, #7]	@ zero_extendqisi2
 635 000e 92B2     		uxth	r2, r2
 636 0010 1A80     		strh	r2, [r3]	@ movhi
 487:Generated_Source\PSoC5/Timer_TS.c ****         
 488:Generated_Source\PSoC5/Timer_TS.c ****     #else
 489:Generated_Source\PSoC5/Timer_TS.c ****         CY_SET_REG8(Timer_TS_COUNTER_LSB_PTR, counter);
 490:Generated_Source\PSoC5/Timer_TS.c ****     #endif /* Set Write Counter only for the UDB implementation (Write Counter not available in fix
 491:Generated_Source\PSoC5/Timer_TS.c **** }
 637              		.loc 1 491 0
 638 0012 00BF     		nop
 639 0014 0C37     		adds	r7, r7, #12
 640              		.cfi_def_cfa_offset 4
 641 0016 BD46     		mov	sp, r7
 642              		.cfi_def_cfa_register 13
 643              		@ sp needed
 644 0018 80BC     		pop	{r7}
 645              		.cfi_restore 7
 646              		.cfi_def_cfa_offset 0
 647 001a 7047     		bx	lr
 648              	.L44:
 649              		.align	2
ARM GAS  C:\Users\ylee818\AppData\Local\Temp\ccP11hT1.s 			page 21


 650              	.L43:
 651 001c 2A4F0040 		.word	1073762090
 652              		.cfi_endproc
 653              	.LFE12:
 654              		.size	Timer_TS_WriteCounter, .-Timer_TS_WriteCounter
 655              		.section	.text.Timer_TS_ReadCounter,"ax",%progbits
 656              		.align	2
 657              		.global	Timer_TS_ReadCounter
 658              		.thumb
 659              		.thumb_func
 660              		.type	Timer_TS_ReadCounter, %function
 661              	Timer_TS_ReadCounter:
 662              	.LFB13:
 492:Generated_Source\PSoC5/Timer_TS.c **** 
 493:Generated_Source\PSoC5/Timer_TS.c **** 
 494:Generated_Source\PSoC5/Timer_TS.c **** /*******************************************************************************
 495:Generated_Source\PSoC5/Timer_TS.c **** * Function Name: Timer_TS_ReadCounter
 496:Generated_Source\PSoC5/Timer_TS.c **** ********************************************************************************
 497:Generated_Source\PSoC5/Timer_TS.c **** *
 498:Generated_Source\PSoC5/Timer_TS.c **** * Summary:
 499:Generated_Source\PSoC5/Timer_TS.c **** *  This function returns the current counter value.
 500:Generated_Source\PSoC5/Timer_TS.c **** *
 501:Generated_Source\PSoC5/Timer_TS.c **** * Parameters:
 502:Generated_Source\PSoC5/Timer_TS.c **** *  void
 503:Generated_Source\PSoC5/Timer_TS.c **** *
 504:Generated_Source\PSoC5/Timer_TS.c **** * Return:
 505:Generated_Source\PSoC5/Timer_TS.c **** *  Present compare value.
 506:Generated_Source\PSoC5/Timer_TS.c **** *
 507:Generated_Source\PSoC5/Timer_TS.c **** *******************************************************************************/
 508:Generated_Source\PSoC5/Timer_TS.c **** uint8 Timer_TS_ReadCounter(void) 
 509:Generated_Source\PSoC5/Timer_TS.c **** {
 663              		.loc 1 509 0
 664              		.cfi_startproc
 665              		@ args = 0, pretend = 0, frame = 0
 666              		@ frame_needed = 1, uses_anonymous_args = 0
 667              		@ link register save eliminated.
 668 0000 80B4     		push	{r7}
 669              		.cfi_def_cfa_offset 4
 670              		.cfi_offset 7, -4
 671 0002 00AF     		add	r7, sp, #0
 672              		.cfi_def_cfa_register 7
 510:Generated_Source\PSoC5/Timer_TS.c ****     /* Force capture by reading Accumulator */
 511:Generated_Source\PSoC5/Timer_TS.c ****     /* Must first do a software capture to be able to read the counter */
 512:Generated_Source\PSoC5/Timer_TS.c ****     /* It is up to the user code to make sure there isn't already captured data in the FIFO */
 513:Generated_Source\PSoC5/Timer_TS.c ****     #if(Timer_TS_UsingFixedFunction)
 514:Generated_Source\PSoC5/Timer_TS.c ****         (void)CY_GET_REG16(Timer_TS_COUNTER_LSB_PTR);
 673              		.loc 1 514 0
 674 0004 044B     		ldr	r3, .L47
 675 0006 1B88     		ldrh	r3, [r3]	@ movhi
 515:Generated_Source\PSoC5/Timer_TS.c ****     #else
 516:Generated_Source\PSoC5/Timer_TS.c ****         (void)CY_GET_REG8(Timer_TS_COUNTER_LSB_PTR_8BIT);
 517:Generated_Source\PSoC5/Timer_TS.c ****     #endif/* (Timer_TS_UsingFixedFunction) */
 518:Generated_Source\PSoC5/Timer_TS.c **** 
 519:Generated_Source\PSoC5/Timer_TS.c ****     /* Read the data from the FIFO (or capture register for Fixed Function)*/
 520:Generated_Source\PSoC5/Timer_TS.c ****     #if(Timer_TS_UsingFixedFunction)
 521:Generated_Source\PSoC5/Timer_TS.c ****         return ((uint8)CY_GET_REG16(Timer_TS_CAPTURE_LSB_PTR));
 676              		.loc 1 521 0
ARM GAS  C:\Users\ylee818\AppData\Local\Temp\ccP11hT1.s 			page 22


 677 0008 044B     		ldr	r3, .L47+4
 678 000a 1B88     		ldrh	r3, [r3]	@ movhi
 679 000c 9BB2     		uxth	r3, r3
 680 000e DBB2     		uxtb	r3, r3
 522:Generated_Source\PSoC5/Timer_TS.c ****     #else
 523:Generated_Source\PSoC5/Timer_TS.c ****         return (CY_GET_REG8(Timer_TS_CAPTURE_LSB_PTR));
 524:Generated_Source\PSoC5/Timer_TS.c ****     #endif /* (Timer_TS_UsingFixedFunction) */
 525:Generated_Source\PSoC5/Timer_TS.c **** }
 681              		.loc 1 525 0
 682 0010 1846     		mov	r0, r3
 683 0012 BD46     		mov	sp, r7
 684              		.cfi_def_cfa_register 13
 685              		@ sp needed
 686 0014 80BC     		pop	{r7}
 687              		.cfi_restore 7
 688              		.cfi_def_cfa_offset 0
 689 0016 7047     		bx	lr
 690              	.L48:
 691              		.align	2
 692              	.L47:
 693 0018 2A4F0040 		.word	1073762090
 694 001c 2C4F0040 		.word	1073762092
 695              		.cfi_endproc
 696              	.LFE13:
 697              		.size	Timer_TS_ReadCounter, .-Timer_TS_ReadCounter
 698              		.text
 699              	.Letext0:
 700              		.file 2 "Generated_Source\\PSoC5\\cytypes.h"