ARM GAS  C:\Users\ylee818\AppData\Local\Temp\ccYmMVJ5.s 			page 1


   1              		.syntax unified
   2              		.cpu cortex-m3
   3              		.fpu softvfp
   4              		.eabi_attribute 20, 1
   5              		.eabi_attribute 21, 1
   6              		.eabi_attribute 23, 3
   7              		.eabi_attribute 24, 1
   8              		.eabi_attribute 25, 1
   9              		.eabi_attribute 26, 1
  10              		.eabi_attribute 30, 6
  11              		.eabi_attribute 34, 1
  12              		.eabi_attribute 18, 4
  13              		.thumb
  14              		.syntax unified
  15              		.file	"directions.c"
  16              		.text
  17              	.Ltext0:
  18              		.cfi_sections	.debug_frame
  19              		.data
  20              		.align	2
  21              		.type	TICKS_90_LEFT, %object
  22              		.size	TICKS_90_LEFT, 4
  23              	TICKS_90_LEFT:
  24 0000 70030000 		.word	880
  25              		.align	2
  26              		.type	TICKS_90_RIGHT, %object
  27              		.size	TICKS_90_RIGHT, 4
  28              	TICKS_90_RIGHT:
  29 0004 84030000 		.word	900
  30              		.bss
  31              	s_state:
  32 0000 00       		.space	1
  33              	s_turn_side:
  34 0001 00       		.space	1
  35 0002 0000     		.align	2
  36              	s_target_ticks:
  37 0004 00000000 		.space	4
  38              		.align	2
  39              	s_acc_ticks:
  40 0008 00000000 		.space	4
  41              		.align	1
  42              	s_safety_count:
  43 000c 0000     		.space	2
  44              		.section	.text.enc_pause_background,"ax",%progbits
  45              		.align	2
  46              		.thumb
  47              		.thumb_func
  48              		.type	enc_pause_background, %function
  49              	enc_pause_background:
  50              	.LFB63:
  51              		.file 1 "directions.c"
   1:directions.c  **** #include <project.h>
   2:directions.c  **** #include <stdint.h>
   3:directions.c  **** #include <stdbool.h>
   4:directions.c  **** 
   5:directions.c  **** #include "directions.h"
   6:directions.c  **** #include "motor_s.h"     // set_motors_symmetric(), set_motors_with_trim_and_steer(), motor_enable
ARM GAS  C:\Users\ylee818\AppData\Local\Temp\ccYmMVJ5.s 			page 2


   7:directions.c  **** #include "defines.h"     // your project-wide defines
   8:directions.c  **** 
   9:directions.c  **** /* ===================== Tunables ===================== */
  10:directions.c  **** /* Encoder counts for ~90° pivots (tune on your tape) */
  11:directions.c  **** static volatile int32_t TICKS_90_LEFT  = 880;   /* abs(|ΔL|)+abs(|ΔR|) */
  12:directions.c  **** static volatile int32_t TICKS_90_RIGHT = 900;
  13:directions.c  **** 
  14:directions.c  **** /* Pivot speed (%) — keep modest to avoid overshoot */
  15:directions.c  **** #define PIVOT_SPEED_PC        28
  16:directions.c  **** #define STOP_BEFORE_MS        80
  17:directions.c  **** #define BRAKE_AFTER_MS        90
  18:directions.c  **** 
  19:directions.c  **** /* Safety: max number of handler calls allowed while turning.
  20:directions.c  ****  * With your ~8 ms loop this is ~3.2 s (400 * 8 ms) which is plenty. */
  21:directions.c  **** #define MAX_TURN_HANDLER_TICKS  400
  22:directions.c  **** 
  23:directions.c  **** /* ===================== Internal state ===================== */
  24:directions.c  **** typedef enum {
  25:directions.c  ****     DIR_IDLE = 0,
  26:directions.c  ****     DIR_PREP,
  27:directions.c  ****     DIR_TURNING,
  28:directions.c  ****     DIR_FINISH
  29:directions.c  **** } dir_state_t;
  30:directions.c  **** 
  31:directions.c  **** static dir_state_t s_state = DIR_IDLE;
  32:directions.c  **** static uint8_t     s_turn_side = 0;        /* 1 = left, 2 = right */
  33:directions.c  **** static int32_t     s_target_ticks = 0;     /* goal = ~90° */
  34:directions.c  **** static int32_t     s_acc_ticks    = 0;     /* running sum of |ΔL|+|ΔR| */
  35:directions.c  **** static uint16_t    s_safety_count = 0;
  36:directions.c  **** 
  37:directions.c  **** /* ---------------- Encoder helpers ----------------
  38:directions.c  ****  * We pause your background 5 ms encoder task while we own the counters,
  39:directions.c  ****  * so our deltas don't get zeroed behind our back.
  40:directions.c  ****  */
  41:directions.c  **** static inline void enc_pause_background(void)
  42:directions.c  **** {
  52              		.loc 1 42 0
  53              		.cfi_startproc
  54              		@ args = 0, pretend = 0, frame = 0
  55              		@ frame_needed = 1, uses_anonymous_args = 0
  56              		@ link register save eliminated.
  57 0000 80B4     		push	{r7}
  58              		.cfi_def_cfa_offset 4
  59              		.cfi_offset 7, -4
  60 0002 00AF     		add	r7, sp, #0
  61              		.cfi_def_cfa_register 7
  43:directions.c  **** #if defined(Timer_QD_Stop)
  44:directions.c  ****     Timer_QD_Stop();
  45:directions.c  **** #endif
  46:directions.c  **** #if defined(isr_qd_Disable)
  47:directions.c  ****     isr_qd_Disable();
  48:directions.c  **** #endif
  49:directions.c  **** }
  62              		.loc 1 49 0
  63 0004 00BF     		nop
  64 0006 BD46     		mov	sp, r7
  65              		.cfi_def_cfa_register 13
ARM GAS  C:\Users\ylee818\AppData\Local\Temp\ccYmMVJ5.s 			page 3


  66              		@ sp needed
  67 0008 80BC     		pop	{r7}
  68              		.cfi_restore 7
  69              		.cfi_def_cfa_offset 0
  70 000a 7047     		bx	lr
  71              		.cfi_endproc
  72              	.LFE63:
  73              		.size	enc_pause_background, .-enc_pause_background
  74              		.section	.text.enc_resume_background,"ax",%progbits
  75              		.align	2
  76              		.thumb
  77              		.thumb_func
  78              		.type	enc_resume_background, %function
  79              	enc_resume_background:
  80              	.LFB64:
  50:directions.c  **** 
  51:directions.c  **** static inline void enc_resume_background(void)
  52:directions.c  **** {
  81              		.loc 1 52 0
  82              		.cfi_startproc
  83              		@ args = 0, pretend = 0, frame = 0
  84              		@ frame_needed = 1, uses_anonymous_args = 0
  85              		@ link register save eliminated.
  86 0000 80B4     		push	{r7}
  87              		.cfi_def_cfa_offset 4
  88              		.cfi_offset 7, -4
  89 0002 00AF     		add	r7, sp, #0
  90              		.cfi_def_cfa_register 7
  53:directions.c  **** #if defined(isr_qd_Enable)
  54:directions.c  ****     isr_qd_Enable();
  55:directions.c  **** #endif
  56:directions.c  **** #if defined(Timer_QD_Start)
  57:directions.c  ****     Timer_QD_Start();
  58:directions.c  **** #endif
  59:directions.c  **** }
  91              		.loc 1 59 0
  92 0004 00BF     		nop
  93 0006 BD46     		mov	sp, r7
  94              		.cfi_def_cfa_register 13
  95              		@ sp needed
  96 0008 80BC     		pop	{r7}
  97              		.cfi_restore 7
  98              		.cfi_def_cfa_offset 0
  99 000a 7047     		bx	lr
 100              		.cfi_endproc
 101              	.LFE64:
 102              		.size	enc_resume_background, .-enc_resume_background
 103              		.section	.text.enc_reset_local,"ax",%progbits
 104              		.align	2
 105              		.thumb
 106              		.thumb_func
 107              		.type	enc_reset_local, %function
 108              	enc_reset_local:
 109              	.LFB65:
  60:directions.c  **** 
  61:directions.c  **** static inline void enc_reset_local(void)
  62:directions.c  **** {
ARM GAS  C:\Users\ylee818\AppData\Local\Temp\ccYmMVJ5.s 			page 4


 110              		.loc 1 62 0
 111              		.cfi_startproc
 112              		@ args = 0, pretend = 0, frame = 0
 113              		@ frame_needed = 1, uses_anonymous_args = 0
 114              		@ link register save eliminated.
 115 0000 80B4     		push	{r7}
 116              		.cfi_def_cfa_offset 4
 117              		.cfi_offset 7, -4
 118 0002 00AF     		add	r7, sp, #0
 119              		.cfi_def_cfa_register 7
  63:directions.c  **** #if defined(QuadDec_M1_SetCounter) && defined(QuadDec_M2_SetCounter)
  64:directions.c  ****     QuadDec_M1_SetCounter(0);
  65:directions.c  ****     QuadDec_M2_SetCounter(0);
  66:directions.c  **** #endif
  67:directions.c  ****     s_acc_ticks = 0;
 120              		.loc 1 67 0
 121 0004 034B     		ldr	r3, .L4
 122 0006 0022     		movs	r2, #0
 123 0008 1A60     		str	r2, [r3]
  68:directions.c  **** }
 124              		.loc 1 68 0
 125 000a 00BF     		nop
 126 000c BD46     		mov	sp, r7
 127              		.cfi_def_cfa_register 13
 128              		@ sp needed
 129 000e 80BC     		pop	{r7}
 130              		.cfi_restore 7
 131              		.cfi_def_cfa_offset 0
 132 0010 7047     		bx	lr
 133              	.L5:
 134 0012 00BF     		.align	2
 135              	.L4:
 136 0014 08000000 		.word	s_acc_ticks
 137              		.cfi_endproc
 138              	.LFE65:
 139              		.size	enc_reset_local, .-enc_reset_local
 140              		.section	.text.enc_accumulate_now,"ax",%progbits
 141              		.align	2
 142              		.thumb
 143              		.thumb_func
 144              		.type	enc_accumulate_now, %function
 145              	enc_accumulate_now:
 146              	.LFB66:
  69:directions.c  **** 
  70:directions.c  **** /* Accumulate |ΔL| + |ΔR| since last call, then zero counters */
  71:directions.c  **** static inline void enc_accumulate_now(void)
  72:directions.c  **** {
 147              		.loc 1 72 0
 148              		.cfi_startproc
 149              		@ args = 0, pretend = 0, frame = 8
 150              		@ frame_needed = 1, uses_anonymous_args = 0
 151              		@ link register save eliminated.
 152 0000 80B4     		push	{r7}
 153              		.cfi_def_cfa_offset 4
 154              		.cfi_offset 7, -4
 155 0002 83B0     		sub	sp, sp, #12
 156              		.cfi_def_cfa_offset 16
ARM GAS  C:\Users\ylee818\AppData\Local\Temp\ccYmMVJ5.s 			page 5


 157 0004 00AF     		add	r7, sp, #0
 158              		.cfi_def_cfa_register 7
  73:directions.c  ****     int32_t dL = 0, dR = 0;
 159              		.loc 1 73 0
 160 0006 0023     		movs	r3, #0
 161 0008 7B60     		str	r3, [r7, #4]
 162 000a 0023     		movs	r3, #0
 163 000c 3B60     		str	r3, [r7]
  74:directions.c  **** #if defined(QuadDec_M1_GetCounter) && defined(QuadDec_M2_GetCounter)
  75:directions.c  ****     dL = QuadDec_M1_GetCounter();
  76:directions.c  ****     dR = QuadDec_M2_GetCounter();
  77:directions.c  ****     QuadDec_M1_SetCounter(0);
  78:directions.c  ****     QuadDec_M2_SetCounter(0);
  79:directions.c  **** #endif
  80:directions.c  ****     if (dL < 0) dL = -dL;
 164              		.loc 1 80 0
 165 000e 7B68     		ldr	r3, [r7, #4]
 166 0010 002B     		cmp	r3, #0
 167 0012 02DA     		bge	.L7
 168              		.loc 1 80 0 is_stmt 0 discriminator 1
 169 0014 7B68     		ldr	r3, [r7, #4]
 170 0016 5B42     		negs	r3, r3
 171 0018 7B60     		str	r3, [r7, #4]
 172              	.L7:
  81:directions.c  ****     if (dR < 0) dR = -dR;
 173              		.loc 1 81 0 is_stmt 1
 174 001a 3B68     		ldr	r3, [r7]
 175 001c 002B     		cmp	r3, #0
 176 001e 02DA     		bge	.L8
 177              		.loc 1 81 0 is_stmt 0 discriminator 1
 178 0020 3B68     		ldr	r3, [r7]
 179 0022 5B42     		negs	r3, r3
 180 0024 3B60     		str	r3, [r7]
 181              	.L8:
  82:directions.c  ****     s_acc_ticks += (dL + dR);
 182              		.loc 1 82 0 is_stmt 1
 183 0026 7A68     		ldr	r2, [r7, #4]
 184 0028 3B68     		ldr	r3, [r7]
 185 002a 1A44     		add	r2, r2, r3
 186 002c 044B     		ldr	r3, .L9
 187 002e 1B68     		ldr	r3, [r3]
 188 0030 1344     		add	r3, r3, r2
 189 0032 034A     		ldr	r2, .L9
 190 0034 1360     		str	r3, [r2]
  83:directions.c  **** }
 191              		.loc 1 83 0
 192 0036 00BF     		nop
 193 0038 0C37     		adds	r7, r7, #12
 194              		.cfi_def_cfa_offset 4
 195 003a BD46     		mov	sp, r7
 196              		.cfi_def_cfa_register 13
 197              		@ sp needed
 198 003c 80BC     		pop	{r7}
 199              		.cfi_restore 7
 200              		.cfi_def_cfa_offset 0
 201 003e 7047     		bx	lr
 202              	.L10:
ARM GAS  C:\Users\ylee818\AppData\Local\Temp\ccYmMVJ5.s 			page 6


 203              		.align	2
 204              	.L9:
 205 0040 08000000 		.word	s_acc_ticks
 206              		.cfi_endproc
 207              	.LFE66:
 208              		.size	enc_accumulate_now, .-enc_accumulate_now
 209              		.section	.text.pivot_left_speed,"ax",%progbits
 210              		.align	2
 211              		.thumb
 212              		.thumb_func
 213              		.type	pivot_left_speed, %function
 214              	pivot_left_speed:
 215              	.LFB67:
  84:directions.c  **** 
  85:directions.c  **** /* ---------------- Motor helpers (spin-in-place) ----------------
  86:directions.c  ****  * If your hardware can’t reverse, change these to skid turns:
  87:directions.c  ****  *  - left:  left=0,  right=+PIVOT_SPEED_PC
  88:directions.c  ****  *  - right: left=+PIVOT_SPEED_PC, right=0
  89:directions.c  ****  */
  90:directions.c  **** static void pivot_left_speed(int pct)
  91:directions.c  **** {
 216              		.loc 1 91 0
 217              		.cfi_startproc
 218              		@ args = 0, pretend = 0, frame = 24
 219              		@ frame_needed = 1, uses_anonymous_args = 0
 220 0000 80B5     		push	{r7, lr}
 221              		.cfi_def_cfa_offset 8
 222              		.cfi_offset 7, -8
 223              		.cfi_offset 14, -4
 224 0002 86B0     		sub	sp, sp, #24
 225              		.cfi_def_cfa_offset 32
 226 0004 00AF     		add	r7, sp, #0
 227              		.cfi_def_cfa_register 7
 228 0006 7860     		str	r0, [r7, #4]
  92:directions.c  ****     int L = -pct;   // reverse
 229              		.loc 1 92 0
 230 0008 7B68     		ldr	r3, [r7, #4]
 231 000a 5B42     		negs	r3, r3
 232 000c 7B61     		str	r3, [r7, #20]
  93:directions.c  ****     int R = +pct;   // forward
 233              		.loc 1 93 0
 234 000e 7B68     		ldr	r3, [r7, #4]
 235 0010 3B61     		str	r3, [r7, #16]
  94:directions.c  ****     int base  = (L + R) / 2;
 236              		.loc 1 94 0
 237 0012 7A69     		ldr	r2, [r7, #20]
 238 0014 3B69     		ldr	r3, [r7, #16]
 239 0016 1344     		add	r3, r3, r2
 240 0018 DA0F     		lsrs	r2, r3, #31
 241 001a 1344     		add	r3, r3, r2
 242 001c 5B10     		asrs	r3, r3, #1
 243 001e FB60     		str	r3, [r7, #12]
  95:directions.c  ****     int steer = (R - L) / 2;
 244              		.loc 1 95 0
 245 0020 3A69     		ldr	r2, [r7, #16]
 246 0022 7B69     		ldr	r3, [r7, #20]
 247 0024 D31A     		subs	r3, r2, r3
ARM GAS  C:\Users\ylee818\AppData\Local\Temp\ccYmMVJ5.s 			page 7


 248 0026 DA0F     		lsrs	r2, r3, #31
 249 0028 1344     		add	r3, r3, r2
 250 002a 5B10     		asrs	r3, r3, #1
 251 002c BB60     		str	r3, [r7, #8]
  96:directions.c  ****     set_motors_with_trim_and_steer(base, steer);
 252              		.loc 1 96 0
 253 002e B968     		ldr	r1, [r7, #8]
 254 0030 F868     		ldr	r0, [r7, #12]
 255 0032 FFF7FEFF 		bl	set_motors_with_trim_and_steer
  97:directions.c  **** }
 256              		.loc 1 97 0
 257 0036 00BF     		nop
 258 0038 1837     		adds	r7, r7, #24
 259              		.cfi_def_cfa_offset 8
 260 003a BD46     		mov	sp, r7
 261              		.cfi_def_cfa_register 13
 262              		@ sp needed
 263 003c 80BD     		pop	{r7, pc}
 264              		.cfi_endproc
 265              	.LFE67:
 266              		.size	pivot_left_speed, .-pivot_left_speed
 267 003e 00BF     		.section	.text.pivot_right_speed,"ax",%progbits
 268              		.align	2
 269              		.thumb
 270              		.thumb_func
 271              		.type	pivot_right_speed, %function
 272              	pivot_right_speed:
 273              	.LFB68:
  98:directions.c  **** 
  99:directions.c  **** static void pivot_right_speed(int pct)
 100:directions.c  **** {
 274              		.loc 1 100 0
 275              		.cfi_startproc
 276              		@ args = 0, pretend = 0, frame = 24
 277              		@ frame_needed = 1, uses_anonymous_args = 0
 278 0000 80B5     		push	{r7, lr}
 279              		.cfi_def_cfa_offset 8
 280              		.cfi_offset 7, -8
 281              		.cfi_offset 14, -4
 282 0002 86B0     		sub	sp, sp, #24
 283              		.cfi_def_cfa_offset 32
 284 0004 00AF     		add	r7, sp, #0
 285              		.cfi_def_cfa_register 7
 286 0006 7860     		str	r0, [r7, #4]
 101:directions.c  ****     int L = +pct;
 287              		.loc 1 101 0
 288 0008 7B68     		ldr	r3, [r7, #4]
 289 000a 7B61     		str	r3, [r7, #20]
 102:directions.c  ****     int R = -pct;
 290              		.loc 1 102 0
 291 000c 7B68     		ldr	r3, [r7, #4]
 292 000e 5B42     		negs	r3, r3
 293 0010 3B61     		str	r3, [r7, #16]
 103:directions.c  ****     int base  = (L + R) / 2;
 294              		.loc 1 103 0
 295 0012 7A69     		ldr	r2, [r7, #20]
 296 0014 3B69     		ldr	r3, [r7, #16]
ARM GAS  C:\Users\ylee818\AppData\Local\Temp\ccYmMVJ5.s 			page 8


 297 0016 1344     		add	r3, r3, r2
 298 0018 DA0F     		lsrs	r2, r3, #31
 299 001a 1344     		add	r3, r3, r2
 300 001c 5B10     		asrs	r3, r3, #1
 301 001e FB60     		str	r3, [r7, #12]
 104:directions.c  ****     int steer = (R - L) / 2;
 302              		.loc 1 104 0
 303 0020 3A69     		ldr	r2, [r7, #16]
 304 0022 7B69     		ldr	r3, [r7, #20]
 305 0024 D31A     		subs	r3, r2, r3
 306 0026 DA0F     		lsrs	r2, r3, #31
 307 0028 1344     		add	r3, r3, r2
 308 002a 5B10     		asrs	r3, r3, #1
 309 002c BB60     		str	r3, [r7, #8]
 105:directions.c  ****     set_motors_with_trim_and_steer(base, steer);
 310              		.loc 1 105 0
 311 002e B968     		ldr	r1, [r7, #8]
 312 0030 F868     		ldr	r0, [r7, #12]
 313 0032 FFF7FEFF 		bl	set_motors_with_trim_and_steer
 106:directions.c  **** }
 314              		.loc 1 106 0
 315 0036 00BF     		nop
 316 0038 1837     		adds	r7, r7, #24
 317              		.cfi_def_cfa_offset 8
 318 003a BD46     		mov	sp, r7
 319              		.cfi_def_cfa_register 13
 320              		@ sp needed
 321 003c 80BD     		pop	{r7, pc}
 322              		.cfi_endproc
 323              	.LFE68:
 324              		.size	pivot_right_speed, .-pivot_right_speed
 325 003e 00BF     		.section	.text.finish_and_release,"ax",%progbits
 326              		.align	2
 327              		.thumb
 328              		.thumb_func
 329              		.type	finish_and_release, %function
 330              	finish_and_release:
 331              	.LFB69:
 107:directions.c  **** 
 108:directions.c  **** /* Ensure we always exit cleanly and release to straight */
 109:directions.c  **** static void finish_and_release(volatile uint8_t* p_dir)
 110:directions.c  **** {
 332              		.loc 1 110 0
 333              		.cfi_startproc
 334              		@ args = 0, pretend = 0, frame = 8
 335              		@ frame_needed = 1, uses_anonymous_args = 0
 336 0000 80B5     		push	{r7, lr}
 337              		.cfi_def_cfa_offset 8
 338              		.cfi_offset 7, -8
 339              		.cfi_offset 14, -4
 340 0002 82B0     		sub	sp, sp, #8
 341              		.cfi_def_cfa_offset 16
 342 0004 00AF     		add	r7, sp, #0
 343              		.cfi_def_cfa_register 7
 344 0006 7860     		str	r0, [r7, #4]
 111:directions.c  ****     /* Stop motion and brief brake/coast window */
 112:directions.c  ****     set_motors_symmetric(0);
ARM GAS  C:\Users\ylee818\AppData\Local\Temp\ccYmMVJ5.s 			page 9


 345              		.loc 1 112 0
 346 0008 0020     		movs	r0, #0
 347 000a FFF7FEFF 		bl	set_motors_symmetric
 113:directions.c  ****     CyDelay(BRAKE_AFTER_MS);
 348              		.loc 1 113 0
 349 000e 5A20     		movs	r0, #90
 350 0010 FFF7FEFF 		bl	CyDelay
 114:directions.c  **** 
 115:directions.c  ****     /* Give counters back to the background task */
 116:directions.c  ****     enc_resume_background();
 351              		.loc 1 116 0
 352 0014 FFF7FEFF 		bl	enc_resume_background
 117:directions.c  ****     enc_reset_local();
 353              		.loc 1 117 0
 354 0018 FFF7FEFF 		bl	enc_reset_local
 118:directions.c  **** 
 119:directions.c  ****     /* Release to straight and reset our state machine */
 120:directions.c  ****     if (p_dir) *p_dir = 0u;
 355              		.loc 1 120 0
 356 001c 7B68     		ldr	r3, [r7, #4]
 357 001e 002B     		cmp	r3, #0
 358 0020 02D0     		beq	.L14
 359              		.loc 1 120 0 is_stmt 0 discriminator 1
 360 0022 7B68     		ldr	r3, [r7, #4]
 361 0024 0022     		movs	r2, #0
 362 0026 1A70     		strb	r2, [r3]
 363              	.L14:
 121:directions.c  ****     s_state = DIR_IDLE;
 364              		.loc 1 121 0 is_stmt 1
 365 0028 094B     		ldr	r3, .L15
 366 002a 0022     		movs	r2, #0
 367 002c 1A70     		strb	r2, [r3]
 122:directions.c  ****     s_turn_side = 0u;
 368              		.loc 1 122 0
 369 002e 094B     		ldr	r3, .L15+4
 370 0030 0022     		movs	r2, #0
 371 0032 1A70     		strb	r2, [r3]
 123:directions.c  ****     s_target_ticks = 0;
 372              		.loc 1 123 0
 373 0034 084B     		ldr	r3, .L15+8
 374 0036 0022     		movs	r2, #0
 375 0038 1A60     		str	r2, [r3]
 124:directions.c  ****     s_acc_ticks = 0;
 376              		.loc 1 124 0
 377 003a 084B     		ldr	r3, .L15+12
 378 003c 0022     		movs	r2, #0
 379 003e 1A60     		str	r2, [r3]
 125:directions.c  ****     s_safety_count = 0;
 380              		.loc 1 125 0
 381 0040 074B     		ldr	r3, .L15+16
 382 0042 0022     		movs	r2, #0
 383 0044 1A80     		strh	r2, [r3]	@ movhi
 126:directions.c  **** }
 384              		.loc 1 126 0
 385 0046 00BF     		nop
 386 0048 0837     		adds	r7, r7, #8
 387              		.cfi_def_cfa_offset 8
ARM GAS  C:\Users\ylee818\AppData\Local\Temp\ccYmMVJ5.s 			page 10


 388 004a BD46     		mov	sp, r7
 389              		.cfi_def_cfa_register 13
 390              		@ sp needed
 391 004c 80BD     		pop	{r7, pc}
 392              	.L16:
 393 004e 00BF     		.align	2
 394              	.L15:
 395 0050 00000000 		.word	s_state
 396 0054 01000000 		.word	s_turn_side
 397 0058 04000000 		.word	s_target_ticks
 398 005c 08000000 		.word	s_acc_ticks
 399 0060 0C000000 		.word	s_safety_count
 400              		.cfi_endproc
 401              	.LFE69:
 402              		.size	finish_and_release, .-finish_and_release
 403              		.section	.text.Directions_Init,"ax",%progbits
 404              		.align	2
 405              		.global	Directions_Init
 406              		.thumb
 407              		.thumb_func
 408              		.type	Directions_Init, %function
 409              	Directions_Init:
 410              	.LFB70:
 127:directions.c  **** 
 128:directions.c  **** /* ======================= Public API ======================= */
 129:directions.c  **** 
 130:directions.c  **** void Directions_Init(void)
 131:directions.c  **** {
 411              		.loc 1 131 0
 412              		.cfi_startproc
 413              		@ args = 0, pretend = 0, frame = 0
 414              		@ frame_needed = 1, uses_anonymous_args = 0
 415              		@ link register save eliminated.
 416 0000 80B4     		push	{r7}
 417              		.cfi_def_cfa_offset 4
 418              		.cfi_offset 7, -4
 419 0002 00AF     		add	r7, sp, #0
 420              		.cfi_def_cfa_register 7
 132:directions.c  ****     s_state = DIR_IDLE;
 421              		.loc 1 132 0
 422 0004 094B     		ldr	r3, .L18
 423 0006 0022     		movs	r2, #0
 424 0008 1A70     		strb	r2, [r3]
 133:directions.c  ****     s_turn_side = 0u;
 425              		.loc 1 133 0
 426 000a 094B     		ldr	r3, .L18+4
 427 000c 0022     		movs	r2, #0
 428 000e 1A70     		strb	r2, [r3]
 134:directions.c  ****     s_target_ticks = 0;
 429              		.loc 1 134 0
 430 0010 084B     		ldr	r3, .L18+8
 431 0012 0022     		movs	r2, #0
 432 0014 1A60     		str	r2, [r3]
 135:directions.c  ****     s_acc_ticks = 0;
 433              		.loc 1 135 0
 434 0016 084B     		ldr	r3, .L18+12
 435 0018 0022     		movs	r2, #0
ARM GAS  C:\Users\ylee818\AppData\Local\Temp\ccYmMVJ5.s 			page 11


 436 001a 1A60     		str	r2, [r3]
 136:directions.c  ****     s_safety_count = 0;
 437              		.loc 1 136 0
 438 001c 074B     		ldr	r3, .L18+16
 439 001e 0022     		movs	r2, #0
 440 0020 1A80     		strh	r2, [r3]	@ movhi
 137:directions.c  **** }
 441              		.loc 1 137 0
 442 0022 00BF     		nop
 443 0024 BD46     		mov	sp, r7
 444              		.cfi_def_cfa_register 13
 445              		@ sp needed
 446 0026 80BC     		pop	{r7}
 447              		.cfi_restore 7
 448              		.cfi_def_cfa_offset 0
 449 0028 7047     		bx	lr
 450              	.L19:
 451 002a 00BF     		.align	2
 452              	.L18:
 453 002c 00000000 		.word	s_state
 454 0030 01000000 		.word	s_turn_side
 455 0034 04000000 		.word	s_target_ticks
 456 0038 08000000 		.word	s_acc_ticks
 457 003c 0C000000 		.word	s_safety_count
 458              		.cfi_endproc
 459              	.LFE70:
 460              		.size	Directions_Init, .-Directions_Init
 461              		.section	.text.Directions_Handle,"ax",%progbits
 462              		.align	2
 463              		.global	Directions_Handle
 464              		.thumb
 465              		.thumb_func
 466              		.type	Directions_Handle, %function
 467              	Directions_Handle:
 468              	.LFB71:
 138:directions.c  **** 
 139:directions.c  **** void Directions_Handle(volatile uint8_t* p_dir)
 140:directions.c  **** {
 469              		.loc 1 140 0
 470              		.cfi_startproc
 471              		@ args = 0, pretend = 0, frame = 16
 472              		@ frame_needed = 1, uses_anonymous_args = 0
 473 0000 80B5     		push	{r7, lr}
 474              		.cfi_def_cfa_offset 8
 475              		.cfi_offset 7, -8
 476              		.cfi_offset 14, -4
 477 0002 84B0     		sub	sp, sp, #16
 478              		.cfi_def_cfa_offset 24
 479 0004 00AF     		add	r7, sp, #0
 480              		.cfi_def_cfa_register 7
 481 0006 7860     		str	r0, [r7, #4]
 141:directions.c  ****     const uint8_t req = (p_dir ? *p_dir : 0u);
 482              		.loc 1 141 0
 483 0008 7B68     		ldr	r3, [r7, #4]
 484 000a 002B     		cmp	r3, #0
 485 000c 03D0     		beq	.L21
 486              		.loc 1 141 0 is_stmt 0 discriminator 1
ARM GAS  C:\Users\ylee818\AppData\Local\Temp\ccYmMVJ5.s 			page 12


 487 000e 7B68     		ldr	r3, [r7, #4]
 488 0010 1B78     		ldrb	r3, [r3]
 489 0012 DBB2     		uxtb	r3, r3
 490 0014 00E0     		b	.L22
 491              	.L21:
 492              		.loc 1 141 0 discriminator 2
 493 0016 0023     		movs	r3, #0
 494              	.L22:
 495              		.loc 1 141 0 discriminator 4
 496 0018 FB73     		strb	r3, [r7, #15]
 142:directions.c  **** 
 143:directions.c  ****     switch (s_state)
 497              		.loc 1 143 0 is_stmt 1 discriminator 4
 498 001a 344B     		ldr	r3, .L39
 499 001c 1B78     		ldrb	r3, [r3]	@ zero_extendqisi2
 500 001e 022B     		cmp	r3, #2
 501 0020 2ED0     		beq	.L24
 502 0022 032B     		cmp	r3, #3
 503 0024 52D0     		beq	.L25
 504 0026 002B     		cmp	r3, #0
 505 0028 54D1     		bne	.L36
 144:directions.c  ****     {
 145:directions.c  ****     case DIR_IDLE:
 146:directions.c  ****         if (req == 1u || req == 2u) {
 506              		.loc 1 146 0
 507 002a FB7B     		ldrb	r3, [r7, #15]	@ zero_extendqisi2
 508 002c 012B     		cmp	r3, #1
 509 002e 02D0     		beq	.L27
 510              		.loc 1 146 0 is_stmt 0 discriminator 1
 511 0030 FB7B     		ldrb	r3, [r7, #15]	@ zero_extendqisi2
 512 0032 022B     		cmp	r3, #2
 513 0034 52D1     		bne	.L37
 514              	.L27:
 147:directions.c  ****             /* Stop, settle, pause encoders, zero counters */
 148:directions.c  ****             set_motors_symmetric(0);
 515              		.loc 1 148 0 is_stmt 1
 516 0036 0020     		movs	r0, #0
 517 0038 FFF7FEFF 		bl	set_motors_symmetric
 149:directions.c  ****             motor_enable(0u, 0u);
 518              		.loc 1 149 0
 519 003c 0021     		movs	r1, #0
 520 003e 0020     		movs	r0, #0
 521 0040 FFF7FEFF 		bl	motor_enable
 150:directions.c  ****             CyDelay(STOP_BEFORE_MS);
 522              		.loc 1 150 0
 523 0044 5020     		movs	r0, #80
 524 0046 FFF7FEFF 		bl	CyDelay
 151:directions.c  **** 
 152:directions.c  ****             enc_pause_background();
 525              		.loc 1 152 0
 526 004a FFF7FEFF 		bl	enc_pause_background
 153:directions.c  ****             enc_reset_local();
 527              		.loc 1 153 0
 528 004e FFF7FEFF 		bl	enc_reset_local
 154:directions.c  **** 
 155:directions.c  ****             s_turn_side = req; /* latch side */
 529              		.loc 1 155 0
ARM GAS  C:\Users\ylee818\AppData\Local\Temp\ccYmMVJ5.s 			page 13


 530 0052 274A     		ldr	r2, .L39+4
 531 0054 FB7B     		ldrb	r3, [r7, #15]
 532 0056 1370     		strb	r3, [r2]
 156:directions.c  ****             s_target_ticks = (req == 1u) ? TICKS_90_LEFT : TICKS_90_RIGHT;
 533              		.loc 1 156 0
 534 0058 FB7B     		ldrb	r3, [r7, #15]	@ zero_extendqisi2
 535 005a 012B     		cmp	r3, #1
 536 005c 02D1     		bne	.L29
 537              		.loc 1 156 0 is_stmt 0 discriminator 1
 538 005e 254B     		ldr	r3, .L39+8
 539 0060 1B68     		ldr	r3, [r3]
 540 0062 01E0     		b	.L30
 541              	.L29:
 542              		.loc 1 156 0 discriminator 2
 543 0064 244B     		ldr	r3, .L39+12
 544 0066 1B68     		ldr	r3, [r3]
 545              	.L30:
 546              		.loc 1 156 0 discriminator 4
 547 0068 244A     		ldr	r2, .L39+16
 548 006a 1360     		str	r3, [r2]
 157:directions.c  ****             s_acc_ticks = 0;
 549              		.loc 1 157 0 is_stmt 1 discriminator 4
 550 006c 244B     		ldr	r3, .L39+20
 551 006e 0022     		movs	r2, #0
 552 0070 1A60     		str	r2, [r3]
 158:directions.c  ****             s_safety_count = 0;
 553              		.loc 1 158 0 discriminator 4
 554 0072 244B     		ldr	r3, .L39+24
 555 0074 0022     		movs	r2, #0
 556 0076 1A80     		strh	r2, [r3]	@ movhi
 159:directions.c  ****             s_state = DIR_TURNING;
 557              		.loc 1 159 0 discriminator 4
 558 0078 1C4B     		ldr	r3, .L39
 559 007a 0222     		movs	r2, #2
 560 007c 1A70     		strb	r2, [r3]
 160:directions.c  ****         }
 161:directions.c  ****         break;
 561              		.loc 1 161 0 discriminator 4
 562 007e 2DE0     		b	.L37
 563              	.L24:
 162:directions.c  **** 
 163:directions.c  ****     case DIR_TURNING:
 164:directions.c  ****         /* Drive the pivot */
 165:directions.c  ****         if (s_turn_side == 1u) {
 564              		.loc 1 165 0
 565 0080 1B4B     		ldr	r3, .L39+4
 566 0082 1B78     		ldrb	r3, [r3]	@ zero_extendqisi2
 567 0084 012B     		cmp	r3, #1
 568 0086 03D1     		bne	.L32
 166:directions.c  ****             pivot_left_speed(PIVOT_SPEED_PC);
 569              		.loc 1 166 0
 570 0088 1C20     		movs	r0, #28
 571 008a FFF7FEFF 		bl	pivot_left_speed
 572 008e 02E0     		b	.L33
 573              	.L32:
 167:directions.c  ****         } else {
 168:directions.c  ****             pivot_right_speed(PIVOT_SPEED_PC);
ARM GAS  C:\Users\ylee818\AppData\Local\Temp\ccYmMVJ5.s 			page 14


 574              		.loc 1 168 0
 575 0090 1C20     		movs	r0, #28
 576 0092 FFF7FEFF 		bl	pivot_right_speed
 577              	.L33:
 169:directions.c  ****         }
 170:directions.c  **** 
 171:directions.c  ****         /* Progress + safety */
 172:directions.c  ****         enc_accumulate_now();
 578              		.loc 1 172 0
 579 0096 FFF7FEFF 		bl	enc_accumulate_now
 173:directions.c  ****         if (++s_safety_count > MAX_TURN_HANDLER_TICKS) {
 580              		.loc 1 173 0
 581 009a 1A4B     		ldr	r3, .L39+24
 582 009c 1B88     		ldrh	r3, [r3]
 583 009e 0133     		adds	r3, r3, #1
 584 00a0 9AB2     		uxth	r2, r3
 585 00a2 184B     		ldr	r3, .L39+24
 586 00a4 1A80     		strh	r2, [r3]	@ movhi
 587 00a6 174B     		ldr	r3, .L39+24
 588 00a8 1B88     		ldrh	r3, [r3]
 589 00aa B3F5C87F 		cmp	r3, #400
 590 00ae 03D9     		bls	.L34
 174:directions.c  ****             /* Fail-safe: bail out even if encoders misbehave */
 175:directions.c  ****             finish_and_release(p_dir);
 591              		.loc 1 175 0
 592 00b0 7868     		ldr	r0, [r7, #4]
 593 00b2 FFF7FEFF 		bl	finish_and_release
 176:directions.c  ****             break;
 594              		.loc 1 176 0
 595 00b6 14E0     		b	.L31
 596              	.L34:
 177:directions.c  ****         }
 178:directions.c  **** 
 179:directions.c  ****         /* Done? */
 180:directions.c  ****         if (s_acc_ticks >= s_target_ticks) {
 597              		.loc 1 180 0
 598 00b8 114B     		ldr	r3, .L39+20
 599 00ba 1A68     		ldr	r2, [r3]
 600 00bc 0F4B     		ldr	r3, .L39+16
 601 00be 1B68     		ldr	r3, [r3]
 602 00c0 9A42     		cmp	r2, r3
 603 00c2 0DDB     		blt	.L38
 181:directions.c  ****             s_state = DIR_FINISH;
 604              		.loc 1 181 0
 605 00c4 094B     		ldr	r3, .L39
 606 00c6 0322     		movs	r2, #3
 607 00c8 1A70     		strb	r2, [r3]
 182:directions.c  ****         }
 183:directions.c  ****         break;
 608              		.loc 1 183 0
 609 00ca 09E0     		b	.L38
 610              	.L25:
 184:directions.c  **** 
 185:directions.c  ****     case DIR_FINISH:
 186:directions.c  ****         /* One last stop; then release to straight */
 187:directions.c  ****         finish_and_release(p_dir);
 611              		.loc 1 187 0
ARM GAS  C:\Users\ylee818\AppData\Local\Temp\ccYmMVJ5.s 			page 15


 612 00cc 7868     		ldr	r0, [r7, #4]
 613 00ce FFF7FEFF 		bl	finish_and_release
 188:directions.c  ****         break;
 614              		.loc 1 188 0
 615 00d2 06E0     		b	.L31
 616              	.L36:
 189:directions.c  **** 
 190:directions.c  ****     default:
 191:directions.c  ****         /* Shouldn’t happen, but recover gracefully */
 192:directions.c  ****         finish_and_release(p_dir);
 617              		.loc 1 192 0
 618 00d4 7868     		ldr	r0, [r7, #4]
 619 00d6 FFF7FEFF 		bl	finish_and_release
 193:directions.c  ****         break;
 620              		.loc 1 193 0
 621 00da 02E0     		b	.L31
 622              	.L37:
 161:directions.c  **** 
 623              		.loc 1 161 0
 624 00dc 00BF     		nop
 625 00de 00E0     		b	.L31
 626              	.L38:
 183:directions.c  **** 
 627              		.loc 1 183 0
 628 00e0 00BF     		nop
 629              	.L31:
 194:directions.c  ****     }
 195:directions.c  **** }
 630              		.loc 1 195 0
 631 00e2 00BF     		nop
 632 00e4 1037     		adds	r7, r7, #16
 633              		.cfi_def_cfa_offset 8
 634 00e6 BD46     		mov	sp, r7
 635              		.cfi_def_cfa_register 13
 636              		@ sp needed
 637 00e8 80BD     		pop	{r7, pc}
 638              	.L40:
 639 00ea 00BF     		.align	2
 640              	.L39:
 641 00ec 00000000 		.word	s_state
 642 00f0 01000000 		.word	s_turn_side
 643 00f4 00000000 		.word	TICKS_90_LEFT
 644 00f8 04000000 		.word	TICKS_90_RIGHT
 645 00fc 04000000 		.word	s_target_ticks
 646 0100 08000000 		.word	s_acc_ticks
 647 0104 0C000000 		.word	s_safety_count
 648              		.cfi_endproc
 649              	.LFE71:
 650              		.size	Directions_Handle, .-Directions_Handle
 651              		.text
 652              	.Letext0:
 653              		.file 2 "c:\\program files (x86)\\cypress\\psoc creator\\4.2\\psoc creator\\import\\gnu\\arm\\5.4.
 654              		.file 3 "c:\\program files (x86)\\cypress\\psoc creator\\4.2\\psoc creator\\import\\gnu\\arm\\5.4.
 655              		.file 4 "Generated_Source\\PSoC5/core_cm3.h"