ARM GAS  C:\Users\ylee818\AppData\Local\Temp\ccugIPnv.s 			page 1


   1              		.syntax unified
   2              		.cpu cortex-m3
   3              		.fpu softvfp
   4              		.eabi_attribute 20, 1
   5              		.eabi_attribute 21, 1
   6              		.eabi_attribute 23, 3
   7              		.eabi_attribute 24, 1
   8              		.eabi_attribute 25, 1
   9              		.eabi_attribute 26, 1
  10              		.eabi_attribute 30, 6
  11              		.eabi_attribute 34, 1
  12              		.eabi_attribute 18, 4
  13              		.thumb
  14              		.syntax unified
  15              		.file	"isr_eoc.c"
  16              		.text
  17              	.Ltext0:
  18              		.cfi_sections	.debug_frame
  19              		.section	.text.isr_eoc_Start,"ax",%progbits
  20              		.align	2
  21              		.global	isr_eoc_Start
  22              		.thumb
  23              		.thumb_func
  24              		.type	isr_eoc_Start, %function
  25              	isr_eoc_Start:
  26              	.LFB63:
  27              		.file 1 "Generated_Source\\PSoC5\\isr_eoc.c"
   1:Generated_Source\PSoC5/isr_eoc.c **** /*******************************************************************************
   2:Generated_Source\PSoC5/isr_eoc.c **** * File Name: isr_eoc.c  
   3:Generated_Source\PSoC5/isr_eoc.c **** * Version 1.71
   4:Generated_Source\PSoC5/isr_eoc.c **** *
   5:Generated_Source\PSoC5/isr_eoc.c **** *  Description:
   6:Generated_Source\PSoC5/isr_eoc.c **** *   API for controlling the state of an interrupt.
   7:Generated_Source\PSoC5/isr_eoc.c **** *
   8:Generated_Source\PSoC5/isr_eoc.c **** *
   9:Generated_Source\PSoC5/isr_eoc.c **** *  Note:
  10:Generated_Source\PSoC5/isr_eoc.c **** *
  11:Generated_Source\PSoC5/isr_eoc.c **** ********************************************************************************
  12:Generated_Source\PSoC5/isr_eoc.c **** * Copyright 2008-2015, Cypress Semiconductor Corporation.  All rights reserved.
  13:Generated_Source\PSoC5/isr_eoc.c **** * You may use this file only in accordance with the license, terms, conditions, 
  14:Generated_Source\PSoC5/isr_eoc.c **** * disclaimers, and limitations in the end user license agreement accompanying 
  15:Generated_Source\PSoC5/isr_eoc.c **** * the software package with which this file was provided.
  16:Generated_Source\PSoC5/isr_eoc.c **** *******************************************************************************/
  17:Generated_Source\PSoC5/isr_eoc.c **** 
  18:Generated_Source\PSoC5/isr_eoc.c **** 
  19:Generated_Source\PSoC5/isr_eoc.c **** #include <cydevice_trm.h>
  20:Generated_Source\PSoC5/isr_eoc.c **** #include <CyLib.h>
  21:Generated_Source\PSoC5/isr_eoc.c **** #include <isr_eoc.h>
  22:Generated_Source\PSoC5/isr_eoc.c **** 
  23:Generated_Source\PSoC5/isr_eoc.c **** 
  24:Generated_Source\PSoC5/isr_eoc.c **** #if !defined(isr_eoc__REMOVED) /* Check for removal by optimization */
  25:Generated_Source\PSoC5/isr_eoc.c **** 
  26:Generated_Source\PSoC5/isr_eoc.c **** /*******************************************************************************
  27:Generated_Source\PSoC5/isr_eoc.c **** *  Place your includes, defines and code here 
  28:Generated_Source\PSoC5/isr_eoc.c **** ********************************************************************************/
  29:Generated_Source\PSoC5/isr_eoc.c **** /* `#START isr_eoc_intc` */
  30:Generated_Source\PSoC5/isr_eoc.c **** #include <project.h>   
ARM GAS  C:\Users\ylee818\AppData\Local\Temp\ccugIPnv.s 			page 2


  31:Generated_Source\PSoC5/isr_eoc.c **** #include "defines.h"
  32:Generated_Source\PSoC5/isr_eoc.c **** extern uint16 adcvalue[8];
  33:Generated_Source\PSoC5/isr_eoc.c **** extern uint8 dataready_flag;
  34:Generated_Source\PSoC5/isr_eoc.c **** /* `#END` */
  35:Generated_Source\PSoC5/isr_eoc.c **** 
  36:Generated_Source\PSoC5/isr_eoc.c **** #ifndef CYINT_IRQ_BASE
  37:Generated_Source\PSoC5/isr_eoc.c **** #define CYINT_IRQ_BASE      16
  38:Generated_Source\PSoC5/isr_eoc.c **** #endif /* CYINT_IRQ_BASE */
  39:Generated_Source\PSoC5/isr_eoc.c **** #ifndef CYINT_VECT_TABLE
  40:Generated_Source\PSoC5/isr_eoc.c **** #define CYINT_VECT_TABLE    ((cyisraddress **) CYREG_NVIC_VECT_OFFSET)
  41:Generated_Source\PSoC5/isr_eoc.c **** #endif /* CYINT_VECT_TABLE */
  42:Generated_Source\PSoC5/isr_eoc.c **** 
  43:Generated_Source\PSoC5/isr_eoc.c **** /* Declared in startup, used to set unused interrupts to. */
  44:Generated_Source\PSoC5/isr_eoc.c **** CY_ISR_PROTO(IntDefaultHandler);
  45:Generated_Source\PSoC5/isr_eoc.c **** 
  46:Generated_Source\PSoC5/isr_eoc.c **** 
  47:Generated_Source\PSoC5/isr_eoc.c **** /*******************************************************************************
  48:Generated_Source\PSoC5/isr_eoc.c **** * Function Name: isr_eoc_Start
  49:Generated_Source\PSoC5/isr_eoc.c **** ********************************************************************************
  50:Generated_Source\PSoC5/isr_eoc.c **** *
  51:Generated_Source\PSoC5/isr_eoc.c **** * Summary:
  52:Generated_Source\PSoC5/isr_eoc.c **** *  Set up the interrupt and enable it. This function disables the interrupt, 
  53:Generated_Source\PSoC5/isr_eoc.c **** *  sets the default interrupt vector, sets the priority from the value in the
  54:Generated_Source\PSoC5/isr_eoc.c **** *  Design Wide Resources Interrupt Editor, then enables the interrupt to the 
  55:Generated_Source\PSoC5/isr_eoc.c **** *  interrupt controller.
  56:Generated_Source\PSoC5/isr_eoc.c **** *
  57:Generated_Source\PSoC5/isr_eoc.c **** * Parameters:  
  58:Generated_Source\PSoC5/isr_eoc.c **** *   None
  59:Generated_Source\PSoC5/isr_eoc.c **** *
  60:Generated_Source\PSoC5/isr_eoc.c **** * Return:
  61:Generated_Source\PSoC5/isr_eoc.c **** *   None
  62:Generated_Source\PSoC5/isr_eoc.c **** *
  63:Generated_Source\PSoC5/isr_eoc.c **** *******************************************************************************/
  64:Generated_Source\PSoC5/isr_eoc.c **** void isr_eoc_Start(void)
  65:Generated_Source\PSoC5/isr_eoc.c **** {
  28              		.loc 1 65 0
  29              		.cfi_startproc
  30              		@ args = 0, pretend = 0, frame = 0
  31              		@ frame_needed = 1, uses_anonymous_args = 0
  32 0000 80B5     		push	{r7, lr}
  33              		.cfi_def_cfa_offset 8
  34              		.cfi_offset 7, -8
  35              		.cfi_offset 14, -4
  36 0002 00AF     		add	r7, sp, #0
  37              		.cfi_def_cfa_register 7
  66:Generated_Source\PSoC5/isr_eoc.c ****     /* For all we know the interrupt is active. */
  67:Generated_Source\PSoC5/isr_eoc.c ****     isr_eoc_Disable();
  38              		.loc 1 67 0
  39 0004 FFF7FEFF 		bl	isr_eoc_Disable
  68:Generated_Source\PSoC5/isr_eoc.c **** 
  69:Generated_Source\PSoC5/isr_eoc.c ****     /* Set the ISR to point to the isr_eoc Interrupt. */
  70:Generated_Source\PSoC5/isr_eoc.c ****     isr_eoc_SetVector(&isr_eoc_Interrupt);
  40              		.loc 1 70 0
  41 0008 0448     		ldr	r0, .L2
  42 000a FFF7FEFF 		bl	isr_eoc_SetVector
  71:Generated_Source\PSoC5/isr_eoc.c **** 
  72:Generated_Source\PSoC5/isr_eoc.c ****     /* Set the priority. */
ARM GAS  C:\Users\ylee818\AppData\Local\Temp\ccugIPnv.s 			page 3


  73:Generated_Source\PSoC5/isr_eoc.c ****     isr_eoc_SetPriority((uint8)isr_eoc_INTC_PRIOR_NUMBER);
  43              		.loc 1 73 0
  44 000e 0720     		movs	r0, #7
  45 0010 FFF7FEFF 		bl	isr_eoc_SetPriority
  74:Generated_Source\PSoC5/isr_eoc.c **** 
  75:Generated_Source\PSoC5/isr_eoc.c ****     /* Enable it. */
  76:Generated_Source\PSoC5/isr_eoc.c ****     isr_eoc_Enable();
  46              		.loc 1 76 0
  47 0014 FFF7FEFF 		bl	isr_eoc_Enable
  77:Generated_Source\PSoC5/isr_eoc.c **** }
  48              		.loc 1 77 0
  49 0018 00BF     		nop
  50 001a 80BD     		pop	{r7, pc}
  51              	.L3:
  52              		.align	2
  53              	.L2:
  54 001c 00000000 		.word	isr_eoc_Interrupt
  55              		.cfi_endproc
  56              	.LFE63:
  57              		.size	isr_eoc_Start, .-isr_eoc_Start
  58              		.section	.text.isr_eoc_StartEx,"ax",%progbits
  59              		.align	2
  60              		.global	isr_eoc_StartEx
  61              		.thumb
  62              		.thumb_func
  63              		.type	isr_eoc_StartEx, %function
  64              	isr_eoc_StartEx:
  65              	.LFB64:
  78:Generated_Source\PSoC5/isr_eoc.c **** 
  79:Generated_Source\PSoC5/isr_eoc.c **** 
  80:Generated_Source\PSoC5/isr_eoc.c **** /*******************************************************************************
  81:Generated_Source\PSoC5/isr_eoc.c **** * Function Name: isr_eoc_StartEx
  82:Generated_Source\PSoC5/isr_eoc.c **** ********************************************************************************
  83:Generated_Source\PSoC5/isr_eoc.c **** *
  84:Generated_Source\PSoC5/isr_eoc.c **** * Summary:
  85:Generated_Source\PSoC5/isr_eoc.c **** *  Sets up the interrupt and enables it. This function disables the interrupt,
  86:Generated_Source\PSoC5/isr_eoc.c **** *  sets the interrupt vector based on the address passed in, sets the priority 
  87:Generated_Source\PSoC5/isr_eoc.c **** *  from the value in the Design Wide Resources Interrupt Editor, then enables 
  88:Generated_Source\PSoC5/isr_eoc.c **** *  the interrupt to the interrupt controller.
  89:Generated_Source\PSoC5/isr_eoc.c **** *  
  90:Generated_Source\PSoC5/isr_eoc.c **** *  When defining ISR functions, the CY_ISR and CY_ISR_PROTO macros should be 
  91:Generated_Source\PSoC5/isr_eoc.c **** *  used to provide consistent definition across compilers:
  92:Generated_Source\PSoC5/isr_eoc.c **** *  
  93:Generated_Source\PSoC5/isr_eoc.c **** *  Function definition example:
  94:Generated_Source\PSoC5/isr_eoc.c **** *   CY_ISR(MyISR)
  95:Generated_Source\PSoC5/isr_eoc.c **** *   {
  96:Generated_Source\PSoC5/isr_eoc.c **** *   }
  97:Generated_Source\PSoC5/isr_eoc.c **** *   Function prototype example:
  98:Generated_Source\PSoC5/isr_eoc.c **** *   CY_ISR_PROTO(MyISR);
  99:Generated_Source\PSoC5/isr_eoc.c **** *
 100:Generated_Source\PSoC5/isr_eoc.c **** * Parameters:  
 101:Generated_Source\PSoC5/isr_eoc.c **** *   address: Address of the ISR to set in the interrupt vector table.
 102:Generated_Source\PSoC5/isr_eoc.c **** *
 103:Generated_Source\PSoC5/isr_eoc.c **** * Return:
 104:Generated_Source\PSoC5/isr_eoc.c **** *   None
 105:Generated_Source\PSoC5/isr_eoc.c **** *
 106:Generated_Source\PSoC5/isr_eoc.c **** *******************************************************************************/
ARM GAS  C:\Users\ylee818\AppData\Local\Temp\ccugIPnv.s 			page 4


 107:Generated_Source\PSoC5/isr_eoc.c **** void isr_eoc_StartEx(cyisraddress address)
 108:Generated_Source\PSoC5/isr_eoc.c **** {
  66              		.loc 1 108 0
  67              		.cfi_startproc
  68              		@ args = 0, pretend = 0, frame = 8
  69              		@ frame_needed = 1, uses_anonymous_args = 0
  70 0000 80B5     		push	{r7, lr}
  71              		.cfi_def_cfa_offset 8
  72              		.cfi_offset 7, -8
  73              		.cfi_offset 14, -4
  74 0002 82B0     		sub	sp, sp, #8
  75              		.cfi_def_cfa_offset 16
  76 0004 00AF     		add	r7, sp, #0
  77              		.cfi_def_cfa_register 7
  78 0006 7860     		str	r0, [r7, #4]
 109:Generated_Source\PSoC5/isr_eoc.c ****     /* For all we know the interrupt is active. */
 110:Generated_Source\PSoC5/isr_eoc.c ****     isr_eoc_Disable();
  79              		.loc 1 110 0
  80 0008 FFF7FEFF 		bl	isr_eoc_Disable
 111:Generated_Source\PSoC5/isr_eoc.c **** 
 112:Generated_Source\PSoC5/isr_eoc.c ****     /* Set the ISR to point to the isr_eoc Interrupt. */
 113:Generated_Source\PSoC5/isr_eoc.c ****     isr_eoc_SetVector(address);
  81              		.loc 1 113 0
  82 000c 7868     		ldr	r0, [r7, #4]
  83 000e FFF7FEFF 		bl	isr_eoc_SetVector
 114:Generated_Source\PSoC5/isr_eoc.c **** 
 115:Generated_Source\PSoC5/isr_eoc.c ****     /* Set the priority. */
 116:Generated_Source\PSoC5/isr_eoc.c ****     isr_eoc_SetPriority((uint8)isr_eoc_INTC_PRIOR_NUMBER);
  84              		.loc 1 116 0
  85 0012 0720     		movs	r0, #7
  86 0014 FFF7FEFF 		bl	isr_eoc_SetPriority
 117:Generated_Source\PSoC5/isr_eoc.c **** 
 118:Generated_Source\PSoC5/isr_eoc.c ****     /* Enable it. */
 119:Generated_Source\PSoC5/isr_eoc.c ****     isr_eoc_Enable();
  87              		.loc 1 119 0
  88 0018 FFF7FEFF 		bl	isr_eoc_Enable
 120:Generated_Source\PSoC5/isr_eoc.c **** }
  89              		.loc 1 120 0
  90 001c 00BF     		nop
  91 001e 0837     		adds	r7, r7, #8
  92              		.cfi_def_cfa_offset 8
  93 0020 BD46     		mov	sp, r7
  94              		.cfi_def_cfa_register 13
  95              		@ sp needed
  96 0022 80BD     		pop	{r7, pc}
  97              		.cfi_endproc
  98              	.LFE64:
  99              		.size	isr_eoc_StartEx, .-isr_eoc_StartEx
 100              		.section	.text.isr_eoc_Stop,"ax",%progbits
 101              		.align	2
 102              		.global	isr_eoc_Stop
 103              		.thumb
 104              		.thumb_func
 105              		.type	isr_eoc_Stop, %function
 106              	isr_eoc_Stop:
 107              	.LFB65:
 121:Generated_Source\PSoC5/isr_eoc.c **** 
ARM GAS  C:\Users\ylee818\AppData\Local\Temp\ccugIPnv.s 			page 5


 122:Generated_Source\PSoC5/isr_eoc.c **** 
 123:Generated_Source\PSoC5/isr_eoc.c **** /*******************************************************************************
 124:Generated_Source\PSoC5/isr_eoc.c **** * Function Name: isr_eoc_Stop
 125:Generated_Source\PSoC5/isr_eoc.c **** ********************************************************************************
 126:Generated_Source\PSoC5/isr_eoc.c **** *
 127:Generated_Source\PSoC5/isr_eoc.c **** * Summary:
 128:Generated_Source\PSoC5/isr_eoc.c **** *   Disables and removes the interrupt.
 129:Generated_Source\PSoC5/isr_eoc.c **** *
 130:Generated_Source\PSoC5/isr_eoc.c **** * Parameters:  
 131:Generated_Source\PSoC5/isr_eoc.c **** *   None
 132:Generated_Source\PSoC5/isr_eoc.c **** *
 133:Generated_Source\PSoC5/isr_eoc.c **** * Return:
 134:Generated_Source\PSoC5/isr_eoc.c **** *   None
 135:Generated_Source\PSoC5/isr_eoc.c **** *
 136:Generated_Source\PSoC5/isr_eoc.c **** *******************************************************************************/
 137:Generated_Source\PSoC5/isr_eoc.c **** void isr_eoc_Stop(void)
 138:Generated_Source\PSoC5/isr_eoc.c **** {
 108              		.loc 1 138 0
 109              		.cfi_startproc
 110              		@ args = 0, pretend = 0, frame = 0
 111              		@ frame_needed = 1, uses_anonymous_args = 0
 112 0000 80B5     		push	{r7, lr}
 113              		.cfi_def_cfa_offset 8
 114              		.cfi_offset 7, -8
 115              		.cfi_offset 14, -4
 116 0002 00AF     		add	r7, sp, #0
 117              		.cfi_def_cfa_register 7
 139:Generated_Source\PSoC5/isr_eoc.c ****     /* Disable this interrupt. */
 140:Generated_Source\PSoC5/isr_eoc.c ****     isr_eoc_Disable();
 118              		.loc 1 140 0
 119 0004 FFF7FEFF 		bl	isr_eoc_Disable
 141:Generated_Source\PSoC5/isr_eoc.c **** 
 142:Generated_Source\PSoC5/isr_eoc.c ****     /* Set the ISR to point to the passive one. */
 143:Generated_Source\PSoC5/isr_eoc.c ****     isr_eoc_SetVector(&IntDefaultHandler);
 120              		.loc 1 143 0
 121 0008 0248     		ldr	r0, .L6
 122 000a FFF7FEFF 		bl	isr_eoc_SetVector
 144:Generated_Source\PSoC5/isr_eoc.c **** }
 123              		.loc 1 144 0
 124 000e 00BF     		nop
 125 0010 80BD     		pop	{r7, pc}
 126              	.L7:
 127 0012 00BF     		.align	2
 128              	.L6:
 129 0014 00000000 		.word	IntDefaultHandler
 130              		.cfi_endproc
 131              	.LFE65:
 132              		.size	isr_eoc_Stop, .-isr_eoc_Stop
 133              		.section	.text.isr_eoc_Interrupt,"ax",%progbits
 134              		.align	2
 135              		.global	isr_eoc_Interrupt
 136              		.thumb
 137              		.thumb_func
 138              		.type	isr_eoc_Interrupt, %function
 139              	isr_eoc_Interrupt:
 140              	.LFB66:
 145:Generated_Source\PSoC5/isr_eoc.c **** 
ARM GAS  C:\Users\ylee818\AppData\Local\Temp\ccugIPnv.s 			page 6


 146:Generated_Source\PSoC5/isr_eoc.c **** 
 147:Generated_Source\PSoC5/isr_eoc.c **** /*******************************************************************************
 148:Generated_Source\PSoC5/isr_eoc.c **** * Function Name: isr_eoc_Interrupt
 149:Generated_Source\PSoC5/isr_eoc.c **** ********************************************************************************
 150:Generated_Source\PSoC5/isr_eoc.c **** *
 151:Generated_Source\PSoC5/isr_eoc.c **** * Summary:
 152:Generated_Source\PSoC5/isr_eoc.c **** *   The default Interrupt Service Routine for isr_eoc.
 153:Generated_Source\PSoC5/isr_eoc.c **** *
 154:Generated_Source\PSoC5/isr_eoc.c **** *   Add custom code between the coments to keep the next version of this file
 155:Generated_Source\PSoC5/isr_eoc.c **** *   from over writting your code.
 156:Generated_Source\PSoC5/isr_eoc.c **** *
 157:Generated_Source\PSoC5/isr_eoc.c **** * Parameters:  
 158:Generated_Source\PSoC5/isr_eoc.c **** *
 159:Generated_Source\PSoC5/isr_eoc.c **** * Return:
 160:Generated_Source\PSoC5/isr_eoc.c **** *   None
 161:Generated_Source\PSoC5/isr_eoc.c **** *
 162:Generated_Source\PSoC5/isr_eoc.c **** *******************************************************************************/
 163:Generated_Source\PSoC5/isr_eoc.c **** CY_ISR(isr_eoc_Interrupt)
 164:Generated_Source\PSoC5/isr_eoc.c **** {
 141              		.loc 1 164 0
 142              		.cfi_startproc
 143              		@ args = 0, pretend = 0, frame = 0
 144              		@ frame_needed = 1, uses_anonymous_args = 0
 145 0000 80B5     		push	{r7, lr}
 146              		.cfi_def_cfa_offset 8
 147              		.cfi_offset 7, -8
 148              		.cfi_offset 14, -4
 149 0002 00AF     		add	r7, sp, #0
 150              		.cfi_def_cfa_register 7
 165:Generated_Source\PSoC5/isr_eoc.c ****     #ifdef isr_eoc_INTERRUPT_INTERRUPT_CALLBACK
 166:Generated_Source\PSoC5/isr_eoc.c ****         isr_eoc_Interrupt_InterruptCallback();
 167:Generated_Source\PSoC5/isr_eoc.c ****     #endif /* isr_eoc_INTERRUPT_INTERRUPT_CALLBACK */ 
 168:Generated_Source\PSoC5/isr_eoc.c **** 
 169:Generated_Source\PSoC5/isr_eoc.c ****     /*  Place your Interrupt code here. */
 170:Generated_Source\PSoC5/isr_eoc.c ****     /* `#START isr_eoc_Interrupt` */
 171:Generated_Source\PSoC5/isr_eoc.c ****     adcvalue[0] = ADC_GetResult16(0);
 151              		.loc 1 171 0
 152 0004 0020     		movs	r0, #0
 153 0006 FFF7FEFF 		bl	ADC_GetResult16
 154 000a 0346     		mov	r3, r0
 155 000c 9AB2     		uxth	r2, r3
 156 000e 1C4B     		ldr	r3, .L9
 157 0010 1A80     		strh	r2, [r3]	@ movhi
 172:Generated_Source\PSoC5/isr_eoc.c ****     adcvalue[1] = ADC_GetResult16(1);
 158              		.loc 1 172 0
 159 0012 0120     		movs	r0, #1
 160 0014 FFF7FEFF 		bl	ADC_GetResult16
 161 0018 0346     		mov	r3, r0
 162 001a 9AB2     		uxth	r2, r3
 163 001c 184B     		ldr	r3, .L9
 164 001e 5A80     		strh	r2, [r3, #2]	@ movhi
 173:Generated_Source\PSoC5/isr_eoc.c ****     adcvalue[2] = ADC_GetResult16(2);
 165              		.loc 1 173 0
 166 0020 0220     		movs	r0, #2
 167 0022 FFF7FEFF 		bl	ADC_GetResult16
 168 0026 0346     		mov	r3, r0
 169 0028 9AB2     		uxth	r2, r3
ARM GAS  C:\Users\ylee818\AppData\Local\Temp\ccugIPnv.s 			page 7


 170 002a 154B     		ldr	r3, .L9
 171 002c 9A80     		strh	r2, [r3, #4]	@ movhi
 174:Generated_Source\PSoC5/isr_eoc.c ****     adcvalue[3] = ADC_GetResult16(3);
 172              		.loc 1 174 0
 173 002e 0320     		movs	r0, #3
 174 0030 FFF7FEFF 		bl	ADC_GetResult16
 175 0034 0346     		mov	r3, r0
 176 0036 9AB2     		uxth	r2, r3
 177 0038 114B     		ldr	r3, .L9
 178 003a DA80     		strh	r2, [r3, #6]	@ movhi
 175:Generated_Source\PSoC5/isr_eoc.c ****     adcvalue[4] = ADC_GetResult16(4);
 179              		.loc 1 175 0
 180 003c 0420     		movs	r0, #4
 181 003e FFF7FEFF 		bl	ADC_GetResult16
 182 0042 0346     		mov	r3, r0
 183 0044 9AB2     		uxth	r2, r3
 184 0046 0E4B     		ldr	r3, .L9
 185 0048 1A81     		strh	r2, [r3, #8]	@ movhi
 176:Generated_Source\PSoC5/isr_eoc.c ****     adcvalue[5] = ADC_GetResult16(5);
 186              		.loc 1 176 0
 187 004a 0520     		movs	r0, #5
 188 004c FFF7FEFF 		bl	ADC_GetResult16
 189 0050 0346     		mov	r3, r0
 190 0052 9AB2     		uxth	r2, r3
 191 0054 0A4B     		ldr	r3, .L9
 192 0056 5A81     		strh	r2, [r3, #10]	@ movhi
 177:Generated_Source\PSoC5/isr_eoc.c ****     adcvalue[6] = ADC_GetResult16(6);
 193              		.loc 1 177 0
 194 0058 0620     		movs	r0, #6
 195 005a FFF7FEFF 		bl	ADC_GetResult16
 196 005e 0346     		mov	r3, r0
 197 0060 9AB2     		uxth	r2, r3
 198 0062 074B     		ldr	r3, .L9
 199 0064 9A81     		strh	r2, [r3, #12]	@ movhi
 178:Generated_Source\PSoC5/isr_eoc.c ****     adcvalue[7] = ADC_GetResult16(7);
 200              		.loc 1 178 0
 201 0066 0720     		movs	r0, #7
 202 0068 FFF7FEFF 		bl	ADC_GetResult16
 203 006c 0346     		mov	r3, r0
 204 006e 9AB2     		uxth	r2, r3
 205 0070 034B     		ldr	r3, .L9
 206 0072 DA81     		strh	r2, [r3, #14]	@ movhi
 179:Generated_Source\PSoC5/isr_eoc.c ****     dataready_flag = 1;
 207              		.loc 1 179 0
 208 0074 034B     		ldr	r3, .L9+4
 209 0076 0122     		movs	r2, #1
 210 0078 1A70     		strb	r2, [r3]
 180:Generated_Source\PSoC5/isr_eoc.c **** 
 181:Generated_Source\PSoC5/isr_eoc.c ****     /* `#END` */
 182:Generated_Source\PSoC5/isr_eoc.c **** }
 211              		.loc 1 182 0
 212 007a 00BF     		nop
 213 007c 80BD     		pop	{r7, pc}
 214              	.L10:
 215 007e 00BF     		.align	2
 216              	.L9:
 217 0080 00000000 		.word	adcvalue
ARM GAS  C:\Users\ylee818\AppData\Local\Temp\ccugIPnv.s 			page 8


 218 0084 00000000 		.word	dataready_flag
 219              		.cfi_endproc
 220              	.LFE66:
 221              		.size	isr_eoc_Interrupt, .-isr_eoc_Interrupt
 222              		.section	.text.isr_eoc_SetVector,"ax",%progbits
 223              		.align	2
 224              		.global	isr_eoc_SetVector
 225              		.thumb
 226              		.thumb_func
 227              		.type	isr_eoc_SetVector, %function
 228              	isr_eoc_SetVector:
 229              	.LFB67:
 183:Generated_Source\PSoC5/isr_eoc.c **** 
 184:Generated_Source\PSoC5/isr_eoc.c **** 
 185:Generated_Source\PSoC5/isr_eoc.c **** /*******************************************************************************
 186:Generated_Source\PSoC5/isr_eoc.c **** * Function Name: isr_eoc_SetVector
 187:Generated_Source\PSoC5/isr_eoc.c **** ********************************************************************************
 188:Generated_Source\PSoC5/isr_eoc.c **** *
 189:Generated_Source\PSoC5/isr_eoc.c **** * Summary:
 190:Generated_Source\PSoC5/isr_eoc.c **** *   Change the ISR vector for the Interrupt. Note calling isr_eoc_Start
 191:Generated_Source\PSoC5/isr_eoc.c **** *   will override any effect this method would have had. To set the vector 
 192:Generated_Source\PSoC5/isr_eoc.c **** *   before the component has been started use isr_eoc_StartEx instead.
 193:Generated_Source\PSoC5/isr_eoc.c **** * 
 194:Generated_Source\PSoC5/isr_eoc.c **** *   When defining ISR functions, the CY_ISR and CY_ISR_PROTO macros should be 
 195:Generated_Source\PSoC5/isr_eoc.c **** *   used to provide consistent definition across compilers:
 196:Generated_Source\PSoC5/isr_eoc.c **** *
 197:Generated_Source\PSoC5/isr_eoc.c **** *   Function definition example:
 198:Generated_Source\PSoC5/isr_eoc.c **** *   CY_ISR(MyISR)
 199:Generated_Source\PSoC5/isr_eoc.c **** *   {
 200:Generated_Source\PSoC5/isr_eoc.c **** *   }
 201:Generated_Source\PSoC5/isr_eoc.c **** *
 202:Generated_Source\PSoC5/isr_eoc.c **** *   Function prototype example:
 203:Generated_Source\PSoC5/isr_eoc.c **** *     CY_ISR_PROTO(MyISR);
 204:Generated_Source\PSoC5/isr_eoc.c **** *
 205:Generated_Source\PSoC5/isr_eoc.c **** * Parameters:
 206:Generated_Source\PSoC5/isr_eoc.c **** *   address: Address of the ISR to set in the interrupt vector table.
 207:Generated_Source\PSoC5/isr_eoc.c **** *
 208:Generated_Source\PSoC5/isr_eoc.c **** * Return:
 209:Generated_Source\PSoC5/isr_eoc.c **** *   None
 210:Generated_Source\PSoC5/isr_eoc.c **** *
 211:Generated_Source\PSoC5/isr_eoc.c **** *******************************************************************************/
 212:Generated_Source\PSoC5/isr_eoc.c **** void isr_eoc_SetVector(cyisraddress address)
 213:Generated_Source\PSoC5/isr_eoc.c **** {
 230              		.loc 1 213 0
 231              		.cfi_startproc
 232              		@ args = 0, pretend = 0, frame = 16
 233              		@ frame_needed = 1, uses_anonymous_args = 0
 234              		@ link register save eliminated.
 235 0000 80B4     		push	{r7}
 236              		.cfi_def_cfa_offset 4
 237              		.cfi_offset 7, -4
 238 0002 85B0     		sub	sp, sp, #20
 239              		.cfi_def_cfa_offset 24
 240 0004 00AF     		add	r7, sp, #0
 241              		.cfi_def_cfa_register 7
 242 0006 7860     		str	r0, [r7, #4]
 214:Generated_Source\PSoC5/isr_eoc.c ****     cyisraddress * ramVectorTable;
ARM GAS  C:\Users\ylee818\AppData\Local\Temp\ccugIPnv.s 			page 9


 215:Generated_Source\PSoC5/isr_eoc.c **** 
 216:Generated_Source\PSoC5/isr_eoc.c ****     ramVectorTable = (cyisraddress *) *CYINT_VECT_TABLE;
 243              		.loc 1 216 0
 244 0008 054B     		ldr	r3, .L12
 245 000a 1B68     		ldr	r3, [r3]
 246 000c FB60     		str	r3, [r7, #12]
 217:Generated_Source\PSoC5/isr_eoc.c **** 
 218:Generated_Source\PSoC5/isr_eoc.c ****     ramVectorTable[CYINT_IRQ_BASE + (uint32)isr_eoc__INTC_NUMBER] = address;
 247              		.loc 1 218 0
 248 000e FB68     		ldr	r3, [r7, #12]
 249 0010 5C33     		adds	r3, r3, #92
 250 0012 7A68     		ldr	r2, [r7, #4]
 251 0014 1A60     		str	r2, [r3]
 219:Generated_Source\PSoC5/isr_eoc.c **** }
 252              		.loc 1 219 0
 253 0016 00BF     		nop
 254 0018 1437     		adds	r7, r7, #20
 255              		.cfi_def_cfa_offset 4
 256 001a BD46     		mov	sp, r7
 257              		.cfi_def_cfa_register 13
 258              		@ sp needed
 259 001c 80BC     		pop	{r7}
 260              		.cfi_restore 7
 261              		.cfi_def_cfa_offset 0
 262 001e 7047     		bx	lr
 263              	.L13:
 264              		.align	2
 265              	.L12:
 266 0020 08ED00E0 		.word	-536810232
 267              		.cfi_endproc
 268              	.LFE67:
 269              		.size	isr_eoc_SetVector, .-isr_eoc_SetVector
 270              		.section	.text.isr_eoc_GetVector,"ax",%progbits
 271              		.align	2
 272              		.global	isr_eoc_GetVector
 273              		.thumb
 274              		.thumb_func
 275              		.type	isr_eoc_GetVector, %function
 276              	isr_eoc_GetVector:
 277              	.LFB68:
 220:Generated_Source\PSoC5/isr_eoc.c **** 
 221:Generated_Source\PSoC5/isr_eoc.c **** 
 222:Generated_Source\PSoC5/isr_eoc.c **** /*******************************************************************************
 223:Generated_Source\PSoC5/isr_eoc.c **** * Function Name: isr_eoc_GetVector
 224:Generated_Source\PSoC5/isr_eoc.c **** ********************************************************************************
 225:Generated_Source\PSoC5/isr_eoc.c **** *
 226:Generated_Source\PSoC5/isr_eoc.c **** * Summary:
 227:Generated_Source\PSoC5/isr_eoc.c **** *   Gets the "address" of the current ISR vector for the Interrupt.
 228:Generated_Source\PSoC5/isr_eoc.c **** *
 229:Generated_Source\PSoC5/isr_eoc.c **** * Parameters:
 230:Generated_Source\PSoC5/isr_eoc.c **** *   None
 231:Generated_Source\PSoC5/isr_eoc.c **** *
 232:Generated_Source\PSoC5/isr_eoc.c **** * Return:
 233:Generated_Source\PSoC5/isr_eoc.c **** *   Address of the ISR in the interrupt vector table.
 234:Generated_Source\PSoC5/isr_eoc.c **** *
 235:Generated_Source\PSoC5/isr_eoc.c **** *******************************************************************************/
 236:Generated_Source\PSoC5/isr_eoc.c **** cyisraddress isr_eoc_GetVector(void)
ARM GAS  C:\Users\ylee818\AppData\Local\Temp\ccugIPnv.s 			page 10


 237:Generated_Source\PSoC5/isr_eoc.c **** {
 278              		.loc 1 237 0
 279              		.cfi_startproc
 280              		@ args = 0, pretend = 0, frame = 8
 281              		@ frame_needed = 1, uses_anonymous_args = 0
 282              		@ link register save eliminated.
 283 0000 80B4     		push	{r7}
 284              		.cfi_def_cfa_offset 4
 285              		.cfi_offset 7, -4
 286 0002 83B0     		sub	sp, sp, #12
 287              		.cfi_def_cfa_offset 16
 288 0004 00AF     		add	r7, sp, #0
 289              		.cfi_def_cfa_register 7
 238:Generated_Source\PSoC5/isr_eoc.c ****     cyisraddress * ramVectorTable;
 239:Generated_Source\PSoC5/isr_eoc.c **** 
 240:Generated_Source\PSoC5/isr_eoc.c ****     ramVectorTable = (cyisraddress *) *CYINT_VECT_TABLE;
 290              		.loc 1 240 0
 291 0006 054B     		ldr	r3, .L16
 292 0008 1B68     		ldr	r3, [r3]
 293 000a 7B60     		str	r3, [r7, #4]
 241:Generated_Source\PSoC5/isr_eoc.c **** 
 242:Generated_Source\PSoC5/isr_eoc.c ****     return ramVectorTable[CYINT_IRQ_BASE + (uint32)isr_eoc__INTC_NUMBER];
 294              		.loc 1 242 0
 295 000c 7B68     		ldr	r3, [r7, #4]
 296 000e DB6D     		ldr	r3, [r3, #92]
 243:Generated_Source\PSoC5/isr_eoc.c **** }
 297              		.loc 1 243 0
 298 0010 1846     		mov	r0, r3
 299 0012 0C37     		adds	r7, r7, #12
 300              		.cfi_def_cfa_offset 4
 301 0014 BD46     		mov	sp, r7
 302              		.cfi_def_cfa_register 13
 303              		@ sp needed
 304 0016 80BC     		pop	{r7}
 305              		.cfi_restore 7
 306              		.cfi_def_cfa_offset 0
 307 0018 7047     		bx	lr
 308              	.L17:
 309 001a 00BF     		.align	2
 310              	.L16:
 311 001c 08ED00E0 		.word	-536810232
 312              		.cfi_endproc
 313              	.LFE68:
 314              		.size	isr_eoc_GetVector, .-isr_eoc_GetVector
 315              		.section	.text.isr_eoc_SetPriority,"ax",%progbits
 316              		.align	2
 317              		.global	isr_eoc_SetPriority
 318              		.thumb
 319              		.thumb_func
 320              		.type	isr_eoc_SetPriority, %function
 321              	isr_eoc_SetPriority:
 322              	.LFB69:
 244:Generated_Source\PSoC5/isr_eoc.c **** 
 245:Generated_Source\PSoC5/isr_eoc.c **** 
 246:Generated_Source\PSoC5/isr_eoc.c **** /*******************************************************************************
 247:Generated_Source\PSoC5/isr_eoc.c **** * Function Name: isr_eoc_SetPriority
 248:Generated_Source\PSoC5/isr_eoc.c **** ********************************************************************************
ARM GAS  C:\Users\ylee818\AppData\Local\Temp\ccugIPnv.s 			page 11


 249:Generated_Source\PSoC5/isr_eoc.c **** *
 250:Generated_Source\PSoC5/isr_eoc.c **** * Summary:
 251:Generated_Source\PSoC5/isr_eoc.c **** *   Sets the Priority of the Interrupt. 
 252:Generated_Source\PSoC5/isr_eoc.c **** *
 253:Generated_Source\PSoC5/isr_eoc.c **** *   Note calling isr_eoc_Start or isr_eoc_StartEx will 
 254:Generated_Source\PSoC5/isr_eoc.c **** *   override any effect this API would have had. This API should only be called
 255:Generated_Source\PSoC5/isr_eoc.c **** *   after isr_eoc_Start or isr_eoc_StartEx has been called. 
 256:Generated_Source\PSoC5/isr_eoc.c **** *   To set the initial priority for the component, use the Design-Wide Resources
 257:Generated_Source\PSoC5/isr_eoc.c **** *   Interrupt Editor.
 258:Generated_Source\PSoC5/isr_eoc.c **** *
 259:Generated_Source\PSoC5/isr_eoc.c **** *   Note This API has no effect on Non-maskable interrupt NMI).
 260:Generated_Source\PSoC5/isr_eoc.c **** *
 261:Generated_Source\PSoC5/isr_eoc.c **** * Parameters:
 262:Generated_Source\PSoC5/isr_eoc.c **** *   priority: Priority of the interrupt, 0 being the highest priority
 263:Generated_Source\PSoC5/isr_eoc.c **** *             PSoC 3 and PSoC 5LP: Priority is from 0 to 7.
 264:Generated_Source\PSoC5/isr_eoc.c **** *             PSoC 4: Priority is from 0 to 3.
 265:Generated_Source\PSoC5/isr_eoc.c **** *
 266:Generated_Source\PSoC5/isr_eoc.c **** * Return:
 267:Generated_Source\PSoC5/isr_eoc.c **** *   None
 268:Generated_Source\PSoC5/isr_eoc.c **** *
 269:Generated_Source\PSoC5/isr_eoc.c **** *******************************************************************************/
 270:Generated_Source\PSoC5/isr_eoc.c **** void isr_eoc_SetPriority(uint8 priority)
 271:Generated_Source\PSoC5/isr_eoc.c **** {
 323              		.loc 1 271 0
 324              		.cfi_startproc
 325              		@ args = 0, pretend = 0, frame = 8
 326              		@ frame_needed = 1, uses_anonymous_args = 0
 327              		@ link register save eliminated.
 328 0000 80B4     		push	{r7}
 329              		.cfi_def_cfa_offset 4
 330              		.cfi_offset 7, -4
 331 0002 83B0     		sub	sp, sp, #12
 332              		.cfi_def_cfa_offset 16
 333 0004 00AF     		add	r7, sp, #0
 334              		.cfi_def_cfa_register 7
 335 0006 0346     		mov	r3, r0
 336 0008 FB71     		strb	r3, [r7, #7]
 272:Generated_Source\PSoC5/isr_eoc.c ****     *isr_eoc_INTC_PRIOR = priority << 5;
 337              		.loc 1 272 0
 338 000a 054A     		ldr	r2, .L19
 339 000c FB79     		ldrb	r3, [r7, #7]
 340 000e 5B01     		lsls	r3, r3, #5
 341 0010 DBB2     		uxtb	r3, r3
 342 0012 1370     		strb	r3, [r2]
 273:Generated_Source\PSoC5/isr_eoc.c **** }
 343              		.loc 1 273 0
 344 0014 00BF     		nop
 345 0016 0C37     		adds	r7, r7, #12
 346              		.cfi_def_cfa_offset 4
 347 0018 BD46     		mov	sp, r7
 348              		.cfi_def_cfa_register 13
 349              		@ sp needed
 350 001a 80BC     		pop	{r7}
 351              		.cfi_restore 7
 352              		.cfi_def_cfa_offset 0
 353 001c 7047     		bx	lr
 354              	.L20:
ARM GAS  C:\Users\ylee818\AppData\Local\Temp\ccugIPnv.s 			page 12


 355 001e 00BF     		.align	2
 356              	.L19:
 357 0020 07E400E0 		.word	-536812537
 358              		.cfi_endproc
 359              	.LFE69:
 360              		.size	isr_eoc_SetPriority, .-isr_eoc_SetPriority
 361              		.section	.text.isr_eoc_GetPriority,"ax",%progbits
 362              		.align	2
 363              		.global	isr_eoc_GetPriority
 364              		.thumb
 365              		.thumb_func
 366              		.type	isr_eoc_GetPriority, %function
 367              	isr_eoc_GetPriority:
 368              	.LFB70:
 274:Generated_Source\PSoC5/isr_eoc.c **** 
 275:Generated_Source\PSoC5/isr_eoc.c **** 
 276:Generated_Source\PSoC5/isr_eoc.c **** /*******************************************************************************
 277:Generated_Source\PSoC5/isr_eoc.c **** * Function Name: isr_eoc_GetPriority
 278:Generated_Source\PSoC5/isr_eoc.c **** ********************************************************************************
 279:Generated_Source\PSoC5/isr_eoc.c **** *
 280:Generated_Source\PSoC5/isr_eoc.c **** * Summary:
 281:Generated_Source\PSoC5/isr_eoc.c **** *   Gets the Priority of the Interrupt.
 282:Generated_Source\PSoC5/isr_eoc.c **** *
 283:Generated_Source\PSoC5/isr_eoc.c **** * Parameters:
 284:Generated_Source\PSoC5/isr_eoc.c **** *   None
 285:Generated_Source\PSoC5/isr_eoc.c **** *
 286:Generated_Source\PSoC5/isr_eoc.c **** * Return:
 287:Generated_Source\PSoC5/isr_eoc.c **** *   Priority of the interrupt, 0 being the highest priority
 288:Generated_Source\PSoC5/isr_eoc.c **** *    PSoC 3 and PSoC 5LP: Priority is from 0 to 7.
 289:Generated_Source\PSoC5/isr_eoc.c **** *    PSoC 4: Priority is from 0 to 3.
 290:Generated_Source\PSoC5/isr_eoc.c **** *
 291:Generated_Source\PSoC5/isr_eoc.c **** *******************************************************************************/
 292:Generated_Source\PSoC5/isr_eoc.c **** uint8 isr_eoc_GetPriority(void)
 293:Generated_Source\PSoC5/isr_eoc.c **** {
 369              		.loc 1 293 0
 370              		.cfi_startproc
 371              		@ args = 0, pretend = 0, frame = 8
 372              		@ frame_needed = 1, uses_anonymous_args = 0
 373              		@ link register save eliminated.
 374 0000 80B4     		push	{r7}
 375              		.cfi_def_cfa_offset 4
 376              		.cfi_offset 7, -4
 377 0002 83B0     		sub	sp, sp, #12
 378              		.cfi_def_cfa_offset 16
 379 0004 00AF     		add	r7, sp, #0
 380              		.cfi_def_cfa_register 7
 294:Generated_Source\PSoC5/isr_eoc.c ****     uint8 priority;
 295:Generated_Source\PSoC5/isr_eoc.c **** 
 296:Generated_Source\PSoC5/isr_eoc.c **** 
 297:Generated_Source\PSoC5/isr_eoc.c ****     priority = *isr_eoc_INTC_PRIOR >> 5;
 381              		.loc 1 297 0
 382 0006 054B     		ldr	r3, .L23
 383 0008 1B78     		ldrb	r3, [r3]
 384 000a DBB2     		uxtb	r3, r3
 385 000c 5B09     		lsrs	r3, r3, #5
 386 000e FB71     		strb	r3, [r7, #7]
 298:Generated_Source\PSoC5/isr_eoc.c **** 
ARM GAS  C:\Users\ylee818\AppData\Local\Temp\ccugIPnv.s 			page 13


 299:Generated_Source\PSoC5/isr_eoc.c ****     return priority;
 387              		.loc 1 299 0
 388 0010 FB79     		ldrb	r3, [r7, #7]	@ zero_extendqisi2
 300:Generated_Source\PSoC5/isr_eoc.c **** }
 389              		.loc 1 300 0
 390 0012 1846     		mov	r0, r3
 391 0014 0C37     		adds	r7, r7, #12
 392              		.cfi_def_cfa_offset 4
 393 0016 BD46     		mov	sp, r7
 394              		.cfi_def_cfa_register 13
 395              		@ sp needed
 396 0018 80BC     		pop	{r7}
 397              		.cfi_restore 7
 398              		.cfi_def_cfa_offset 0
 399 001a 7047     		bx	lr
 400              	.L24:
 401              		.align	2
 402              	.L23:
 403 001c 07E400E0 		.word	-536812537
 404              		.cfi_endproc
 405              	.LFE70:
 406              		.size	isr_eoc_GetPriority, .-isr_eoc_GetPriority
 407              		.section	.text.isr_eoc_Enable,"ax",%progbits
 408              		.align	2
 409              		.global	isr_eoc_Enable
 410              		.thumb
 411              		.thumb_func
 412              		.type	isr_eoc_Enable, %function
 413              	isr_eoc_Enable:
 414              	.LFB71:
 301:Generated_Source\PSoC5/isr_eoc.c **** 
 302:Generated_Source\PSoC5/isr_eoc.c **** 
 303:Generated_Source\PSoC5/isr_eoc.c **** /*******************************************************************************
 304:Generated_Source\PSoC5/isr_eoc.c **** * Function Name: isr_eoc_Enable
 305:Generated_Source\PSoC5/isr_eoc.c **** ********************************************************************************
 306:Generated_Source\PSoC5/isr_eoc.c **** *
 307:Generated_Source\PSoC5/isr_eoc.c **** * Summary:
 308:Generated_Source\PSoC5/isr_eoc.c **** *   Enables the interrupt to the interrupt controller. Do not call this function
 309:Generated_Source\PSoC5/isr_eoc.c **** *   unless ISR_Start() has been called or the functionality of the ISR_Start() 
 310:Generated_Source\PSoC5/isr_eoc.c **** *   function, which sets the vector and the priority, has been called.
 311:Generated_Source\PSoC5/isr_eoc.c **** *
 312:Generated_Source\PSoC5/isr_eoc.c **** * Parameters:
 313:Generated_Source\PSoC5/isr_eoc.c **** *   None
 314:Generated_Source\PSoC5/isr_eoc.c **** *
 315:Generated_Source\PSoC5/isr_eoc.c **** * Return:
 316:Generated_Source\PSoC5/isr_eoc.c **** *   None
 317:Generated_Source\PSoC5/isr_eoc.c **** *
 318:Generated_Source\PSoC5/isr_eoc.c **** *******************************************************************************/
 319:Generated_Source\PSoC5/isr_eoc.c **** void isr_eoc_Enable(void)
 320:Generated_Source\PSoC5/isr_eoc.c **** {
 415              		.loc 1 320 0
 416              		.cfi_startproc
 417              		@ args = 0, pretend = 0, frame = 0
 418              		@ frame_needed = 1, uses_anonymous_args = 0
 419              		@ link register save eliminated.
 420 0000 80B4     		push	{r7}
 421              		.cfi_def_cfa_offset 4
ARM GAS  C:\Users\ylee818\AppData\Local\Temp\ccugIPnv.s 			page 14


 422              		.cfi_offset 7, -4
 423 0002 00AF     		add	r7, sp, #0
 424              		.cfi_def_cfa_register 7
 321:Generated_Source\PSoC5/isr_eoc.c ****     /* Enable the general interrupt. */
 322:Generated_Source\PSoC5/isr_eoc.c ****     *isr_eoc_INTC_SET_EN = isr_eoc__INTC_MASK;
 425              		.loc 1 322 0
 426 0004 034B     		ldr	r3, .L26
 427 0006 8022     		movs	r2, #128
 428 0008 1A60     		str	r2, [r3]
 323:Generated_Source\PSoC5/isr_eoc.c **** }
 429              		.loc 1 323 0
 430 000a 00BF     		nop
 431 000c BD46     		mov	sp, r7
 432              		.cfi_def_cfa_register 13
 433              		@ sp needed
 434 000e 80BC     		pop	{r7}
 435              		.cfi_restore 7
 436              		.cfi_def_cfa_offset 0
 437 0010 7047     		bx	lr
 438              	.L27:
 439 0012 00BF     		.align	2
 440              	.L26:
 441 0014 00E100E0 		.word	-536813312
 442              		.cfi_endproc
 443              	.LFE71:
 444              		.size	isr_eoc_Enable, .-isr_eoc_Enable
 445              		.section	.text.isr_eoc_GetState,"ax",%progbits
 446              		.align	2
 447              		.global	isr_eoc_GetState
 448              		.thumb
 449              		.thumb_func
 450              		.type	isr_eoc_GetState, %function
 451              	isr_eoc_GetState:
 452              	.LFB72:
 324:Generated_Source\PSoC5/isr_eoc.c **** 
 325:Generated_Source\PSoC5/isr_eoc.c **** 
 326:Generated_Source\PSoC5/isr_eoc.c **** /*******************************************************************************
 327:Generated_Source\PSoC5/isr_eoc.c **** * Function Name: isr_eoc_GetState
 328:Generated_Source\PSoC5/isr_eoc.c **** ********************************************************************************
 329:Generated_Source\PSoC5/isr_eoc.c **** *
 330:Generated_Source\PSoC5/isr_eoc.c **** * Summary:
 331:Generated_Source\PSoC5/isr_eoc.c **** *   Gets the state (enabled, disabled) of the Interrupt.
 332:Generated_Source\PSoC5/isr_eoc.c **** *
 333:Generated_Source\PSoC5/isr_eoc.c **** * Parameters:
 334:Generated_Source\PSoC5/isr_eoc.c **** *   None
 335:Generated_Source\PSoC5/isr_eoc.c **** *
 336:Generated_Source\PSoC5/isr_eoc.c **** * Return:
 337:Generated_Source\PSoC5/isr_eoc.c **** *   1 if enabled, 0 if disabled.
 338:Generated_Source\PSoC5/isr_eoc.c **** *
 339:Generated_Source\PSoC5/isr_eoc.c **** *******************************************************************************/
 340:Generated_Source\PSoC5/isr_eoc.c **** uint8 isr_eoc_GetState(void)
 341:Generated_Source\PSoC5/isr_eoc.c **** {
 453              		.loc 1 341 0
 454              		.cfi_startproc
 455              		@ args = 0, pretend = 0, frame = 0
 456              		@ frame_needed = 1, uses_anonymous_args = 0
 457              		@ link register save eliminated.
ARM GAS  C:\Users\ylee818\AppData\Local\Temp\ccugIPnv.s 			page 15


 458 0000 80B4     		push	{r7}
 459              		.cfi_def_cfa_offset 4
 460              		.cfi_offset 7, -4
 461 0002 00AF     		add	r7, sp, #0
 462              		.cfi_def_cfa_register 7
 342:Generated_Source\PSoC5/isr_eoc.c ****     /* Get the state of the general interrupt. */
 343:Generated_Source\PSoC5/isr_eoc.c ****     return ((*isr_eoc_INTC_SET_EN & (uint32)isr_eoc__INTC_MASK) != 0u) ? 1u:0u;
 463              		.loc 1 343 0
 464 0004 064B     		ldr	r3, .L32
 465 0006 1B68     		ldr	r3, [r3]
 466 0008 03F08003 		and	r3, r3, #128
 467 000c 002B     		cmp	r3, #0
 468 000e 01D0     		beq	.L29
 469              		.loc 1 343 0 is_stmt 0 discriminator 1
 470 0010 0123     		movs	r3, #1
 471 0012 00E0     		b	.L30
 472              	.L29:
 473              		.loc 1 343 0 discriminator 2
 474 0014 0023     		movs	r3, #0
 475              	.L30:
 344:Generated_Source\PSoC5/isr_eoc.c **** }
 476              		.loc 1 344 0 is_stmt 1 discriminator 4
 477 0016 1846     		mov	r0, r3
 478 0018 BD46     		mov	sp, r7
 479              		.cfi_def_cfa_register 13
 480              		@ sp needed
 481 001a 80BC     		pop	{r7}
 482              		.cfi_restore 7
 483              		.cfi_def_cfa_offset 0
 484 001c 7047     		bx	lr
 485              	.L33:
 486 001e 00BF     		.align	2
 487              	.L32:
 488 0020 00E100E0 		.word	-536813312
 489              		.cfi_endproc
 490              	.LFE72:
 491              		.size	isr_eoc_GetState, .-isr_eoc_GetState
 492              		.section	.text.isr_eoc_Disable,"ax",%progbits
 493              		.align	2
 494              		.global	isr_eoc_Disable
 495              		.thumb
 496              		.thumb_func
 497              		.type	isr_eoc_Disable, %function
 498              	isr_eoc_Disable:
 499              	.LFB73:
 345:Generated_Source\PSoC5/isr_eoc.c **** 
 346:Generated_Source\PSoC5/isr_eoc.c **** 
 347:Generated_Source\PSoC5/isr_eoc.c **** /*******************************************************************************
 348:Generated_Source\PSoC5/isr_eoc.c **** * Function Name: isr_eoc_Disable
 349:Generated_Source\PSoC5/isr_eoc.c **** ********************************************************************************
 350:Generated_Source\PSoC5/isr_eoc.c **** *
 351:Generated_Source\PSoC5/isr_eoc.c **** * Summary:
 352:Generated_Source\PSoC5/isr_eoc.c **** *   Disables the Interrupt in the interrupt controller.
 353:Generated_Source\PSoC5/isr_eoc.c **** *
 354:Generated_Source\PSoC5/isr_eoc.c **** * Parameters:
 355:Generated_Source\PSoC5/isr_eoc.c **** *   None
 356:Generated_Source\PSoC5/isr_eoc.c **** *
ARM GAS  C:\Users\ylee818\AppData\Local\Temp\ccugIPnv.s 			page 16


 357:Generated_Source\PSoC5/isr_eoc.c **** * Return:
 358:Generated_Source\PSoC5/isr_eoc.c **** *   None
 359:Generated_Source\PSoC5/isr_eoc.c **** *
 360:Generated_Source\PSoC5/isr_eoc.c **** *******************************************************************************/
 361:Generated_Source\PSoC5/isr_eoc.c **** void isr_eoc_Disable(void)
 362:Generated_Source\PSoC5/isr_eoc.c **** {
 500              		.loc 1 362 0
 501              		.cfi_startproc
 502              		@ args = 0, pretend = 0, frame = 0
 503              		@ frame_needed = 1, uses_anonymous_args = 0
 504              		@ link register save eliminated.
 505 0000 80B4     		push	{r7}
 506              		.cfi_def_cfa_offset 4
 507              		.cfi_offset 7, -4
 508 0002 00AF     		add	r7, sp, #0
 509              		.cfi_def_cfa_register 7
 363:Generated_Source\PSoC5/isr_eoc.c ****     /* Disable the general interrupt. */
 364:Generated_Source\PSoC5/isr_eoc.c ****     *isr_eoc_INTC_CLR_EN = isr_eoc__INTC_MASK;
 510              		.loc 1 364 0
 511 0004 034B     		ldr	r3, .L35
 512 0006 8022     		movs	r2, #128
 513 0008 1A60     		str	r2, [r3]
 365:Generated_Source\PSoC5/isr_eoc.c **** }
 514              		.loc 1 365 0
 515 000a 00BF     		nop
 516 000c BD46     		mov	sp, r7
 517              		.cfi_def_cfa_register 13
 518              		@ sp needed
 519 000e 80BC     		pop	{r7}
 520              		.cfi_restore 7
 521              		.cfi_def_cfa_offset 0
 522 0010 7047     		bx	lr
 523              	.L36:
 524 0012 00BF     		.align	2
 525              	.L35:
 526 0014 80E100E0 		.word	-536813184
 527              		.cfi_endproc
 528              	.LFE73:
 529              		.size	isr_eoc_Disable, .-isr_eoc_Disable
 530              		.section	.text.isr_eoc_SetPending,"ax",%progbits
 531              		.align	2
 532              		.global	isr_eoc_SetPending
 533              		.thumb
 534              		.thumb_func
 535              		.type	isr_eoc_SetPending, %function
 536              	isr_eoc_SetPending:
 537              	.LFB74:
 366:Generated_Source\PSoC5/isr_eoc.c **** 
 367:Generated_Source\PSoC5/isr_eoc.c **** 
 368:Generated_Source\PSoC5/isr_eoc.c **** /*******************************************************************************
 369:Generated_Source\PSoC5/isr_eoc.c **** * Function Name: isr_eoc_SetPending
 370:Generated_Source\PSoC5/isr_eoc.c **** ********************************************************************************
 371:Generated_Source\PSoC5/isr_eoc.c **** *
 372:Generated_Source\PSoC5/isr_eoc.c **** * Summary:
 373:Generated_Source\PSoC5/isr_eoc.c **** *   Causes the Interrupt to enter the pending state, a software method of
 374:Generated_Source\PSoC5/isr_eoc.c **** *   generating the interrupt.
 375:Generated_Source\PSoC5/isr_eoc.c **** *
ARM GAS  C:\Users\ylee818\AppData\Local\Temp\ccugIPnv.s 			page 17


 376:Generated_Source\PSoC5/isr_eoc.c **** * Parameters:
 377:Generated_Source\PSoC5/isr_eoc.c **** *   None
 378:Generated_Source\PSoC5/isr_eoc.c **** *
 379:Generated_Source\PSoC5/isr_eoc.c **** * Return:
 380:Generated_Source\PSoC5/isr_eoc.c **** *   None
 381:Generated_Source\PSoC5/isr_eoc.c **** *
 382:Generated_Source\PSoC5/isr_eoc.c **** * Side Effects:
 383:Generated_Source\PSoC5/isr_eoc.c **** *   If interrupts are enabled and the interrupt is set up properly, the ISR is
 384:Generated_Source\PSoC5/isr_eoc.c **** *   entered (depending on the priority of this interrupt and other pending 
 385:Generated_Source\PSoC5/isr_eoc.c **** *   interrupts).
 386:Generated_Source\PSoC5/isr_eoc.c **** *
 387:Generated_Source\PSoC5/isr_eoc.c **** *******************************************************************************/
 388:Generated_Source\PSoC5/isr_eoc.c **** void isr_eoc_SetPending(void)
 389:Generated_Source\PSoC5/isr_eoc.c **** {
 538              		.loc 1 389 0
 539              		.cfi_startproc
 540              		@ args = 0, pretend = 0, frame = 0
 541              		@ frame_needed = 1, uses_anonymous_args = 0
 542              		@ link register save eliminated.
 543 0000 80B4     		push	{r7}
 544              		.cfi_def_cfa_offset 4
 545              		.cfi_offset 7, -4
 546 0002 00AF     		add	r7, sp, #0
 547              		.cfi_def_cfa_register 7
 390:Generated_Source\PSoC5/isr_eoc.c ****     *isr_eoc_INTC_SET_PD = isr_eoc__INTC_MASK;
 548              		.loc 1 390 0
 549 0004 034B     		ldr	r3, .L38
 550 0006 8022     		movs	r2, #128
 551 0008 1A60     		str	r2, [r3]
 391:Generated_Source\PSoC5/isr_eoc.c **** }
 552              		.loc 1 391 0
 553 000a 00BF     		nop
 554 000c BD46     		mov	sp, r7
 555              		.cfi_def_cfa_register 13
 556              		@ sp needed
 557 000e 80BC     		pop	{r7}
 558              		.cfi_restore 7
 559              		.cfi_def_cfa_offset 0
 560 0010 7047     		bx	lr
 561              	.L39:
 562 0012 00BF     		.align	2
 563              	.L38:
 564 0014 00E200E0 		.word	-536813056
 565              		.cfi_endproc
 566              	.LFE74:
 567              		.size	isr_eoc_SetPending, .-isr_eoc_SetPending
 568              		.section	.text.isr_eoc_ClearPending,"ax",%progbits
 569              		.align	2
 570              		.global	isr_eoc_ClearPending
 571              		.thumb
 572              		.thumb_func
 573              		.type	isr_eoc_ClearPending, %function
 574              	isr_eoc_ClearPending:
 575              	.LFB75:
 392:Generated_Source\PSoC5/isr_eoc.c **** 
 393:Generated_Source\PSoC5/isr_eoc.c **** 
 394:Generated_Source\PSoC5/isr_eoc.c **** /*******************************************************************************
ARM GAS  C:\Users\ylee818\AppData\Local\Temp\ccugIPnv.s 			page 18


 395:Generated_Source\PSoC5/isr_eoc.c **** * Function Name: isr_eoc_ClearPending
 396:Generated_Source\PSoC5/isr_eoc.c **** ********************************************************************************
 397:Generated_Source\PSoC5/isr_eoc.c **** *
 398:Generated_Source\PSoC5/isr_eoc.c **** * Summary:
 399:Generated_Source\PSoC5/isr_eoc.c **** *   Clears a pending interrupt in the interrupt controller.
 400:Generated_Source\PSoC5/isr_eoc.c **** *
 401:Generated_Source\PSoC5/isr_eoc.c **** *   Note Some interrupt sources are clear-on-read and require the block 
 402:Generated_Source\PSoC5/isr_eoc.c **** *   interrupt/status register to be read/cleared with the appropriate block API 
 403:Generated_Source\PSoC5/isr_eoc.c **** *   (GPIO, UART, and so on). Otherwise the ISR will continue to remain in 
 404:Generated_Source\PSoC5/isr_eoc.c **** *   pending state even though the interrupt itself is cleared using this API.
 405:Generated_Source\PSoC5/isr_eoc.c **** *
 406:Generated_Source\PSoC5/isr_eoc.c **** * Parameters:
 407:Generated_Source\PSoC5/isr_eoc.c **** *   None
 408:Generated_Source\PSoC5/isr_eoc.c **** *
 409:Generated_Source\PSoC5/isr_eoc.c **** * Return:
 410:Generated_Source\PSoC5/isr_eoc.c **** *   None
 411:Generated_Source\PSoC5/isr_eoc.c **** *
 412:Generated_Source\PSoC5/isr_eoc.c **** *******************************************************************************/
 413:Generated_Source\PSoC5/isr_eoc.c **** void isr_eoc_ClearPending(void)
 414:Generated_Source\PSoC5/isr_eoc.c **** {
 576              		.loc 1 414 0
 577              		.cfi_startproc
 578              		@ args = 0, pretend = 0, frame = 0
 579              		@ frame_needed = 1, uses_anonymous_args = 0
 580              		@ link register save eliminated.
 581 0000 80B4     		push	{r7}
 582              		.cfi_def_cfa_offset 4
 583              		.cfi_offset 7, -4
 584 0002 00AF     		add	r7, sp, #0
 585              		.cfi_def_cfa_register 7
 415:Generated_Source\PSoC5/isr_eoc.c ****     *isr_eoc_INTC_CLR_PD = isr_eoc__INTC_MASK;
 586              		.loc 1 415 0
 587 0004 034B     		ldr	r3, .L41
 588 0006 8022     		movs	r2, #128
 589 0008 1A60     		str	r2, [r3]
 416:Generated_Source\PSoC5/isr_eoc.c **** }
 590              		.loc 1 416 0
 591 000a 00BF     		nop
 592 000c BD46     		mov	sp, r7
 593              		.cfi_def_cfa_register 13
 594              		@ sp needed
 595 000e 80BC     		pop	{r7}
 596              		.cfi_restore 7
 597              		.cfi_def_cfa_offset 0
 598 0010 7047     		bx	lr
 599              	.L42:
 600 0012 00BF     		.align	2
 601              	.L41:
 602 0014 80E200E0 		.word	-536812928
 603              		.cfi_endproc
 604              	.LFE75:
 605              		.size	isr_eoc_ClearPending, .-isr_eoc_ClearPending
 606              		.text
 607              	.Letext0:
 608              		.file 2 "c:\\program files (x86)\\cypress\\psoc creator\\4.2\\psoc creator\\import\\gnu\\arm\\5.4.
 609              		.file 3 "c:\\program files (x86)\\cypress\\psoc creator\\4.2\\psoc creator\\import\\gnu\\arm\\5.4.
 610              		.file 4 "Generated_Source\\PSoC5/cytypes.h"
ARM GAS  C:\Users\ylee818\AppData\Local\Temp\ccugIPnv.s 			page 19


 611              		.file 5 "Generated_Source\\PSoC5/core_cm3.h"