ARM GAS  C:\Users\ylee818\AppData\Local\Temp\ccSQKZwa.s 			page 1


   1              		.syntax unified
   2              		.cpu cortex-m3
   3              		.fpu softvfp
   4              		.eabi_attribute 20, 1
   5              		.eabi_attribute 21, 1
   6              		.eabi_attribute 23, 3
   7              		.eabi_attribute 24, 1
   8              		.eabi_attribute 25, 1
   9              		.eabi_attribute 26, 1
  10              		.eabi_attribute 30, 6
  11              		.eabi_attribute 34, 1
  12              		.eabi_attribute 18, 4
  13              		.thumb
  14              		.syntax unified
  15              		.file	"QuadDec_M2.c"
  16              		.text
  17              	.Ltext0:
  18              		.cfi_sections	.debug_frame
  19              		.global	QuadDec_M2_initVar
  20              		.bss
  21              		.type	QuadDec_M2_initVar, %object
  22              		.size	QuadDec_M2_initVar, 1
  23              	QuadDec_M2_initVar:
  24 0000 00       		.space	1
  25              		.section	.text.QuadDec_M2_Init,"ax",%progbits
  26              		.align	2
  27              		.global	QuadDec_M2_Init
  28              		.thumb
  29              		.thumb_func
  30              		.type	QuadDec_M2_Init, %function
  31              	QuadDec_M2_Init:
  32              	.LFB0:
  33              		.file 1 "Generated_Source\\PSoC5\\QuadDec_M2.c"
   1:Generated_Source\PSoC5/QuadDec_M2.c **** /*******************************************************************************
   2:Generated_Source\PSoC5/QuadDec_M2.c **** * File Name: QuadDec_M2.c  
   3:Generated_Source\PSoC5/QuadDec_M2.c **** * Version 3.0
   4:Generated_Source\PSoC5/QuadDec_M2.c **** *
   5:Generated_Source\PSoC5/QuadDec_M2.c **** * Description:
   6:Generated_Source\PSoC5/QuadDec_M2.c **** *  This file provides the source code to the API for the Quadrature Decoder
   7:Generated_Source\PSoC5/QuadDec_M2.c **** *  component.
   8:Generated_Source\PSoC5/QuadDec_M2.c **** *
   9:Generated_Source\PSoC5/QuadDec_M2.c **** * Note:
  10:Generated_Source\PSoC5/QuadDec_M2.c **** *  None.
  11:Generated_Source\PSoC5/QuadDec_M2.c **** *   
  12:Generated_Source\PSoC5/QuadDec_M2.c **** ********************************************************************************
  13:Generated_Source\PSoC5/QuadDec_M2.c **** * Copyright 2008-2014, Cypress Semiconductor Corporation.  All rights reserved.
  14:Generated_Source\PSoC5/QuadDec_M2.c **** * You may use this file only in accordance with the license, terms, conditions, 
  15:Generated_Source\PSoC5/QuadDec_M2.c **** * disclaimers, and limitations in the end user license agreement accompanying 
  16:Generated_Source\PSoC5/QuadDec_M2.c **** * the software package with which this file was provided.
  17:Generated_Source\PSoC5/QuadDec_M2.c **** *******************************************************************************/
  18:Generated_Source\PSoC5/QuadDec_M2.c **** 
  19:Generated_Source\PSoC5/QuadDec_M2.c **** #include "QuadDec_M2.h"
  20:Generated_Source\PSoC5/QuadDec_M2.c **** 
  21:Generated_Source\PSoC5/QuadDec_M2.c **** #if (QuadDec_M2_COUNTER_SIZE == QuadDec_M2_COUNTER_SIZE_32_BIT)
  22:Generated_Source\PSoC5/QuadDec_M2.c ****     #include "QuadDec_M2_PVT.h"
  23:Generated_Source\PSoC5/QuadDec_M2.c **** #endif /* QuadDec_M2_COUNTER_SIZE == QuadDec_M2_COUNTER_SIZE_32_BIT */
  24:Generated_Source\PSoC5/QuadDec_M2.c **** 
ARM GAS  C:\Users\ylee818\AppData\Local\Temp\ccSQKZwa.s 			page 2


  25:Generated_Source\PSoC5/QuadDec_M2.c **** uint8 QuadDec_M2_initVar = 0u;
  26:Generated_Source\PSoC5/QuadDec_M2.c **** 
  27:Generated_Source\PSoC5/QuadDec_M2.c **** 
  28:Generated_Source\PSoC5/QuadDec_M2.c **** /*******************************************************************************
  29:Generated_Source\PSoC5/QuadDec_M2.c **** * Function Name: QuadDec_M2_Init
  30:Generated_Source\PSoC5/QuadDec_M2.c **** ********************************************************************************
  31:Generated_Source\PSoC5/QuadDec_M2.c **** *
  32:Generated_Source\PSoC5/QuadDec_M2.c **** * Summary:
  33:Generated_Source\PSoC5/QuadDec_M2.c **** *  Inits/Restores default QuadDec configuration provided with customizer.
  34:Generated_Source\PSoC5/QuadDec_M2.c **** *
  35:Generated_Source\PSoC5/QuadDec_M2.c **** * Parameters:
  36:Generated_Source\PSoC5/QuadDec_M2.c **** *  None.
  37:Generated_Source\PSoC5/QuadDec_M2.c **** *
  38:Generated_Source\PSoC5/QuadDec_M2.c **** * Return:
  39:Generated_Source\PSoC5/QuadDec_M2.c **** *  None.
  40:Generated_Source\PSoC5/QuadDec_M2.c **** *
  41:Generated_Source\PSoC5/QuadDec_M2.c **** *******************************************************************************/
  42:Generated_Source\PSoC5/QuadDec_M2.c **** void QuadDec_M2_Init(void) 
  43:Generated_Source\PSoC5/QuadDec_M2.c **** {
  34              		.loc 1 43 0
  35              		.cfi_startproc
  36              		@ args = 0, pretend = 0, frame = 0
  37              		@ frame_needed = 1, uses_anonymous_args = 0
  38              		@ link register save eliminated.
  39 0000 80B4     		push	{r7}
  40              		.cfi_def_cfa_offset 4
  41              		.cfi_offset 7, -4
  42 0002 00AF     		add	r7, sp, #0
  43              		.cfi_def_cfa_register 7
  44:Generated_Source\PSoC5/QuadDec_M2.c ****     #if (QuadDec_M2_COUNTER_SIZE == QuadDec_M2_COUNTER_SIZE_32_BIT)
  45:Generated_Source\PSoC5/QuadDec_M2.c ****         /* Disable Interrupt. */
  46:Generated_Source\PSoC5/QuadDec_M2.c ****         CyIntDisable(QuadDec_M2_ISR_NUMBER);
  47:Generated_Source\PSoC5/QuadDec_M2.c ****         /* Set the ISR to point to the QuadDec_M2_isr Interrupt. */
  48:Generated_Source\PSoC5/QuadDec_M2.c ****         (void) CyIntSetVector(QuadDec_M2_ISR_NUMBER, & QuadDec_M2_ISR);
  49:Generated_Source\PSoC5/QuadDec_M2.c ****         /* Set the priority. */
  50:Generated_Source\PSoC5/QuadDec_M2.c ****         CyIntSetPriority(QuadDec_M2_ISR_NUMBER, QuadDec_M2_ISR_PRIORITY);
  51:Generated_Source\PSoC5/QuadDec_M2.c ****     #endif /* QuadDec_M2_COUNTER_SIZE == QuadDec_M2_COUNTER_SIZE_32_BIT */
  52:Generated_Source\PSoC5/QuadDec_M2.c **** }
  44              		.loc 1 52 0
  45 0004 00BF     		nop
  46 0006 BD46     		mov	sp, r7
  47              		.cfi_def_cfa_register 13
  48              		@ sp needed
  49 0008 80BC     		pop	{r7}
  50              		.cfi_restore 7
  51              		.cfi_def_cfa_offset 0
  52 000a 7047     		bx	lr
  53              		.cfi_endproc
  54              	.LFE0:
  55              		.size	QuadDec_M2_Init, .-QuadDec_M2_Init
  56              		.section	.text.QuadDec_M2_Enable,"ax",%progbits
  57              		.align	2
  58              		.global	QuadDec_M2_Enable
  59              		.thumb
  60              		.thumb_func
  61              		.type	QuadDec_M2_Enable, %function
  62              	QuadDec_M2_Enable:
ARM GAS  C:\Users\ylee818\AppData\Local\Temp\ccSQKZwa.s 			page 3


  63              	.LFB1:
  53:Generated_Source\PSoC5/QuadDec_M2.c **** 
  54:Generated_Source\PSoC5/QuadDec_M2.c **** 
  55:Generated_Source\PSoC5/QuadDec_M2.c **** /*******************************************************************************
  56:Generated_Source\PSoC5/QuadDec_M2.c **** * Function Name: QuadDec_M2_Enable
  57:Generated_Source\PSoC5/QuadDec_M2.c **** ********************************************************************************
  58:Generated_Source\PSoC5/QuadDec_M2.c **** *
  59:Generated_Source\PSoC5/QuadDec_M2.c **** * Summary:
  60:Generated_Source\PSoC5/QuadDec_M2.c **** *  This function enable interrupts from Component and also enable Component's
  61:Generated_Source\PSoC5/QuadDec_M2.c **** *  ISR in case of 32-bit counter.
  62:Generated_Source\PSoC5/QuadDec_M2.c **** *
  63:Generated_Source\PSoC5/QuadDec_M2.c **** * Parameters:
  64:Generated_Source\PSoC5/QuadDec_M2.c **** *  None.
  65:Generated_Source\PSoC5/QuadDec_M2.c **** *
  66:Generated_Source\PSoC5/QuadDec_M2.c **** * Return:
  67:Generated_Source\PSoC5/QuadDec_M2.c **** *  None.
  68:Generated_Source\PSoC5/QuadDec_M2.c **** *
  69:Generated_Source\PSoC5/QuadDec_M2.c **** *******************************************************************************/
  70:Generated_Source\PSoC5/QuadDec_M2.c **** void QuadDec_M2_Enable(void) 
  71:Generated_Source\PSoC5/QuadDec_M2.c **** {
  64              		.loc 1 71 0
  65              		.cfi_startproc
  66              		@ args = 0, pretend = 0, frame = 8
  67              		@ frame_needed = 1, uses_anonymous_args = 0
  68 0000 80B5     		push	{r7, lr}
  69              		.cfi_def_cfa_offset 8
  70              		.cfi_offset 7, -8
  71              		.cfi_offset 14, -4
  72 0002 82B0     		sub	sp, sp, #8
  73              		.cfi_def_cfa_offset 16
  74 0004 00AF     		add	r7, sp, #0
  75              		.cfi_def_cfa_register 7
  72:Generated_Source\PSoC5/QuadDec_M2.c ****     uint8 enableInterrupts;
  73:Generated_Source\PSoC5/QuadDec_M2.c **** 
  74:Generated_Source\PSoC5/QuadDec_M2.c ****     QuadDec_M2_SetInterruptMask(QuadDec_M2_INIT_INT_MASK);
  76              		.loc 1 74 0
  77 0006 0F20     		movs	r0, #15
  78 0008 FFF7FEFF 		bl	QuadDec_M2_SetInterruptMask
  75:Generated_Source\PSoC5/QuadDec_M2.c **** 
  76:Generated_Source\PSoC5/QuadDec_M2.c ****     /* Clear pending interrupts. */
  77:Generated_Source\PSoC5/QuadDec_M2.c ****     (void) QuadDec_M2_GetEvents();
  79              		.loc 1 77 0
  80 000c FFF7FEFF 		bl	QuadDec_M2_GetEvents
  78:Generated_Source\PSoC5/QuadDec_M2.c ****     
  79:Generated_Source\PSoC5/QuadDec_M2.c ****     enableInterrupts = CyEnterCriticalSection();
  81              		.loc 1 79 0
  82 0010 FFF7FEFF 		bl	CyEnterCriticalSection
  83 0014 0346     		mov	r3, r0
  84 0016 FB71     		strb	r3, [r7, #7]
  80:Generated_Source\PSoC5/QuadDec_M2.c **** 
  81:Generated_Source\PSoC5/QuadDec_M2.c ****     /* Enable interrupts from Statusi register */
  82:Generated_Source\PSoC5/QuadDec_M2.c ****     QuadDec_M2_SR_AUX_CONTROL |= QuadDec_M2_INTERRUPTS_ENABLE;
  85              		.loc 1 82 0
  86 0018 074A     		ldr	r2, .L3
  87 001a 074B     		ldr	r3, .L3
  88 001c 1B78     		ldrb	r3, [r3]
  89 001e DBB2     		uxtb	r3, r3
ARM GAS  C:\Users\ylee818\AppData\Local\Temp\ccSQKZwa.s 			page 4


  90 0020 43F01003 		orr	r3, r3, #16
  91 0024 DBB2     		uxtb	r3, r3
  92 0026 1370     		strb	r3, [r2]
  83:Generated_Source\PSoC5/QuadDec_M2.c **** 
  84:Generated_Source\PSoC5/QuadDec_M2.c ****     CyExitCriticalSection(enableInterrupts);        
  93              		.loc 1 84 0
  94 0028 FB79     		ldrb	r3, [r7, #7]	@ zero_extendqisi2
  95 002a 1846     		mov	r0, r3
  96 002c FFF7FEFF 		bl	CyExitCriticalSection
  85:Generated_Source\PSoC5/QuadDec_M2.c **** 
  86:Generated_Source\PSoC5/QuadDec_M2.c ****     #if (QuadDec_M2_COUNTER_SIZE == QuadDec_M2_COUNTER_SIZE_32_BIT)
  87:Generated_Source\PSoC5/QuadDec_M2.c ****         /* Enable Component interrupts */
  88:Generated_Source\PSoC5/QuadDec_M2.c ****         CyIntEnable(QuadDec_M2_ISR_NUMBER);
  89:Generated_Source\PSoC5/QuadDec_M2.c ****     #endif /* QuadDec_M2_COUNTER_SIZE == QuadDec_M2_COUNTER_SIZE_32_BIT */
  90:Generated_Source\PSoC5/QuadDec_M2.c **** }
  97              		.loc 1 90 0
  98 0030 00BF     		nop
  99 0032 0837     		adds	r7, r7, #8
 100              		.cfi_def_cfa_offset 8
 101 0034 BD46     		mov	sp, r7
 102              		.cfi_def_cfa_register 13
 103              		@ sp needed
 104 0036 80BD     		pop	{r7, pc}
 105              	.L4:
 106              		.align	2
 107              	.L3:
 108 0038 96650040 		.word	1073767830
 109              		.cfi_endproc
 110              	.LFE1:
 111              		.size	QuadDec_M2_Enable, .-QuadDec_M2_Enable
 112              		.section	.text.QuadDec_M2_Start,"ax",%progbits
 113              		.align	2
 114              		.global	QuadDec_M2_Start
 115              		.thumb
 116              		.thumb_func
 117              		.type	QuadDec_M2_Start, %function
 118              	QuadDec_M2_Start:
 119              	.LFB2:
  91:Generated_Source\PSoC5/QuadDec_M2.c **** 
  92:Generated_Source\PSoC5/QuadDec_M2.c **** 
  93:Generated_Source\PSoC5/QuadDec_M2.c **** /*******************************************************************************
  94:Generated_Source\PSoC5/QuadDec_M2.c **** * Function Name: QuadDec_M2_Start
  95:Generated_Source\PSoC5/QuadDec_M2.c **** ********************************************************************************
  96:Generated_Source\PSoC5/QuadDec_M2.c **** *
  97:Generated_Source\PSoC5/QuadDec_M2.c **** * Summary:
  98:Generated_Source\PSoC5/QuadDec_M2.c **** *  Initializes UDBs and other relevant hardware.
  99:Generated_Source\PSoC5/QuadDec_M2.c **** *  Resets counter, enables or disables all relevant interrupts.
 100:Generated_Source\PSoC5/QuadDec_M2.c **** *  Starts monitoring the inputs and counting.
 101:Generated_Source\PSoC5/QuadDec_M2.c **** *
 102:Generated_Source\PSoC5/QuadDec_M2.c **** * Parameters:
 103:Generated_Source\PSoC5/QuadDec_M2.c **** *  None.
 104:Generated_Source\PSoC5/QuadDec_M2.c **** *
 105:Generated_Source\PSoC5/QuadDec_M2.c **** * Return:
 106:Generated_Source\PSoC5/QuadDec_M2.c **** *  None.
 107:Generated_Source\PSoC5/QuadDec_M2.c **** *
 108:Generated_Source\PSoC5/QuadDec_M2.c **** * Global variables:
 109:Generated_Source\PSoC5/QuadDec_M2.c **** *  QuadDec_M2_initVar - used to check initial configuration, modified on
ARM GAS  C:\Users\ylee818\AppData\Local\Temp\ccSQKZwa.s 			page 5


 110:Generated_Source\PSoC5/QuadDec_M2.c **** *  first function call.
 111:Generated_Source\PSoC5/QuadDec_M2.c **** *
 112:Generated_Source\PSoC5/QuadDec_M2.c **** * Reentrant:
 113:Generated_Source\PSoC5/QuadDec_M2.c **** *  No.
 114:Generated_Source\PSoC5/QuadDec_M2.c **** *
 115:Generated_Source\PSoC5/QuadDec_M2.c **** *******************************************************************************/
 116:Generated_Source\PSoC5/QuadDec_M2.c **** void QuadDec_M2_Start(void) 
 117:Generated_Source\PSoC5/QuadDec_M2.c **** {
 120              		.loc 1 117 0
 121              		.cfi_startproc
 122              		@ args = 0, pretend = 0, frame = 0
 123              		@ frame_needed = 1, uses_anonymous_args = 0
 124 0000 80B5     		push	{r7, lr}
 125              		.cfi_def_cfa_offset 8
 126              		.cfi_offset 7, -8
 127              		.cfi_offset 14, -4
 128 0002 00AF     		add	r7, sp, #0
 129              		.cfi_def_cfa_register 7
 118:Generated_Source\PSoC5/QuadDec_M2.c ****     #if (QuadDec_M2_COUNTER_SIZE == QuadDec_M2_COUNTER_SIZE_8_BIT)
 119:Generated_Source\PSoC5/QuadDec_M2.c ****         QuadDec_M2_Cnt8_Start();
 120:Generated_Source\PSoC5/QuadDec_M2.c ****         QuadDec_M2_Cnt8_WriteCounter(QuadDec_M2_COUNTER_INIT_VALUE);
 121:Generated_Source\PSoC5/QuadDec_M2.c ****     #else
 122:Generated_Source\PSoC5/QuadDec_M2.c ****         /* (QuadDec_M2_COUNTER_SIZE == QuadDec_M2_COUNTER_SIZE_16_BIT) || 
 123:Generated_Source\PSoC5/QuadDec_M2.c ****         *  (QuadDec_M2_COUNTER_SIZE == QuadDec_M2_COUNTER_SIZE_32_BIT) 
 124:Generated_Source\PSoC5/QuadDec_M2.c ****         */
 125:Generated_Source\PSoC5/QuadDec_M2.c ****         QuadDec_M2_Cnt16_Start();
 130              		.loc 1 125 0
 131 0004 FFF7FEFF 		bl	QuadDec_M2_Cnt16_Start
 126:Generated_Source\PSoC5/QuadDec_M2.c ****         QuadDec_M2_Cnt16_WriteCounter(QuadDec_M2_COUNTER_INIT_VALUE);
 132              		.loc 1 126 0
 133 0008 4FF40040 		mov	r0, #32768
 134 000c FFF7FEFF 		bl	QuadDec_M2_Cnt16_WriteCounter
 127:Generated_Source\PSoC5/QuadDec_M2.c ****     #endif /* QuadDec_M2_COUNTER_SIZE == QuadDec_M2_COUNTER_SIZE_8_BIT */
 128:Generated_Source\PSoC5/QuadDec_M2.c ****     
 129:Generated_Source\PSoC5/QuadDec_M2.c ****     #if (QuadDec_M2_COUNTER_SIZE == QuadDec_M2_COUNTER_SIZE_32_BIT)        
 130:Generated_Source\PSoC5/QuadDec_M2.c ****        QuadDec_M2_count32SoftPart = 0;
 131:Generated_Source\PSoC5/QuadDec_M2.c ****     #endif /* QuadDec_M2_COUNTER_SIZE == QuadDec_M2_COUNTER_SIZE_32_BIT */
 132:Generated_Source\PSoC5/QuadDec_M2.c **** 
 133:Generated_Source\PSoC5/QuadDec_M2.c ****     if (QuadDec_M2_initVar == 0u)
 135              		.loc 1 133 0
 136 0010 064B     		ldr	r3, .L7
 137 0012 1B78     		ldrb	r3, [r3]	@ zero_extendqisi2
 138 0014 002B     		cmp	r3, #0
 139 0016 04D1     		bne	.L6
 134:Generated_Source\PSoC5/QuadDec_M2.c ****     {
 135:Generated_Source\PSoC5/QuadDec_M2.c ****         QuadDec_M2_Init();
 140              		.loc 1 135 0
 141 0018 FFF7FEFF 		bl	QuadDec_M2_Init
 136:Generated_Source\PSoC5/QuadDec_M2.c ****         QuadDec_M2_initVar = 1u;
 142              		.loc 1 136 0
 143 001c 034B     		ldr	r3, .L7
 144 001e 0122     		movs	r2, #1
 145 0020 1A70     		strb	r2, [r3]
 146              	.L6:
 137:Generated_Source\PSoC5/QuadDec_M2.c ****     }
 138:Generated_Source\PSoC5/QuadDec_M2.c **** 
 139:Generated_Source\PSoC5/QuadDec_M2.c ****     QuadDec_M2_Enable();
ARM GAS  C:\Users\ylee818\AppData\Local\Temp\ccSQKZwa.s 			page 6


 147              		.loc 1 139 0
 148 0022 FFF7FEFF 		bl	QuadDec_M2_Enable
 140:Generated_Source\PSoC5/QuadDec_M2.c **** }
 149              		.loc 1 140 0
 150 0026 00BF     		nop
 151 0028 80BD     		pop	{r7, pc}
 152              	.L8:
 153 002a 00BF     		.align	2
 154              	.L7:
 155 002c 00000000 		.word	QuadDec_M2_initVar
 156              		.cfi_endproc
 157              	.LFE2:
 158              		.size	QuadDec_M2_Start, .-QuadDec_M2_Start
 159              		.section	.text.QuadDec_M2_Stop,"ax",%progbits
 160              		.align	2
 161              		.global	QuadDec_M2_Stop
 162              		.thumb
 163              		.thumb_func
 164              		.type	QuadDec_M2_Stop, %function
 165              	QuadDec_M2_Stop:
 166              	.LFB3:
 141:Generated_Source\PSoC5/QuadDec_M2.c **** 
 142:Generated_Source\PSoC5/QuadDec_M2.c **** 
 143:Generated_Source\PSoC5/QuadDec_M2.c **** /*******************************************************************************
 144:Generated_Source\PSoC5/QuadDec_M2.c **** * Function Name: QuadDec_M2_Stop
 145:Generated_Source\PSoC5/QuadDec_M2.c **** ********************************************************************************
 146:Generated_Source\PSoC5/QuadDec_M2.c **** *
 147:Generated_Source\PSoC5/QuadDec_M2.c **** * Summary:
 148:Generated_Source\PSoC5/QuadDec_M2.c **** *  Turns off UDBs and other relevant hardware.
 149:Generated_Source\PSoC5/QuadDec_M2.c **** *
 150:Generated_Source\PSoC5/QuadDec_M2.c **** * Parameters:
 151:Generated_Source\PSoC5/QuadDec_M2.c **** *  None.
 152:Generated_Source\PSoC5/QuadDec_M2.c **** *
 153:Generated_Source\PSoC5/QuadDec_M2.c **** * Return:
 154:Generated_Source\PSoC5/QuadDec_M2.c **** *  None.
 155:Generated_Source\PSoC5/QuadDec_M2.c **** *
 156:Generated_Source\PSoC5/QuadDec_M2.c **** *******************************************************************************/
 157:Generated_Source\PSoC5/QuadDec_M2.c **** void QuadDec_M2_Stop(void) 
 158:Generated_Source\PSoC5/QuadDec_M2.c **** {
 167              		.loc 1 158 0
 168              		.cfi_startproc
 169              		@ args = 0, pretend = 0, frame = 8
 170              		@ frame_needed = 1, uses_anonymous_args = 0
 171 0000 80B5     		push	{r7, lr}
 172              		.cfi_def_cfa_offset 8
 173              		.cfi_offset 7, -8
 174              		.cfi_offset 14, -4
 175 0002 82B0     		sub	sp, sp, #8
 176              		.cfi_def_cfa_offset 16
 177 0004 00AF     		add	r7, sp, #0
 178              		.cfi_def_cfa_register 7
 159:Generated_Source\PSoC5/QuadDec_M2.c ****     uint8 enableInterrupts;
 160:Generated_Source\PSoC5/QuadDec_M2.c **** 
 161:Generated_Source\PSoC5/QuadDec_M2.c ****     #if (QuadDec_M2_COUNTER_SIZE == QuadDec_M2_COUNTER_SIZE_8_BIT)
 162:Generated_Source\PSoC5/QuadDec_M2.c ****         QuadDec_M2_Cnt8_Stop();
 163:Generated_Source\PSoC5/QuadDec_M2.c ****     #else 
 164:Generated_Source\PSoC5/QuadDec_M2.c ****         /* (QuadDec_M2_COUNTER_SIZE == QuadDec_M2_COUNTER_SIZE_16_BIT) ||
ARM GAS  C:\Users\ylee818\AppData\Local\Temp\ccSQKZwa.s 			page 7


 165:Generated_Source\PSoC5/QuadDec_M2.c ****         *  (QuadDec_M2_COUNTER_SIZE == QuadDec_M2_COUNTER_SIZE_32_BIT)
 166:Generated_Source\PSoC5/QuadDec_M2.c ****         */
 167:Generated_Source\PSoC5/QuadDec_M2.c ****         QuadDec_M2_Cnt16_Stop();    /* counter disable */
 179              		.loc 1 167 0
 180 0006 FFF7FEFF 		bl	QuadDec_M2_Cnt16_Stop
 168:Generated_Source\PSoC5/QuadDec_M2.c ****     #endif /* (QuadDec_M2_COUNTER_SIZE == QuadDec_M2_COUNTER_SIZE_8_BIT) */
 169:Generated_Source\PSoC5/QuadDec_M2.c ****  
 170:Generated_Source\PSoC5/QuadDec_M2.c ****     enableInterrupts = CyEnterCriticalSection();
 181              		.loc 1 170 0
 182 000a FFF7FEFF 		bl	CyEnterCriticalSection
 183 000e 0346     		mov	r3, r0
 184 0010 FB71     		strb	r3, [r7, #7]
 171:Generated_Source\PSoC5/QuadDec_M2.c **** 
 172:Generated_Source\PSoC5/QuadDec_M2.c ****     /* Disable interrupts interrupts from Statusi register */
 173:Generated_Source\PSoC5/QuadDec_M2.c ****     QuadDec_M2_SR_AUX_CONTROL &= (uint8) (~QuadDec_M2_INTERRUPTS_ENABLE);
 185              		.loc 1 173 0
 186 0012 084A     		ldr	r2, .L10
 187 0014 074B     		ldr	r3, .L10
 188 0016 1B78     		ldrb	r3, [r3]
 189 0018 DBB2     		uxtb	r3, r3
 190 001a 23F01003 		bic	r3, r3, #16
 191 001e DBB2     		uxtb	r3, r3
 192 0020 1370     		strb	r3, [r2]
 174:Generated_Source\PSoC5/QuadDec_M2.c **** 
 175:Generated_Source\PSoC5/QuadDec_M2.c ****     CyExitCriticalSection(enableInterrupts);
 193              		.loc 1 175 0
 194 0022 FB79     		ldrb	r3, [r7, #7]	@ zero_extendqisi2
 195 0024 1846     		mov	r0, r3
 196 0026 FFF7FEFF 		bl	CyExitCriticalSection
 176:Generated_Source\PSoC5/QuadDec_M2.c **** 
 177:Generated_Source\PSoC5/QuadDec_M2.c ****     #if (QuadDec_M2_COUNTER_SIZE == QuadDec_M2_COUNTER_SIZE_32_BIT)
 178:Generated_Source\PSoC5/QuadDec_M2.c ****         CyIntDisable(QuadDec_M2_ISR_NUMBER);    /* interrupt disable */
 179:Generated_Source\PSoC5/QuadDec_M2.c ****     #endif /* QuadDec_M2_COUNTER_SIZE == QuadDec_M2_COUNTER_SIZE_32_BIT */
 180:Generated_Source\PSoC5/QuadDec_M2.c **** }
 197              		.loc 1 180 0
 198 002a 00BF     		nop
 199 002c 0837     		adds	r7, r7, #8
 200              		.cfi_def_cfa_offset 8
 201 002e BD46     		mov	sp, r7
 202              		.cfi_def_cfa_register 13
 203              		@ sp needed
 204 0030 80BD     		pop	{r7, pc}
 205              	.L11:
 206 0032 00BF     		.align	2
 207              	.L10:
 208 0034 96650040 		.word	1073767830
 209              		.cfi_endproc
 210              	.LFE3:
 211              		.size	QuadDec_M2_Stop, .-QuadDec_M2_Stop
 212              		.section	.text.QuadDec_M2_GetCounter,"ax",%progbits
 213              		.align	2
 214              		.global	QuadDec_M2_GetCounter
 215              		.thumb
 216              		.thumb_func
 217              		.type	QuadDec_M2_GetCounter, %function
 218              	QuadDec_M2_GetCounter:
 219              	.LFB4:
ARM GAS  C:\Users\ylee818\AppData\Local\Temp\ccSQKZwa.s 			page 8


 181:Generated_Source\PSoC5/QuadDec_M2.c **** 
 182:Generated_Source\PSoC5/QuadDec_M2.c **** 
 183:Generated_Source\PSoC5/QuadDec_M2.c **** /*******************************************************************************
 184:Generated_Source\PSoC5/QuadDec_M2.c **** * Function Name: QuadDec_M2_GetCounter
 185:Generated_Source\PSoC5/QuadDec_M2.c **** ********************************************************************************
 186:Generated_Source\PSoC5/QuadDec_M2.c **** *
 187:Generated_Source\PSoC5/QuadDec_M2.c **** * Summary:
 188:Generated_Source\PSoC5/QuadDec_M2.c **** *  Reports the current value of the counter.
 189:Generated_Source\PSoC5/QuadDec_M2.c **** *
 190:Generated_Source\PSoC5/QuadDec_M2.c **** * Parameters:
 191:Generated_Source\PSoC5/QuadDec_M2.c **** *  None.
 192:Generated_Source\PSoC5/QuadDec_M2.c **** *
 193:Generated_Source\PSoC5/QuadDec_M2.c **** * Return:
 194:Generated_Source\PSoC5/QuadDec_M2.c **** *  The counter value. Return type is signed and per the counter size setting.
 195:Generated_Source\PSoC5/QuadDec_M2.c **** *  A positive value indicates clockwise movement (B before A).
 196:Generated_Source\PSoC5/QuadDec_M2.c **** *
 197:Generated_Source\PSoC5/QuadDec_M2.c **** * Global variables:
 198:Generated_Source\PSoC5/QuadDec_M2.c **** *  QuadDec_M2_count32SoftPart - used to get hi 16 bit for current value
 199:Generated_Source\PSoC5/QuadDec_M2.c **** *  of the 32-bit counter, when Counter size equal 32-bit.
 200:Generated_Source\PSoC5/QuadDec_M2.c **** *
 201:Generated_Source\PSoC5/QuadDec_M2.c **** *******************************************************************************/
 202:Generated_Source\PSoC5/QuadDec_M2.c **** int16 QuadDec_M2_GetCounter(void) 
 203:Generated_Source\PSoC5/QuadDec_M2.c **** {
 220              		.loc 1 203 0
 221              		.cfi_startproc
 222              		@ args = 0, pretend = 0, frame = 8
 223              		@ frame_needed = 1, uses_anonymous_args = 0
 224 0000 80B5     		push	{r7, lr}
 225              		.cfi_def_cfa_offset 8
 226              		.cfi_offset 7, -8
 227              		.cfi_offset 14, -4
 228 0002 82B0     		sub	sp, sp, #8
 229              		.cfi_def_cfa_offset 16
 230 0004 00AF     		add	r7, sp, #0
 231              		.cfi_def_cfa_register 7
 204:Generated_Source\PSoC5/QuadDec_M2.c ****     int16 count;
 205:Generated_Source\PSoC5/QuadDec_M2.c ****     uint16 tmpCnt;
 206:Generated_Source\PSoC5/QuadDec_M2.c **** 
 207:Generated_Source\PSoC5/QuadDec_M2.c ****     #if (QuadDec_M2_COUNTER_SIZE == QuadDec_M2_COUNTER_SIZE_32_BIT)
 208:Generated_Source\PSoC5/QuadDec_M2.c ****         int16 hwCount;
 209:Generated_Source\PSoC5/QuadDec_M2.c **** 
 210:Generated_Source\PSoC5/QuadDec_M2.c ****         CyIntDisable(QuadDec_M2_ISR_NUMBER);
 211:Generated_Source\PSoC5/QuadDec_M2.c **** 
 212:Generated_Source\PSoC5/QuadDec_M2.c ****         tmpCnt = QuadDec_M2_Cnt16_ReadCounter();
 213:Generated_Source\PSoC5/QuadDec_M2.c ****         hwCount = (int16) ((int32) tmpCnt - (int32) QuadDec_M2_COUNTER_INIT_VALUE);
 214:Generated_Source\PSoC5/QuadDec_M2.c ****         count = QuadDec_M2_count32SoftPart + hwCount;
 215:Generated_Source\PSoC5/QuadDec_M2.c **** 
 216:Generated_Source\PSoC5/QuadDec_M2.c ****         CyIntEnable(QuadDec_M2_ISR_NUMBER);
 217:Generated_Source\PSoC5/QuadDec_M2.c ****     #else 
 218:Generated_Source\PSoC5/QuadDec_M2.c ****         /* (QuadDec_M2_COUNTER_SIZE == QuadDec_M2_COUNTER_SIZE_8_BIT) || 
 219:Generated_Source\PSoC5/QuadDec_M2.c ****         *  (QuadDec_M2_COUNTER_SIZE == QuadDec_M2_COUNTER_SIZE_16_BIT)
 220:Generated_Source\PSoC5/QuadDec_M2.c ****         */
 221:Generated_Source\PSoC5/QuadDec_M2.c ****         #if (QuadDec_M2_COUNTER_SIZE == QuadDec_M2_COUNTER_SIZE_8_BIT)
 222:Generated_Source\PSoC5/QuadDec_M2.c ****             tmpCnt = QuadDec_M2_Cnt8_ReadCounter();
 223:Generated_Source\PSoC5/QuadDec_M2.c ****         #else /* (QuadDec_M2_COUNTER_SIZE == QuadDec_M2_COUNTER_SIZE_16_BIT) */
 224:Generated_Source\PSoC5/QuadDec_M2.c ****             tmpCnt = QuadDec_M2_Cnt16_ReadCounter();
 232              		.loc 1 224 0
ARM GAS  C:\Users\ylee818\AppData\Local\Temp\ccSQKZwa.s 			page 9


 233 0006 FFF7FEFF 		bl	QuadDec_M2_Cnt16_ReadCounter
 234 000a 0346     		mov	r3, r0
 235 000c FB80     		strh	r3, [r7, #6]	@ movhi
 225:Generated_Source\PSoC5/QuadDec_M2.c ****         #endif  /* QuadDec_M2_COUNTER_SIZE == QuadDec_M2_COUNTER_SIZE_8_BIT */
 226:Generated_Source\PSoC5/QuadDec_M2.c **** 
 227:Generated_Source\PSoC5/QuadDec_M2.c ****         count = (int16) ((int32) tmpCnt -
 236              		.loc 1 227 0
 237 000e FB88     		ldrh	r3, [r7, #6]	@ movhi
 238 0010 A3F50043 		sub	r3, r3, #32768
 239 0014 9BB2     		uxth	r3, r3
 240 0016 BB80     		strh	r3, [r7, #4]	@ movhi
 228:Generated_Source\PSoC5/QuadDec_M2.c ****                 (int32) QuadDec_M2_COUNTER_INIT_VALUE);
 229:Generated_Source\PSoC5/QuadDec_M2.c **** 
 230:Generated_Source\PSoC5/QuadDec_M2.c ****     #endif /* QuadDec_M2_COUNTER_SIZE == QuadDec_M2_COUNTER_SIZE_32_BIT */ 
 231:Generated_Source\PSoC5/QuadDec_M2.c **** 
 232:Generated_Source\PSoC5/QuadDec_M2.c ****     return (count);
 241              		.loc 1 232 0
 242 0018 B7F90430 		ldrsh	r3, [r7, #4]
 233:Generated_Source\PSoC5/QuadDec_M2.c **** }
 243              		.loc 1 233 0
 244 001c 1846     		mov	r0, r3
 245 001e 0837     		adds	r7, r7, #8
 246              		.cfi_def_cfa_offset 8
 247 0020 BD46     		mov	sp, r7
 248              		.cfi_def_cfa_register 13
 249              		@ sp needed
 250 0022 80BD     		pop	{r7, pc}
 251              		.cfi_endproc
 252              	.LFE4:
 253              		.size	QuadDec_M2_GetCounter, .-QuadDec_M2_GetCounter
 254              		.section	.text.QuadDec_M2_SetCounter,"ax",%progbits
 255              		.align	2
 256              		.global	QuadDec_M2_SetCounter
 257              		.thumb
 258              		.thumb_func
 259              		.type	QuadDec_M2_SetCounter, %function
 260              	QuadDec_M2_SetCounter:
 261              	.LFB5:
 234:Generated_Source\PSoC5/QuadDec_M2.c **** 
 235:Generated_Source\PSoC5/QuadDec_M2.c **** 
 236:Generated_Source\PSoC5/QuadDec_M2.c **** /*******************************************************************************
 237:Generated_Source\PSoC5/QuadDec_M2.c **** * Function Name: QuadDec_M2_SetCounter
 238:Generated_Source\PSoC5/QuadDec_M2.c **** ********************************************************************************
 239:Generated_Source\PSoC5/QuadDec_M2.c **** *
 240:Generated_Source\PSoC5/QuadDec_M2.c **** * Summary:
 241:Generated_Source\PSoC5/QuadDec_M2.c **** *  Sets the current value of the counter.
 242:Generated_Source\PSoC5/QuadDec_M2.c **** *
 243:Generated_Source\PSoC5/QuadDec_M2.c **** * Parameters:
 244:Generated_Source\PSoC5/QuadDec_M2.c **** *  value:  The new value. Parameter type is signed and per the counter size
 245:Generated_Source\PSoC5/QuadDec_M2.c **** *  setting.
 246:Generated_Source\PSoC5/QuadDec_M2.c **** *
 247:Generated_Source\PSoC5/QuadDec_M2.c **** * Return:
 248:Generated_Source\PSoC5/QuadDec_M2.c **** *  None.
 249:Generated_Source\PSoC5/QuadDec_M2.c **** *
 250:Generated_Source\PSoC5/QuadDec_M2.c **** * Global variables:
 251:Generated_Source\PSoC5/QuadDec_M2.c **** *  QuadDec_M2_count32SoftPart - modified to set hi 16 bit for current
 252:Generated_Source\PSoC5/QuadDec_M2.c **** *  value of the 32-bit counter, when Counter size equal 32-bit.
ARM GAS  C:\Users\ylee818\AppData\Local\Temp\ccSQKZwa.s 			page 10


 253:Generated_Source\PSoC5/QuadDec_M2.c **** *
 254:Generated_Source\PSoC5/QuadDec_M2.c **** * Reentrant:
 255:Generated_Source\PSoC5/QuadDec_M2.c **** *  No.
 256:Generated_Source\PSoC5/QuadDec_M2.c **** *
 257:Generated_Source\PSoC5/QuadDec_M2.c **** *******************************************************************************/
 258:Generated_Source\PSoC5/QuadDec_M2.c **** void QuadDec_M2_SetCounter(int16 value) 
 259:Generated_Source\PSoC5/QuadDec_M2.c **** {
 262              		.loc 1 259 0
 263              		.cfi_startproc
 264              		@ args = 0, pretend = 0, frame = 16
 265              		@ frame_needed = 1, uses_anonymous_args = 0
 266 0000 80B5     		push	{r7, lr}
 267              		.cfi_def_cfa_offset 8
 268              		.cfi_offset 7, -8
 269              		.cfi_offset 14, -4
 270 0002 84B0     		sub	sp, sp, #16
 271              		.cfi_def_cfa_offset 24
 272 0004 00AF     		add	r7, sp, #0
 273              		.cfi_def_cfa_register 7
 274 0006 0346     		mov	r3, r0
 275 0008 FB80     		strh	r3, [r7, #6]	@ movhi
 260:Generated_Source\PSoC5/QuadDec_M2.c ****     #if ((QuadDec_M2_COUNTER_SIZE == QuadDec_M2_COUNTER_SIZE_8_BIT) || \
 261:Generated_Source\PSoC5/QuadDec_M2.c ****          (QuadDec_M2_COUNTER_SIZE == QuadDec_M2_COUNTER_SIZE_16_BIT))
 262:Generated_Source\PSoC5/QuadDec_M2.c ****         uint16 count;
 263:Generated_Source\PSoC5/QuadDec_M2.c ****         
 264:Generated_Source\PSoC5/QuadDec_M2.c ****         if (value >= 0)
 276              		.loc 1 264 0
 277 000a B7F90630 		ldrsh	r3, [r7, #6]
 278 000e 002B     		cmp	r3, #0
 279 0010 04DB     		blt	.L15
 265:Generated_Source\PSoC5/QuadDec_M2.c ****         {
 266:Generated_Source\PSoC5/QuadDec_M2.c ****             count = (uint16) value + QuadDec_M2_COUNTER_INIT_VALUE;
 280              		.loc 1 266 0
 281 0012 FB88     		ldrh	r3, [r7, #6]
 282 0014 A3F50043 		sub	r3, r3, #32768
 283 0018 FB81     		strh	r3, [r7, #14]	@ movhi
 284 001a 03E0     		b	.L16
 285              	.L15:
 267:Generated_Source\PSoC5/QuadDec_M2.c ****         }
 268:Generated_Source\PSoC5/QuadDec_M2.c ****         else
 269:Generated_Source\PSoC5/QuadDec_M2.c ****         {
 270:Generated_Source\PSoC5/QuadDec_M2.c ****             count = QuadDec_M2_COUNTER_INIT_VALUE - (uint16)(-value);
 286              		.loc 1 270 0
 287 001c FB88     		ldrh	r3, [r7, #6]
 288 001e A3F50043 		sub	r3, r3, #32768
 289 0022 FB81     		strh	r3, [r7, #14]	@ movhi
 290              	.L16:
 271:Generated_Source\PSoC5/QuadDec_M2.c ****         }
 272:Generated_Source\PSoC5/QuadDec_M2.c ****         #if (QuadDec_M2_COUNTER_SIZE == QuadDec_M2_COUNTER_SIZE_8_BIT)
 273:Generated_Source\PSoC5/QuadDec_M2.c ****             QuadDec_M2_Cnt8_WriteCounter(count);
 274:Generated_Source\PSoC5/QuadDec_M2.c ****         #else /* (QuadDec_M2_COUNTER_SIZE == QuadDec_M2_COUNTER_SIZE_16_BIT) */
 275:Generated_Source\PSoC5/QuadDec_M2.c ****             QuadDec_M2_Cnt16_WriteCounter(count);
 291              		.loc 1 275 0
 292 0024 FB89     		ldrh	r3, [r7, #14]
 293 0026 1846     		mov	r0, r3
 294 0028 FFF7FEFF 		bl	QuadDec_M2_Cnt16_WriteCounter
 276:Generated_Source\PSoC5/QuadDec_M2.c ****         #endif  /* QuadDec_M2_COUNTER_SIZE == QuadDec_M2_COUNTER_SIZE_8_BIT */
ARM GAS  C:\Users\ylee818\AppData\Local\Temp\ccSQKZwa.s 			page 11


 277:Generated_Source\PSoC5/QuadDec_M2.c ****     #else /* (QuadDec_M2_COUNTER_SIZE == QuadDec_M2_COUNTER_SIZE_32_BIT) */
 278:Generated_Source\PSoC5/QuadDec_M2.c ****         CyIntDisable(QuadDec_M2_ISR_NUMBER);
 279:Generated_Source\PSoC5/QuadDec_M2.c **** 
 280:Generated_Source\PSoC5/QuadDec_M2.c ****         QuadDec_M2_Cnt16_WriteCounter(QuadDec_M2_COUNTER_INIT_VALUE);
 281:Generated_Source\PSoC5/QuadDec_M2.c ****         QuadDec_M2_count32SoftPart = value;
 282:Generated_Source\PSoC5/QuadDec_M2.c **** 
 283:Generated_Source\PSoC5/QuadDec_M2.c ****         CyIntEnable(QuadDec_M2_ISR_NUMBER);
 284:Generated_Source\PSoC5/QuadDec_M2.c ****     #endif  /* (QuadDec_M2_COUNTER_SIZE == QuadDec_M2_COUNTER_SIZE_8_BIT) ||
 285:Generated_Source\PSoC5/QuadDec_M2.c ****              * (QuadDec_M2_COUNTER_SIZE == QuadDec_M2_COUNTER_SIZE_16_BIT)
 286:Generated_Source\PSoC5/QuadDec_M2.c ****              */
 287:Generated_Source\PSoC5/QuadDec_M2.c **** }
 295              		.loc 1 287 0
 296 002c 00BF     		nop
 297 002e 1037     		adds	r7, r7, #16
 298              		.cfi_def_cfa_offset 8
 299 0030 BD46     		mov	sp, r7
 300              		.cfi_def_cfa_register 13
 301              		@ sp needed
 302 0032 80BD     		pop	{r7, pc}
 303              		.cfi_endproc
 304              	.LFE5:
 305              		.size	QuadDec_M2_SetCounter, .-QuadDec_M2_SetCounter
 306              		.section	.text.QuadDec_M2_GetEvents,"ax",%progbits
 307              		.align	2
 308              		.global	QuadDec_M2_GetEvents
 309              		.thumb
 310              		.thumb_func
 311              		.type	QuadDec_M2_GetEvents, %function
 312              	QuadDec_M2_GetEvents:
 313              	.LFB6:
 288:Generated_Source\PSoC5/QuadDec_M2.c **** 
 289:Generated_Source\PSoC5/QuadDec_M2.c **** 
 290:Generated_Source\PSoC5/QuadDec_M2.c **** /*******************************************************************************
 291:Generated_Source\PSoC5/QuadDec_M2.c **** * Function Name: QuadDec_M2_GetEvents
 292:Generated_Source\PSoC5/QuadDec_M2.c **** ********************************************************************************
 293:Generated_Source\PSoC5/QuadDec_M2.c **** * 
 294:Generated_Source\PSoC5/QuadDec_M2.c **** * Summary:
 295:Generated_Source\PSoC5/QuadDec_M2.c **** *   Reports the current status of events. This function clears the bits of the 
 296:Generated_Source\PSoC5/QuadDec_M2.c **** *   status register.
 297:Generated_Source\PSoC5/QuadDec_M2.c **** *
 298:Generated_Source\PSoC5/QuadDec_M2.c **** * Parameters:
 299:Generated_Source\PSoC5/QuadDec_M2.c **** *  None.
 300:Generated_Source\PSoC5/QuadDec_M2.c **** *
 301:Generated_Source\PSoC5/QuadDec_M2.c **** * Return:
 302:Generated_Source\PSoC5/QuadDec_M2.c **** *  The events, as bits in an unsigned 8-bit value:
 303:Generated_Source\PSoC5/QuadDec_M2.c **** *    Bit      Description
 304:Generated_Source\PSoC5/QuadDec_M2.c **** *     0        Counter overflow.
 305:Generated_Source\PSoC5/QuadDec_M2.c **** *     1        Counter underflow.
 306:Generated_Source\PSoC5/QuadDec_M2.c **** *     2        Counter reset due to index, if index input is used.
 307:Generated_Source\PSoC5/QuadDec_M2.c **** *     3        Invalid A, B inputs state transition.
 308:Generated_Source\PSoC5/QuadDec_M2.c **** *
 309:Generated_Source\PSoC5/QuadDec_M2.c **** *******************************************************************************/
 310:Generated_Source\PSoC5/QuadDec_M2.c **** uint8 QuadDec_M2_GetEvents(void) 
 311:Generated_Source\PSoC5/QuadDec_M2.c **** {
 314              		.loc 1 311 0
 315              		.cfi_startproc
 316              		@ args = 0, pretend = 0, frame = 0
ARM GAS  C:\Users\ylee818\AppData\Local\Temp\ccSQKZwa.s 			page 12


 317              		@ frame_needed = 1, uses_anonymous_args = 0
 318              		@ link register save eliminated.
 319 0000 80B4     		push	{r7}
 320              		.cfi_def_cfa_offset 4
 321              		.cfi_offset 7, -4
 322 0002 00AF     		add	r7, sp, #0
 323              		.cfi_def_cfa_register 7
 312:Generated_Source\PSoC5/QuadDec_M2.c ****     return (QuadDec_M2_STATUS_REG & QuadDec_M2_INIT_INT_MASK);
 324              		.loc 1 312 0
 325 0004 044B     		ldr	r3, .L19
 326 0006 1B78     		ldrb	r3, [r3]
 327 0008 DBB2     		uxtb	r3, r3
 328 000a 03F00F03 		and	r3, r3, #15
 329 000e DBB2     		uxtb	r3, r3
 313:Generated_Source\PSoC5/QuadDec_M2.c **** }
 330              		.loc 1 313 0
 331 0010 1846     		mov	r0, r3
 332 0012 BD46     		mov	sp, r7
 333              		.cfi_def_cfa_register 13
 334              		@ sp needed
 335 0014 80BC     		pop	{r7}
 336              		.cfi_restore 7
 337              		.cfi_def_cfa_offset 0
 338 0016 7047     		bx	lr
 339              	.L20:
 340              		.align	2
 341              	.L19:
 342 0018 66650040 		.word	1073767782
 343              		.cfi_endproc
 344              	.LFE6:
 345              		.size	QuadDec_M2_GetEvents, .-QuadDec_M2_GetEvents
 346              		.section	.text.QuadDec_M2_SetInterruptMask,"ax",%progbits
 347              		.align	2
 348              		.global	QuadDec_M2_SetInterruptMask
 349              		.thumb
 350              		.thumb_func
 351              		.type	QuadDec_M2_SetInterruptMask, %function
 352              	QuadDec_M2_SetInterruptMask:
 353              	.LFB7:
 314:Generated_Source\PSoC5/QuadDec_M2.c **** 
 315:Generated_Source\PSoC5/QuadDec_M2.c **** 
 316:Generated_Source\PSoC5/QuadDec_M2.c **** /*******************************************************************************
 317:Generated_Source\PSoC5/QuadDec_M2.c **** * Function Name: QuadDec_M2_SetInterruptMask
 318:Generated_Source\PSoC5/QuadDec_M2.c **** ********************************************************************************
 319:Generated_Source\PSoC5/QuadDec_M2.c **** *
 320:Generated_Source\PSoC5/QuadDec_M2.c **** * Summary:
 321:Generated_Source\PSoC5/QuadDec_M2.c **** *  Enables / disables interrupts due to the events.
 322:Generated_Source\PSoC5/QuadDec_M2.c **** *  For the 32-bit counter, the overflow, underflow and reset interrupts cannot
 323:Generated_Source\PSoC5/QuadDec_M2.c **** *  be disabled, these bits are ignored.
 324:Generated_Source\PSoC5/QuadDec_M2.c **** *
 325:Generated_Source\PSoC5/QuadDec_M2.c **** * Parameters:
 326:Generated_Source\PSoC5/QuadDec_M2.c **** *  mask: Enable / disable bits in an 8-bit value, where 1 enables the interrupt.
 327:Generated_Source\PSoC5/QuadDec_M2.c **** *
 328:Generated_Source\PSoC5/QuadDec_M2.c **** * Return:
 329:Generated_Source\PSoC5/QuadDec_M2.c **** *  None.
 330:Generated_Source\PSoC5/QuadDec_M2.c **** *
 331:Generated_Source\PSoC5/QuadDec_M2.c **** *******************************************************************************/
ARM GAS  C:\Users\ylee818\AppData\Local\Temp\ccSQKZwa.s 			page 13


 332:Generated_Source\PSoC5/QuadDec_M2.c **** void QuadDec_M2_SetInterruptMask(uint8 mask) 
 333:Generated_Source\PSoC5/QuadDec_M2.c **** {
 354              		.loc 1 333 0
 355              		.cfi_startproc
 356              		@ args = 0, pretend = 0, frame = 8
 357              		@ frame_needed = 1, uses_anonymous_args = 0
 358              		@ link register save eliminated.
 359 0000 80B4     		push	{r7}
 360              		.cfi_def_cfa_offset 4
 361              		.cfi_offset 7, -4
 362 0002 83B0     		sub	sp, sp, #12
 363              		.cfi_def_cfa_offset 16
 364 0004 00AF     		add	r7, sp, #0
 365              		.cfi_def_cfa_register 7
 366 0006 0346     		mov	r3, r0
 367 0008 FB71     		strb	r3, [r7, #7]
 334:Generated_Source\PSoC5/QuadDec_M2.c ****     #if (QuadDec_M2_COUNTER_SIZE == QuadDec_M2_COUNTER_SIZE_32_BIT)
 335:Generated_Source\PSoC5/QuadDec_M2.c ****         /* Underflow, Overflow and Reset interrupts for 32-bit Counter are always enable */
 336:Generated_Source\PSoC5/QuadDec_M2.c ****         mask |= (QuadDec_M2_COUNTER_OVERFLOW | QuadDec_M2_COUNTER_UNDERFLOW |
 337:Generated_Source\PSoC5/QuadDec_M2.c ****                  QuadDec_M2_COUNTER_RESET);
 338:Generated_Source\PSoC5/QuadDec_M2.c ****     #endif /* QuadDec_M2_COUNTER_SIZE == QuadDec_M2_COUNTER_SIZE_32_BIT */
 339:Generated_Source\PSoC5/QuadDec_M2.c **** 
 340:Generated_Source\PSoC5/QuadDec_M2.c ****     QuadDec_M2_STATUS_MASK = mask;
 368              		.loc 1 340 0
 369 000a 044A     		ldr	r2, .L22
 370 000c FB79     		ldrb	r3, [r7, #7]
 371 000e 1370     		strb	r3, [r2]
 341:Generated_Source\PSoC5/QuadDec_M2.c **** }
 372              		.loc 1 341 0
 373 0010 00BF     		nop
 374 0012 0C37     		adds	r7, r7, #12
 375              		.cfi_def_cfa_offset 4
 376 0014 BD46     		mov	sp, r7
 377              		.cfi_def_cfa_register 13
 378              		@ sp needed
 379 0016 80BC     		pop	{r7}
 380              		.cfi_restore 7
 381              		.cfi_def_cfa_offset 0
 382 0018 7047     		bx	lr
 383              	.L23:
 384 001a 00BF     		.align	2
 385              	.L22:
 386 001c 86650040 		.word	1073767814
 387              		.cfi_endproc
 388              	.LFE7:
 389              		.size	QuadDec_M2_SetInterruptMask, .-QuadDec_M2_SetInterruptMask
 390              		.section	.text.QuadDec_M2_GetInterruptMask,"ax",%progbits
 391              		.align	2
 392              		.global	QuadDec_M2_GetInterruptMask
 393              		.thumb
 394              		.thumb_func
 395              		.type	QuadDec_M2_GetInterruptMask, %function
 396              	QuadDec_M2_GetInterruptMask:
 397              	.LFB8:
 342:Generated_Source\PSoC5/QuadDec_M2.c **** 
 343:Generated_Source\PSoC5/QuadDec_M2.c **** 
 344:Generated_Source\PSoC5/QuadDec_M2.c **** /*******************************************************************************
ARM GAS  C:\Users\ylee818\AppData\Local\Temp\ccSQKZwa.s 			page 14


 345:Generated_Source\PSoC5/QuadDec_M2.c **** * Function Name: QuadDec_M2_GetInterruptMask
 346:Generated_Source\PSoC5/QuadDec_M2.c **** ********************************************************************************
 347:Generated_Source\PSoC5/QuadDec_M2.c **** *
 348:Generated_Source\PSoC5/QuadDec_M2.c **** * Summary:
 349:Generated_Source\PSoC5/QuadDec_M2.c **** *  Reports the current interrupt mask settings.
 350:Generated_Source\PSoC5/QuadDec_M2.c **** *
 351:Generated_Source\PSoC5/QuadDec_M2.c **** * Parameters:
 352:Generated_Source\PSoC5/QuadDec_M2.c **** *  None.
 353:Generated_Source\PSoC5/QuadDec_M2.c **** *
 354:Generated_Source\PSoC5/QuadDec_M2.c **** * Return:
 355:Generated_Source\PSoC5/QuadDec_M2.c **** *  Enable / disable bits in an 8-bit value, where 1 enables the interrupt.
 356:Generated_Source\PSoC5/QuadDec_M2.c **** *  For the 32-bit counter, the overflow, underflow and reset enable bits are
 357:Generated_Source\PSoC5/QuadDec_M2.c **** *  always set.
 358:Generated_Source\PSoC5/QuadDec_M2.c **** *
 359:Generated_Source\PSoC5/QuadDec_M2.c **** *******************************************************************************/
 360:Generated_Source\PSoC5/QuadDec_M2.c **** uint8 QuadDec_M2_GetInterruptMask(void) 
 361:Generated_Source\PSoC5/QuadDec_M2.c **** {
 398              		.loc 1 361 0
 399              		.cfi_startproc
 400              		@ args = 0, pretend = 0, frame = 0
 401              		@ frame_needed = 1, uses_anonymous_args = 0
 402              		@ link register save eliminated.
 403 0000 80B4     		push	{r7}
 404              		.cfi_def_cfa_offset 4
 405              		.cfi_offset 7, -4
 406 0002 00AF     		add	r7, sp, #0
 407              		.cfi_def_cfa_register 7
 362:Generated_Source\PSoC5/QuadDec_M2.c ****     return (QuadDec_M2_STATUS_MASK & QuadDec_M2_INIT_INT_MASK);
 408              		.loc 1 362 0
 409 0004 044B     		ldr	r3, .L26
 410 0006 1B78     		ldrb	r3, [r3]
 411 0008 DBB2     		uxtb	r3, r3
 412 000a 03F00F03 		and	r3, r3, #15
 413 000e DBB2     		uxtb	r3, r3
 363:Generated_Source\PSoC5/QuadDec_M2.c **** }
 414              		.loc 1 363 0
 415 0010 1846     		mov	r0, r3
 416 0012 BD46     		mov	sp, r7
 417              		.cfi_def_cfa_register 13
 418              		@ sp needed
 419 0014 80BC     		pop	{r7}
 420              		.cfi_restore 7
 421              		.cfi_def_cfa_offset 0
 422 0016 7047     		bx	lr
 423              	.L27:
 424              		.align	2
 425              	.L26:
 426 0018 86650040 		.word	1073767814
 427              		.cfi_endproc
 428              	.LFE8:
 429              		.size	QuadDec_M2_GetInterruptMask, .-QuadDec_M2_GetInterruptMask
 430              		.text
 431              	.Letext0:
 432              		.file 2 "Generated_Source\\PSoC5\\cytypes.h"