ARM GAS  C:\Users\ylee818\AppData\Local\Temp\ccJTRomE.s 			page 1


   1              		.syntax unified
   2              		.cpu cortex-m3
   3              		.fpu softvfp
   4              		.eabi_attribute 20, 1
   5              		.eabi_attribute 21, 1
   6              		.eabi_attribute 23, 3
   7              		.eabi_attribute 24, 1
   8              		.eabi_attribute 25, 1
   9              		.eabi_attribute 26, 1
  10              		.eabi_attribute 30, 6
  11              		.eabi_attribute 34, 1
  12              		.eabi_attribute 18, 4
  13              		.thumb
  14              		.syntax unified
  15              		.file	"motor_s.c"
  16              		.text
  17              	.Ltext0:
  18              		.cfi_sections	.debug_frame
  19              		.section	.text.clamp100,"ax",%progbits
  20              		.align	2
  21              		.global	clamp100
  22              		.thumb
  23              		.thumb_func
  24              		.type	clamp100, %function
  25              	clamp100:
  26              	.LFB63:
  27              		.file 1 "motor_s.c"
   1:motor_s.c     **** #include "motor_s.h"
   2:motor_s.c     **** 
   3:motor_s.c     **** /* RIGHT_TRIM_PERCENT가 다른 헤더/파일에 있으면 그 값을 사용.
   4:motor_s.c     ****  * 없으면 0(트림 없음)으로 처리.
   5:motor_s.c     ****  */
   6:motor_s.c     **** #ifndef RIGHT_TRIM_PERCENT
   7:motor_s.c     **** #define RIGHT_TRIM_PERCENT   (-7)
   8:motor_s.c     **** #endif
   9:motor_s.c     **** 
  10:motor_s.c     **** int clamp100(int x){
  28              		.loc 1 10 0
  29              		.cfi_startproc
  30              		@ args = 0, pretend = 0, frame = 8
  31              		@ frame_needed = 1, uses_anonymous_args = 0
  32              		@ link register save eliminated.
  33 0000 80B4     		push	{r7}
  34              		.cfi_def_cfa_offset 4
  35              		.cfi_offset 7, -4
  36 0002 83B0     		sub	sp, sp, #12
  37              		.cfi_def_cfa_offset 16
  38 0004 00AF     		add	r7, sp, #0
  39              		.cfi_def_cfa_register 7
  40 0006 7860     		str	r0, [r7, #4]
  11:motor_s.c     ****     if (x > 100) return 100;
  41              		.loc 1 11 0
  42 0008 7B68     		ldr	r3, [r7, #4]
  43 000a 642B     		cmp	r3, #100
  44 000c 01DD     		ble	.L2
  45              		.loc 1 11 0 is_stmt 0 discriminator 1
  46 000e 6423     		movs	r3, #100
ARM GAS  C:\Users\ylee818\AppData\Local\Temp\ccJTRomE.s 			page 2


  47 0010 07E0     		b	.L3
  48              	.L2:
  12:motor_s.c     ****     if (x < -100) return -100;
  49              		.loc 1 12 0 is_stmt 1
  50 0012 7B68     		ldr	r3, [r7, #4]
  51 0014 13F1640F 		cmn	r3, #100
  52 0018 02DA     		bge	.L4
  53              		.loc 1 12 0 is_stmt 0 discriminator 1
  54 001a 6FF06303 		mvn	r3, #99
  55 001e 00E0     		b	.L3
  56              	.L4:
  13:motor_s.c     ****     return x;
  57              		.loc 1 13 0 is_stmt 1
  58 0020 7B68     		ldr	r3, [r7, #4]
  59              	.L3:
  14:motor_s.c     **** }
  60              		.loc 1 14 0
  61 0022 1846     		mov	r0, r3
  62 0024 0C37     		adds	r7, r7, #12
  63              		.cfi_def_cfa_offset 4
  64 0026 BD46     		mov	sp, r7
  65              		.cfi_def_cfa_register 13
  66              		@ sp needed
  67 0028 80BC     		pop	{r7}
  68              		.cfi_restore 7
  69              		.cfi_def_cfa_offset 0
  70 002a 7047     		bx	lr
  71              		.cfi_endproc
  72              	.LFE63:
  73              		.size	clamp100, .-clamp100
  74              		.section	.text.duty_to_compare,"ax",%progbits
  75              		.align	2
  76              		.global	duty_to_compare
  77              		.thumb
  78              		.thumb_func
  79              		.type	duty_to_compare, %function
  80              	duty_to_compare:
  81              	.LFB64:
  15:motor_s.c     **** 
  16:motor_s.c     **** uint16 duty_to_compare(int s){
  82              		.loc 1 16 0
  83              		.cfi_startproc
  84              		@ args = 0, pretend = 0, frame = 8
  85              		@ frame_needed = 1, uses_anonymous_args = 0
  86              		@ link register save eliminated.
  87 0000 80B4     		push	{r7}
  88              		.cfi_def_cfa_offset 4
  89              		.cfi_offset 7, -4
  90 0002 83B0     		sub	sp, sp, #12
  91              		.cfi_def_cfa_offset 16
  92 0004 00AF     		add	r7, sp, #0
  93              		.cfi_def_cfa_register 7
  94 0006 7860     		str	r0, [r7, #4]
  17:motor_s.c     ****     if (s < -100) s = -100;
  95              		.loc 1 17 0
  96 0008 7B68     		ldr	r3, [r7, #4]
  97 000a 13F1640F 		cmn	r3, #100
ARM GAS  C:\Users\ylee818\AppData\Local\Temp\ccJTRomE.s 			page 3


  98 000e 02DA     		bge	.L6
  99              		.loc 1 17 0 is_stmt 0 discriminator 1
 100 0010 6FF06303 		mvn	r3, #99
 101 0014 7B60     		str	r3, [r7, #4]
 102              	.L6:
  18:motor_s.c     ****     if (s >  100) s =  100;
 103              		.loc 1 18 0 is_stmt 1
 104 0016 7B68     		ldr	r3, [r7, #4]
 105 0018 642B     		cmp	r3, #100
 106 001a 01DD     		ble	.L7
 107              		.loc 1 18 0 is_stmt 0 discriminator 1
 108 001c 6423     		movs	r3, #100
 109 001e 7B60     		str	r3, [r7, #4]
 110              	.L7:
  19:motor_s.c     ****     /* PWM Period의 중앙을 0%로 보고, ±로 오프셋 */
  20:motor_s.c     ****     return (uint16)((PWM_PERIOD/2) + ((int32)PWM_PERIOD * s)/200);
 111              		.loc 1 20 0 is_stmt 1
 112 0020 7B68     		ldr	r3, [r7, #4]
 113 0022 C822     		movs	r2, #200
 114 0024 02FB03F3 		mul	r3, r2, r3
 115 0028 064A     		ldr	r2, .L9
 116 002a 82FB0312 		smull	r1, r2, r2, r3
 117 002e 9211     		asrs	r2, r2, #6
 118 0030 DB17     		asrs	r3, r3, #31
 119 0032 D31A     		subs	r3, r2, r3
 120 0034 9BB2     		uxth	r3, r3
 121 0036 6433     		adds	r3, r3, #100
 122 0038 9BB2     		uxth	r3, r3
  21:motor_s.c     **** }
 123              		.loc 1 21 0
 124 003a 1846     		mov	r0, r3
 125 003c 0C37     		adds	r7, r7, #12
 126              		.cfi_def_cfa_offset 4
 127 003e BD46     		mov	sp, r7
 128              		.cfi_def_cfa_register 13
 129              		@ sp needed
 130 0040 80BC     		pop	{r7}
 131              		.cfi_restore 7
 132              		.cfi_def_cfa_offset 0
 133 0042 7047     		bx	lr
 134              	.L10:
 135              		.align	2
 136              	.L9:
 137 0044 1F85EB51 		.word	1374389535
 138              		.cfi_endproc
 139              	.LFE64:
 140              		.size	duty_to_compare, .-duty_to_compare
 141              		.section	.text.motor_enable,"ax",%progbits
 142              		.align	2
 143              		.global	motor_enable
 144              		.thumb
 145              		.thumb_func
 146              		.type	motor_enable, %function
 147              	motor_enable:
 148              	.LFB65:
  22:motor_s.c     **** 
  23:motor_s.c     **** void motor_enable(uint8 m1_disable, uint8 m2_disable){
ARM GAS  C:\Users\ylee818\AppData\Local\Temp\ccJTRomE.s 			page 4


 149              		.loc 1 23 0
 150              		.cfi_startproc
 151              		@ args = 0, pretend = 0, frame = 16
 152              		@ frame_needed = 1, uses_anonymous_args = 0
 153 0000 80B5     		push	{r7, lr}
 154              		.cfi_def_cfa_offset 8
 155              		.cfi_offset 7, -8
 156              		.cfi_offset 14, -4
 157 0002 84B0     		sub	sp, sp, #16
 158              		.cfi_def_cfa_offset 24
 159 0004 00AF     		add	r7, sp, #0
 160              		.cfi_def_cfa_register 7
 161 0006 0346     		mov	r3, r0
 162 0008 0A46     		mov	r2, r1
 163 000a FB71     		strb	r3, [r7, #7]
 164 000c 1346     		mov	r3, r2
 165 000e BB71     		strb	r3, [r7, #6]
  24:motor_s.c     ****     uint8 v = 0;
 166              		.loc 1 24 0
 167 0010 0023     		movs	r3, #0
 168 0012 FB73     		strb	r3, [r7, #15]
  25:motor_s.c     ****     //CyDelay(10);
  26:motor_s.c     ****     if (m1_disable) v |= 0x01;  /* bit0 -> M1_D1 (HIGH=disable) */
 169              		.loc 1 26 0
 170 0014 FB79     		ldrb	r3, [r7, #7]	@ zero_extendqisi2
 171 0016 002B     		cmp	r3, #0
 172 0018 03D0     		beq	.L12
 173              		.loc 1 26 0 is_stmt 0 discriminator 1
 174 001a FB7B     		ldrb	r3, [r7, #15]
 175 001c 43F00103 		orr	r3, r3, #1
 176 0020 FB73     		strb	r3, [r7, #15]
 177              	.L12:
  27:motor_s.c     ****     if (m2_disable) v |= 0x02;  /* bit1 -> M2_D1 (HIGH=disable) */
 178              		.loc 1 27 0 is_stmt 1
 179 0022 BB79     		ldrb	r3, [r7, #6]	@ zero_extendqisi2
 180 0024 002B     		cmp	r3, #0
 181 0026 03D0     		beq	.L13
 182              		.loc 1 27 0 is_stmt 0 discriminator 1
 183 0028 FB7B     		ldrb	r3, [r7, #15]
 184 002a 43F00203 		orr	r3, r3, #2
 185 002e FB73     		strb	r3, [r7, #15]
 186              	.L13:
  28:motor_s.c     ****     CONTROL_Write(v);
 187              		.loc 1 28 0 is_stmt 1
 188 0030 FB7B     		ldrb	r3, [r7, #15]	@ zero_extendqisi2
 189 0032 1846     		mov	r0, r3
 190 0034 FFF7FEFF 		bl	CONTROL_Write
  29:motor_s.c     **** }
 191              		.loc 1 29 0
 192 0038 00BF     		nop
 193 003a 1037     		adds	r7, r7, #16
 194              		.cfi_def_cfa_offset 8
 195 003c BD46     		mov	sp, r7
 196              		.cfi_def_cfa_register 13
 197              		@ sp needed
 198 003e 80BD     		pop	{r7, pc}
 199              		.cfi_endproc
ARM GAS  C:\Users\ylee818\AppData\Local\Temp\ccJTRomE.s 			page 5


 200              	.LFE65:
 201              		.size	motor_enable, .-motor_enable
 202              		.section	.text.apply_right_trim,"ax",%progbits
 203              		.align	2
 204              		.global	apply_right_trim
 205              		.thumb
 206              		.thumb_func
 207              		.type	apply_right_trim, %function
 208              	apply_right_trim:
 209              	.LFB66:
  30:motor_s.c     **** 
  31:motor_s.c     **** int apply_right_trim(int duty){
 210              		.loc 1 31 0
 211              		.cfi_startproc
 212              		@ args = 0, pretend = 0, frame = 16
 213              		@ frame_needed = 1, uses_anonymous_args = 0
 214              		@ link register save eliminated.
 215 0000 80B4     		push	{r7}
 216              		.cfi_def_cfa_offset 4
 217              		.cfi_offset 7, -4
 218 0002 85B0     		sub	sp, sp, #20
 219              		.cfi_def_cfa_offset 24
 220 0004 00AF     		add	r7, sp, #0
 221              		.cfi_def_cfa_register 7
 222 0006 7860     		str	r0, [r7, #4]
  32:motor_s.c     ****     /* RIGHT_TRIM_PERCENT: 음수면 오른쪽 강화(네 기존 로직 유지) */
  33:motor_s.c     ****     int32_t scaled = ((int32_t)duty * (100 - RIGHT_TRIM_PERCENT)) / 100;
 223              		.loc 1 33 0
 224 0008 7B68     		ldr	r3, [r7, #4]
 225 000a 6B22     		movs	r2, #107
 226 000c 02FB03F3 		mul	r3, r2, r3
 227 0010 064A     		ldr	r2, .L16
 228 0012 82FB0312 		smull	r1, r2, r2, r3
 229 0016 5211     		asrs	r2, r2, #5
 230 0018 DB17     		asrs	r3, r3, #31
 231 001a D31A     		subs	r3, r2, r3
 232 001c FB60     		str	r3, [r7, #12]
  34:motor_s.c     ****     return (int)scaled;
 233              		.loc 1 34 0
 234 001e FB68     		ldr	r3, [r7, #12]
  35:motor_s.c     **** }
 235              		.loc 1 35 0
 236 0020 1846     		mov	r0, r3
 237 0022 1437     		adds	r7, r7, #20
 238              		.cfi_def_cfa_offset 4
 239 0024 BD46     		mov	sp, r7
 240              		.cfi_def_cfa_register 13
 241              		@ sp needed
 242 0026 80BC     		pop	{r7}
 243              		.cfi_restore 7
 244              		.cfi_def_cfa_offset 0
 245 0028 7047     		bx	lr
 246              	.L17:
 247 002a 00BF     		.align	2
 248              	.L16:
 249 002c 1F85EB51 		.word	1374389535
 250              		.cfi_endproc
ARM GAS  C:\Users\ylee818\AppData\Local\Temp\ccJTRomE.s 			page 6


 251              	.LFE66:
 252              		.size	apply_right_trim, .-apply_right_trim
 253              		.section	.text.set_motors_symmetric,"ax",%progbits
 254              		.align	2
 255              		.global	set_motors_symmetric
 256              		.thumb
 257              		.thumb_func
 258              		.type	set_motors_symmetric, %function
 259              	set_motors_symmetric:
 260              	.LFB67:
  36:motor_s.c     **** 
  37:motor_s.c     **** void set_motors_symmetric(int duty){
 261              		.loc 1 37 0
 262              		.cfi_startproc
 263              		@ args = 0, pretend = 0, frame = 8
 264              		@ frame_needed = 1, uses_anonymous_args = 0
 265 0000 80B5     		push	{r7, lr}
 266              		.cfi_def_cfa_offset 8
 267              		.cfi_offset 7, -8
 268              		.cfi_offset 14, -4
 269 0002 82B0     		sub	sp, sp, #8
 270              		.cfi_def_cfa_offset 16
 271 0004 00AF     		add	r7, sp, #0
 272              		.cfi_def_cfa_register 7
 273 0006 7860     		str	r0, [r7, #4]
  38:motor_s.c     ****     duty = clamp100(duty);
 274              		.loc 1 38 0
 275 0008 7868     		ldr	r0, [r7, #4]
 276 000a FFF7FEFF 		bl	clamp100
 277 000e 7860     		str	r0, [r7, #4]
  39:motor_s.c     ****     PWM_1_WriteCompare(duty_to_compare(RIGHT_MOTOR_SIGN * duty));
 278              		.loc 1 39 0
 279 0010 7B68     		ldr	r3, [r7, #4]
 280 0012 5B42     		negs	r3, r3
 281 0014 1846     		mov	r0, r3
 282 0016 FFF7FEFF 		bl	duty_to_compare
 283 001a 0346     		mov	r3, r0
 284 001c DBB2     		uxtb	r3, r3
 285 001e 1846     		mov	r0, r3
 286 0020 FFF7FEFF 		bl	PWM_1_WriteCompare
  40:motor_s.c     ****     PWM_2_WriteCompare(duty_to_compare(LEFT_MOTOR_SIGN  * duty));
 287              		.loc 1 40 0
 288 0024 7868     		ldr	r0, [r7, #4]
 289 0026 FFF7FEFF 		bl	duty_to_compare
 290 002a 0346     		mov	r3, r0
 291 002c DBB2     		uxtb	r3, r3
 292 002e 1846     		mov	r0, r3
 293 0030 FFF7FEFF 		bl	PWM_2_WriteCompare
  41:motor_s.c     **** }
 294              		.loc 1 41 0
 295 0034 00BF     		nop
 296 0036 0837     		adds	r7, r7, #8
 297              		.cfi_def_cfa_offset 8
 298 0038 BD46     		mov	sp, r7
 299              		.cfi_def_cfa_register 13
 300              		@ sp needed
 301 003a 80BD     		pop	{r7, pc}
ARM GAS  C:\Users\ylee818\AppData\Local\Temp\ccJTRomE.s 			page 7


 302              		.cfi_endproc
 303              	.LFE67:
 304              		.size	set_motors_symmetric, .-set_motors_symmetric
 305              		.section	.text.set_motors_with_trim_and_steer,"ax",%progbits
 306              		.align	2
 307              		.global	set_motors_with_trim_and_steer
 308              		.thumb
 309              		.thumb_func
 310              		.type	set_motors_with_trim_and_steer, %function
 311              	set_motors_with_trim_and_steer:
 312              	.LFB68:
  42:motor_s.c     **** 
  43:motor_s.c     **** void set_motors_with_trim_and_steer(int duty_center, int steer){
 313              		.loc 1 43 0
 314              		.cfi_startproc
 315              		@ args = 0, pretend = 0, frame = 16
 316              		@ frame_needed = 1, uses_anonymous_args = 0
 317 0000 80B5     		push	{r7, lr}
 318              		.cfi_def_cfa_offset 8
 319              		.cfi_offset 7, -8
 320              		.cfi_offset 14, -4
 321 0002 84B0     		sub	sp, sp, #16
 322              		.cfi_def_cfa_offset 24
 323 0004 00AF     		add	r7, sp, #0
 324              		.cfi_def_cfa_register 7
 325 0006 7860     		str	r0, [r7, #4]
 326 0008 3960     		str	r1, [r7]
  44:motor_s.c     ****     int duty_right = clamp100(duty_center + steer);
 327              		.loc 1 44 0
 328 000a 7A68     		ldr	r2, [r7, #4]
 329 000c 3B68     		ldr	r3, [r7]
 330 000e 1344     		add	r3, r3, r2
 331 0010 1846     		mov	r0, r3
 332 0012 FFF7FEFF 		bl	clamp100
 333 0016 F860     		str	r0, [r7, #12]
  45:motor_s.c     ****     int duty_left  = clamp100(duty_center - steer);
 334              		.loc 1 45 0
 335 0018 7A68     		ldr	r2, [r7, #4]
 336 001a 3B68     		ldr	r3, [r7]
 337 001c D31A     		subs	r3, r2, r3
 338 001e 1846     		mov	r0, r3
 339 0020 FFF7FEFF 		bl	clamp100
 340 0024 B860     		str	r0, [r7, #8]
  46:motor_s.c     **** 
  47:motor_s.c     ****     /* 오른쪽만 트림 */
  48:motor_s.c     ****     duty_right = clamp100(apply_right_trim(duty_right));
 341              		.loc 1 48 0
 342 0026 F868     		ldr	r0, [r7, #12]
 343 0028 FFF7FEFF 		bl	apply_right_trim
 344 002c 0346     		mov	r3, r0
 345 002e 1846     		mov	r0, r3
 346 0030 FFF7FEFF 		bl	clamp100
 347 0034 F860     		str	r0, [r7, #12]
  49:motor_s.c     **** 
  50:motor_s.c     ****     /* 전진 구간에서 최소 듀티 보장 */
  51:motor_s.c     ****     if (duty_center > 0) {
 348              		.loc 1 51 0
ARM GAS  C:\Users\ylee818\AppData\Local\Temp\ccJTRomE.s 			page 8


 349 0036 7B68     		ldr	r3, [r7, #4]
 350 0038 002B     		cmp	r3, #0
 351 003a 0FDD     		ble	.L20
  52:motor_s.c     ****         if (duty_right > 0 && duty_right < MIN_WHEEL_DUTY_R) duty_right = MIN_WHEEL_DUTY_R;
 352              		.loc 1 52 0
 353 003c FB68     		ldr	r3, [r7, #12]
 354 003e 002B     		cmp	r3, #0
 355 0040 04DD     		ble	.L21
 356              		.loc 1 52 0 is_stmt 0 discriminator 1
 357 0042 FB68     		ldr	r3, [r7, #12]
 358 0044 0E2B     		cmp	r3, #14
 359 0046 01DC     		bgt	.L21
 360              		.loc 1 52 0 discriminator 2
 361 0048 0F23     		movs	r3, #15
 362 004a FB60     		str	r3, [r7, #12]
 363              	.L21:
  53:motor_s.c     ****         if (duty_left  > 0 && duty_left  < MIN_WHEEL_DUTY_L) duty_left  = MIN_WHEEL_DUTY_L;
 364              		.loc 1 53 0 is_stmt 1
 365 004c BB68     		ldr	r3, [r7, #8]
 366 004e 002B     		cmp	r3, #0
 367 0050 04DD     		ble	.L20
 368              		.loc 1 53 0 is_stmt 0 discriminator 1
 369 0052 BB68     		ldr	r3, [r7, #8]
 370 0054 0E2B     		cmp	r3, #14
 371 0056 01DC     		bgt	.L20
 372              		.loc 1 53 0 discriminator 2
 373 0058 0F23     		movs	r3, #15
 374 005a BB60     		str	r3, [r7, #8]
 375              	.L20:
  54:motor_s.c     ****     }
  55:motor_s.c     **** 
  56:motor_s.c     ****     PWM_1_WriteCompare(duty_to_compare(RIGHT_MOTOR_SIGN * duty_right));
 376              		.loc 1 56 0 is_stmt 1
 377 005c FB68     		ldr	r3, [r7, #12]
 378 005e 5B42     		negs	r3, r3
 379 0060 1846     		mov	r0, r3
 380 0062 FFF7FEFF 		bl	duty_to_compare
 381 0066 0346     		mov	r3, r0
 382 0068 DBB2     		uxtb	r3, r3
 383 006a 1846     		mov	r0, r3
 384 006c FFF7FEFF 		bl	PWM_1_WriteCompare
  57:motor_s.c     ****     PWM_2_WriteCompare(duty_to_compare(LEFT_MOTOR_SIGN  * duty_left ));
 385              		.loc 1 57 0
 386 0070 B868     		ldr	r0, [r7, #8]
 387 0072 FFF7FEFF 		bl	duty_to_compare
 388 0076 0346     		mov	r3, r0
 389 0078 DBB2     		uxtb	r3, r3
 390 007a 1846     		mov	r0, r3
 391 007c FFF7FEFF 		bl	PWM_2_WriteCompare
  58:motor_s.c     **** }
 392              		.loc 1 58 0
 393 0080 00BF     		nop
 394 0082 1037     		adds	r7, r7, #16
 395              		.cfi_def_cfa_offset 8
 396 0084 BD46     		mov	sp, r7
 397              		.cfi_def_cfa_register 13
 398              		@ sp needed
ARM GAS  C:\Users\ylee818\AppData\Local\Temp\ccJTRomE.s 			page 9


 399 0086 80BD     		pop	{r7, pc}
 400              		.cfi_endproc
 401              	.LFE68:
 402              		.size	set_motors_with_trim_and_steer, .-set_motors_with_trim_and_steer
 403              		.section	.text.Motors_SetPercent,"ax",%progbits
 404              		.align	2
 405              		.global	Motors_SetPercent
 406              		.thumb
 407              		.thumb_func
 408              		.type	Motors_SetPercent, %function
 409              	Motors_SetPercent:
 410              	.LFB69:
  59:motor_s.c     **** 
  60:motor_s.c     **** void Motors_SetPercent(int8_t left_pc, int8_t right_pc) {
 411              		.loc 1 60 0
 412              		.cfi_startproc
 413              		@ args = 0, pretend = 0, frame = 24
 414              		@ frame_needed = 1, uses_anonymous_args = 0
 415 0000 80B5     		push	{r7, lr}
 416              		.cfi_def_cfa_offset 8
 417              		.cfi_offset 7, -8
 418              		.cfi_offset 14, -4
 419 0002 86B0     		sub	sp, sp, #24
 420              		.cfi_def_cfa_offset 32
 421 0004 00AF     		add	r7, sp, #0
 422              		.cfi_def_cfa_register 7
 423 0006 0346     		mov	r3, r0
 424 0008 0A46     		mov	r2, r1
 425 000a FB71     		strb	r3, [r7, #7]
 426 000c 1346     		mov	r3, r2
 427 000e BB71     		strb	r3, [r7, #6]
  61:motor_s.c     ****     int16_t dutyL = (int16_t)left_pc  * LEFT_MOTOR_SIGN;
 428              		.loc 1 61 0
 429 0010 97F90730 		ldrsb	r3, [r7, #7]
 430 0014 FB82     		strh	r3, [r7, #22]	@ movhi
  62:motor_s.c     ****     int16_t dutyR = (int16_t)right_pc * RIGHT_MOTOR_SIGN;
 431              		.loc 1 62 0
 432 0016 97F90630 		ldrsb	r3, [r7, #6]
 433 001a 9BB2     		uxth	r3, r3
 434 001c 5B42     		negs	r3, r3
 435 001e 9BB2     		uxth	r3, r3
 436 0020 BB82     		strh	r3, [r7, #20]	@ movhi
  63:motor_s.c     **** 
  64:motor_s.c     ****     // Convert -100..100% into compare value
  65:motor_s.c     ****     uint16_t period = PWM_1_ReadPeriod();
 437              		.loc 1 65 0
 438 0022 FFF7FEFF 		bl	PWM_1_ReadPeriod
 439 0026 0346     		mov	r3, r0
 440 0028 7B82     		strh	r3, [r7, #18]	@ movhi
  66:motor_s.c     ****     uint16_t cmpL = (period * (100 + dutyL)) / 200;
 441              		.loc 1 66 0
 442 002a 7B8A     		ldrh	r3, [r7, #18]
 443 002c B7F91620 		ldrsh	r2, [r7, #22]
 444 0030 6432     		adds	r2, r2, #100
 445 0032 02FB03F3 		mul	r3, r2, r3
 446 0036 114A     		ldr	r2, .L23
 447 0038 82FB0312 		smull	r1, r2, r2, r3
ARM GAS  C:\Users\ylee818\AppData\Local\Temp\ccJTRomE.s 			page 10


 448 003c 9211     		asrs	r2, r2, #6
 449 003e DB17     		asrs	r3, r3, #31
 450 0040 D31A     		subs	r3, r2, r3
 451 0042 3B82     		strh	r3, [r7, #16]	@ movhi
  67:motor_s.c     ****     uint16_t cmpR = (period * (100 + dutyR)) / 200;
 452              		.loc 1 67 0
 453 0044 7B8A     		ldrh	r3, [r7, #18]
 454 0046 B7F91420 		ldrsh	r2, [r7, #20]
 455 004a 6432     		adds	r2, r2, #100
 456 004c 02FB03F3 		mul	r3, r2, r3
 457 0050 0A4A     		ldr	r2, .L23
 458 0052 82FB0312 		smull	r1, r2, r2, r3
 459 0056 9211     		asrs	r2, r2, #6
 460 0058 DB17     		asrs	r3, r3, #31
 461 005a D31A     		subs	r3, r2, r3
 462 005c FB81     		strh	r3, [r7, #14]	@ movhi
  68:motor_s.c     **** 
  69:motor_s.c     ****     PWM_2_WriteCompare(cmpL);
 463              		.loc 1 69 0
 464 005e 3B8A     		ldrh	r3, [r7, #16]	@ movhi
 465 0060 DBB2     		uxtb	r3, r3
 466 0062 1846     		mov	r0, r3
 467 0064 FFF7FEFF 		bl	PWM_2_WriteCompare
  70:motor_s.c     ****     PWM_1_WriteCompare(cmpR);
 468              		.loc 1 70 0
 469 0068 FB89     		ldrh	r3, [r7, #14]	@ movhi
 470 006a DBB2     		uxtb	r3, r3
 471 006c 1846     		mov	r0, r3
 472 006e FFF7FEFF 		bl	PWM_1_WriteCompare
  71:motor_s.c     **** }
 473              		.loc 1 71 0
 474 0072 00BF     		nop
 475 0074 1837     		adds	r7, r7, #24
 476              		.cfi_def_cfa_offset 8
 477 0076 BD46     		mov	sp, r7
 478              		.cfi_def_cfa_register 13
 479              		@ sp needed
 480 0078 80BD     		pop	{r7, pc}
 481              	.L24:
 482 007a 00BF     		.align	2
 483              	.L23:
 484 007c 1F85EB51 		.word	1374389535
 485              		.cfi_endproc
 486              	.LFE69:
 487              		.size	Motors_SetPercent, .-Motors_SetPercent
 488              		.global	__aeabi_i2f
 489              		.global	__aeabi_fmul
 490              		.global	__aeabi_fadd
 491              		.global	__aeabi_fcmpgt
 492              		.global	__aeabi_fcmplt
 493              		.global	__aeabi_f2iz
 494              		.section	.text.dyn_brake_duty,"ax",%progbits
 495              		.align	2
 496              		.global	dyn_brake_duty
 497              		.thumb
 498              		.thumb_func
 499              		.type	dyn_brake_duty, %function
ARM GAS  C:\Users\ylee818\AppData\Local\Temp\ccJTRomE.s 			page 11


 500              	dyn_brake_duty:
 501              	.LFB70:
  72:motor_s.c     **** 
  73:motor_s.c     **** int dyn_brake_duty(int32_t v_mm_s_filt){
 502              		.loc 1 73 0
 503              		.cfi_startproc
 504              		@ args = 0, pretend = 0, frame = 16
 505              		@ frame_needed = 1, uses_anonymous_args = 0
 506 0000 80B5     		push	{r7, lr}
 507              		.cfi_def_cfa_offset 8
 508              		.cfi_offset 7, -8
 509              		.cfi_offset 14, -4
 510 0002 84B0     		sub	sp, sp, #16
 511              		.cfi_def_cfa_offset 24
 512 0004 00AF     		add	r7, sp, #0
 513              		.cfi_def_cfa_register 7
 514 0006 7860     		str	r0, [r7, #4]
  74:motor_s.c     ****     /* 속도 크기에 따라 브레이크 듀티 가변 (네 v4 공식 그대로) */
  75:motor_s.c     ****     int32_t spd = (v_mm_s_filt >= 0) ? v_mm_s_filt : -v_mm_s_filt;
 515              		.loc 1 75 0
 516 0008 7B68     		ldr	r3, [r7, #4]
 517 000a 002B     		cmp	r3, #0
 518 000c B8BF     		it	lt
 519 000e 5B42     		rsblt	r3, r3, #0
 520 0010 BB60     		str	r3, [r7, #8]
  76:motor_s.c     ****     float d = (float)BRAKE_DUTY_MIN + BRAKE_DUTY_PER_MM_S * (float)spd;
 521              		.loc 1 76 0
 522 0012 B868     		ldr	r0, [r7, #8]
 523 0014 FFF7FEFF 		bl	__aeabi_i2f
 524 0018 0346     		mov	r3, r0
 525 001a 1649     		ldr	r1, .L33
 526 001c 1846     		mov	r0, r3
 527 001e FFF7FEFF 		bl	__aeabi_fmul
 528 0022 0346     		mov	r3, r0
 529 0024 1449     		ldr	r1, .L33+4
 530 0026 1846     		mov	r0, r3
 531 0028 FFF7FEFF 		bl	__aeabi_fadd
 532 002c 0346     		mov	r3, r0
 533 002e FB60     		str	r3, [r7, #12]	@ float
  77:motor_s.c     ****     if (d > BRAKE_DUTY_MAX) d = BRAKE_DUTY_MAX;
 534              		.loc 1 77 0
 535 0030 1249     		ldr	r1, .L33+8
 536 0032 F868     		ldr	r0, [r7, #12]	@ float
 537 0034 FFF7FEFF 		bl	__aeabi_fcmpgt
 538 0038 0346     		mov	r3, r0
 539 003a 002B     		cmp	r3, #0
 540 003c 01D0     		beq	.L26
 541              		.loc 1 77 0 is_stmt 0 discriminator 1
 542 003e 0F4B     		ldr	r3, .L33+8
 543 0040 FB60     		str	r3, [r7, #12]	@ float
 544              	.L26:
  78:motor_s.c     ****     if (d < 0) d = 0;
 545              		.loc 1 78 0 is_stmt 1
 546 0042 4FF00001 		mov	r1, #0
 547 0046 F868     		ldr	r0, [r7, #12]	@ float
 548 0048 FFF7FEFF 		bl	__aeabi_fcmplt
 549 004c 0346     		mov	r3, r0
ARM GAS  C:\Users\ylee818\AppData\Local\Temp\ccJTRomE.s 			page 12


 550 004e 002B     		cmp	r3, #0
 551 0050 02D0     		beq	.L28
 552              		.loc 1 78 0 is_stmt 0 discriminator 1
 553 0052 4FF00003 		mov	r3, #0
 554 0056 FB60     		str	r3, [r7, #12]	@ float
 555              	.L28:
  79:motor_s.c     ****     return (int)(d + 0.5f);
 556              		.loc 1 79 0 is_stmt 1
 557 0058 4FF07C51 		mov	r1, #1056964608
 558 005c F868     		ldr	r0, [r7, #12]	@ float
 559 005e FFF7FEFF 		bl	__aeabi_fadd
 560 0062 0346     		mov	r3, r0
 561 0064 1846     		mov	r0, r3
 562 0066 FFF7FEFF 		bl	__aeabi_f2iz
 563 006a 0346     		mov	r3, r0
  80:motor_s.c     **** }
 564              		.loc 1 80 0
 565 006c 1846     		mov	r0, r3
 566 006e 1037     		adds	r7, r7, #16
 567              		.cfi_def_cfa_offset 8
 568 0070 BD46     		mov	sp, r7
 569              		.cfi_def_cfa_register 13
 570              		@ sp needed
 571 0072 80BD     		pop	{r7, pc}
 572              	.L34:
 573              		.align	2
 574              	.L33:
 575 0074 295C0F3D 		.word	1024416809
 576 0078 0000F041 		.word	1106247680
 577 007c 00005C42 		.word	1113325568
 578              		.cfi_endproc
 579              	.LFE70:
 580              		.size	dyn_brake_duty, .-dyn_brake_duty
 581              		.text
 582              	.Letext0:
 583              		.file 2 "c:\\program files (x86)\\cypress\\psoc creator\\4.2\\psoc creator\\import\\gnu\\arm\\5.4.
 584              		.file 3 "c:\\program files (x86)\\cypress\\psoc creator\\4.2\\psoc creator\\import\\gnu\\arm\\5.4.
 585              		.file 4 "Generated_Source\\PSoC5/cytypes.h"
 586              		.file 5 "Generated_Source\\PSoC5/core_cm3.h"